GAS LISTING /tmp/ccLsnRQw.s 			page 1


   1               		.file	"main.c"
   2               	__SP_H__ = 0x3e
   3               	__SP_L__ = 0x3d
   4               	__SREG__ = 0x3f
   5               	__tmp_reg__ = 0
   6               	__zero_reg__ = 1
   9               		.text
  10               	.Ltext0:
 109               		.section	.text.startup,"ax",@progbits
 111               	.global	main
 113               	main:
 114               		.stabd	46,0,0
   1:main.c        **** #include <avr/io.h>
   2:main.c        **** #include <avr/interrupt.h>
   3:main.c        **** #include <util/delay.h>
   4:main.c        **** #include <avr/pgmspace.h>
   5:main.c        **** #include "util.h"
   6:main.c        **** 
   7:main.c        **** 
   8:main.c        **** register int8_t wave asm("r2");
   9:main.c        **** 
  10:main.c        **** 
  11:main.c        **** int main()
  12:main.c        **** {
 116               	.LM0:
 117               	.LFBB1:
 118               	/* prologue: function */
 119               	/* frame size = 0 */
 120               	/* stack size = 0 */
 121               	.L__stack_usage = 0
  13:main.c        **** 	CLKPR=0x80;
 123               	.LM1:
 124 0000 80E8      		ldi r24,lo8(-128)
 125 0002 8093 6100 		sts 97,r24
  14:main.c        **** 	CLKPR=0x01;
 127               	.LM2:
 128 0006 81E0      		ldi r24,lo8(1)
 129 0008 8093 6100 		sts 97,r24
  15:main.c        **** 
  16:main.c        **** 	//Set outputs to be: Speaker and TX light.
  17:main.c        **** 	DDRD = (_BV(3) | _BV(5) | _BV(6) | _BV(1) );
 131               	.LM3:
 132 000c 9AE6      		ldi r25,lo8(106)
 133 000e 9AB9      		out 0xa,r25
  18:main.c        **** 	DDRB = _BV(3);
 135               	.LM4:
 136 0010 98E0      		ldi r25,lo8(8)
 137 0012 94B9      		out 0x4,r25
  19:main.c        **** 
  20:main.c        **** 	voiceptr = &voiceQuicklySleep;
 139               	.LM5:
 140 0014 20E0      		ldi r18,lo8(gs(voiceQuicklySleep))
 141 0016 30E0      		ldi r19,hi8(gs(voiceQuicklySleep))
 142 0018 3093 0000 		sts voiceptr+1,r19
 143 001c 2093 0000 		sts voiceptr,r18
  21:main.c        **** 
  22:main.c        **** //_BV(COM0A1) |
GAS LISTING /tmp/ccLsnRQw.s 			page 2


  23:main.c        **** //_BV(COM0B1) | 
  24:main.c        **** 	TCCR0A = _BV(COM0B1) | _BV(COM0A1) | _BV(WGM01) | _BV(WGM00); //Phase correct PWM on TCCR0A, Clear
 145               	.LM6:
 146 0020 93EA      		ldi r25,lo8(-93)
 147 0022 94BD      		out 0x24,r25
  25:main.c        **** 	TCCR0B = _BV(CS00);
 149               	.LM7:
 150 0024 85BD      		out 0x25,r24
  26:main.c        **** 	TIMSK0 |= _BV(TOIE0);// | _BV(OCIE0A);
 152               	.LM8:
 153 0026 8091 6E00 		lds r24,110
 154 002a 8160      		ori r24,lo8(1)
 155 002c 8093 6E00 		sts 110,r24
  27:main.c        **** 	OCR0A = OCR0B = 255;
 157               	.LM9:
 158 0030 8FEF      		ldi r24,lo8(-1)
 159 0032 88BD      		out 0x28,r24
 160 0034 87BD      		out 0x27,r24
  28:main.c        **** 	//DDRD &= ~_BV(5);
  29:main.c        **** 	//DDRD |= _BV(6);
  30:main.c        **** 	//DDRD &= ~_BV(6);
  31:main.c        **** 
  32:main.c        **** 
  33:main.c        **** 
  34:main.c        **** 	PORTB |= _BV(0) | _BV(1) | _BV(4) | _BV(5);
 162               	.LM10:
 163 0036 85B1      		in r24,0x5
 164 0038 8363      		ori r24,lo8(51)
 165 003a 85B9      		out 0x5,r24
  35:main.c        **** 	PORTC |= 0x3f;
 167               	.LM11:
 168 003c 88B1      		in r24,0x8
 169 003e 8F63      		ori r24,lo8(63)
 170 0040 88B9      		out 0x8,r24
  36:main.c        **** 	PORTD |= _BV(0) | _BV(2) | _BV(4) | _BV(7);
 172               	.LM12:
 173 0042 8BB1      		in r24,0xb
 174 0044 8569      		ori r24,lo8(-107)
 175 0046 8BB9      		out 0xb,r24
  37:main.c        **** 	PORTE |= _BV(3) | _BV(2) | _BV(1);
 177               	.LM13:
 178 0048 8EB1      		in r24,0xe
 179 004a 8E60      		ori r24,lo8(14)
 180 004c 8EB9      		out 0xe,r24
  38:main.c        **** 
  39:main.c        **** 	sei();
 182               	.LM14:
 183               	/* #APP */
 184               	 ;  39 "main.c" 1
 185 004e 7894      		sei
 186               	 ;  0 "" 2
  40:main.c        **** 
  41:main.c        **** 	mode_button = 0;
 188               	.LM15:
 189               	/* #NOAPP */
 190 0050 1092 0000 		sts mode_button,__zero_reg__
  42:main.c        **** 	mode = 3;
GAS LISTING /tmp/ccLsnRQw.s 			page 3


 192               	.LM16:
 193 0054 83E0      		ldi r24,lo8(3)
 194 0056 8093 0000 		sts mode,r24
 195               	.LBB2:
 196               	.LBB3:
  43:main.c        **** 
  44:main.c        **** 	while(1)
  45:main.c        **** 	{
  46:main.c        **** 		uint8_t ts = 0;
  47:main.c        **** 		uint8_t ts1 = 0;
  48:main.c        **** 
  49:main.c        **** 		uint8_t i;
  50:main.c        **** 		uint16_t checkmask = 1;
  51:main.c        **** 
  52:main.c        **** 		if( MENUBUTTONDOWN )
  53:main.c        **** 		{
  54:main.c        **** 		 mode_button = 1;
  55:main.c        **** 		}
  56:main.c        **** 		else
  57:main.c        **** 		{
  58:main.c        **** 			uint16_t mask = ReadButtonMask();
  59:main.c        **** 
  60:main.c        **** 			for( i = 0; i < 16; i++ )
  61:main.c        **** 			{
  62:main.c        **** 				if( mask & checkmask ) {
  63:main.c        **** 					if( ts ) 
  64:main.c        **** 						ts1 = i+1;
  65:main.c        **** 					else
  66:main.c        **** 						ts = i+1;
  67:main.c        **** 				}
  68:main.c        **** 				checkmask<<=1;
  69:main.c        **** 			}
  70:main.c        **** 
  71:main.c        **** 			#define BASENOTE 0
  72:main.c        **** 
  73:main.c        **** 			if ( mode_button != 0) {
  74:main.c        **** 			  mode_button = 0;
  75:main.c        **** 
  76:main.c        **** 			  voiceptr = voiceQuicklySleep;
  77:main.c        **** 			  speed = 0;
  78:main.c        **** 			  PORTD |= _BV(1);
  79:main.c        **** 			  mode = ts;
  80:main.c        **** 			}
  81:main.c        **** 			else if( ts != 0 || mode == 9)
  82:main.c        **** 			{
  83:main.c        **** 			  switch (mode) {
  84:main.c        **** 			  case 0:
  85:main.c        **** 			  case 1:
  86:main.c        **** 			  case 2:
  87:main.c        **** 			  case 3:
  88:main.c        **** 			  case 4:
  89:main.c        **** 			  case 5:
  90:main.c        **** 			    volume = 100;
  91:main.c        **** 			    volume1 = 100;
  92:main.c        **** 
  93:main.c        **** 			    speed = freq_s[ts-1+BASENOTE+12*mode];
  94:main.c        **** 			    speed_rec = freq_rs[ts-1+BASENOTE+12*mode];
GAS LISTING /tmp/ccLsnRQw.s 			page 4


  95:main.c        **** 			    if( ts1 )
  96:main.c        **** 			    {
  97:main.c        **** 				//2 notes.
  98:main.c        **** 				speed1 = freq_s[ts1-1+BASENOTE+12*mode];
  99:main.c        **** 				speed_rec1 = freq_rs[ts1-1+BASENOTE+12*mode];
 100:main.c        **** 			    }
 101:main.c        **** 			    else
 102:main.c        **** 			    {
 103:main.c        **** 				//1 note
 104:main.c        **** 				speed1 = 0;
 105:main.c        **** 			    }
 106:main.c        **** 			    voiceptr = &voiceDoBasicSynth;
 107:main.c        **** 			    PORTD &=~_BV(1); //LED
 108:main.c        **** 			    break;
 109:main.c        **** 			  case 6:
 110:main.c        **** 			    volume = 10*ts;
 198               	.LM17:
 199 005a 5AE0      		ldi r21,lo8(10)
 200 005c 852E      		mov r8,r21
  90:main.c        **** 			    volume1 = 100;
 202               	.LM18:
 203 005e C4E6      		ldi r28,lo8(100)
  93:main.c        **** 			    speed_rec = freq_rs[ts-1+BASENOTE+12*mode];
 205               	.LM19:
 206 0060 6CE0      		ldi r22,lo8(12)
 207 0062 962E      		mov r9,r22
 106:main.c        **** 			    PORTD &=~_BV(1); //LED
 209               	.LM20:
 210 0064 70E0      		ldi r23,lo8(gs(voiceDoBasicSynth))
 211 0066 472E      		mov r4,r23
 212 0068 70E0      		ldi r23,hi8(gs(voiceDoBasicSynth))
 213 006a 572E      		mov r5,r23
 111:main.c        **** 			    speed = ts;
 112:main.c        **** 			    voiceptr = &voiceNoise;
 113:main.c        **** 			    PORTD &=~_BV(1); //LED
 114:main.c        **** 			    break;
 115:main.c        **** 			  case 7:
 116:main.c        **** 			    voiceptr = &voicePlayWave;
 117:main.c        **** 			    PORTD &=~_BV(1); //LED
 118:main.c        **** 			  case 8:
 119:main.c        **** 			    //Tuned noise
 120:main.c        **** 			    volume = 100;
 121:main.c        **** 			    volume1 = 100;
 122:main.c        **** 
 123:main.c        **** 			    if( ts1 )
 124:main.c        **** 			    {
 125:main.c        **** 			      speed1 = 24-ts1;
 126:main.c        **** 			      speed = 24-ts;
 127:main.c        **** 			    } else if (ts) {
 128:main.c        **** 			      speed = 24-ts;
 129:main.c        **** 			    }
 130:main.c        **** 
 131:main.c        **** 			    voiceptr = &voiceTunedNoise;
 215               	.LM21:
 216 006c E0E0      		ldi r30,lo8(gs(voiceTunedNoise))
 217 006e 6E2E      		mov r6,r30
 218 0070 E0E0      		ldi r30,hi8(gs(voiceTunedNoise))
GAS LISTING /tmp/ccLsnRQw.s 			page 5


 219 0072 7E2E      		mov r7,r30
 128:main.c        **** 			    }
 221               	.LM22:
 222 0074 D8E1      		ldi r29,lo8(24)
 116:main.c        **** 			    PORTD &=~_BV(1); //LED
 224               	.LM23:
 225 0076 00E0      		ldi r16,lo8(gs(voicePlayWave))
 226 0078 10E0      		ldi r17,hi8(gs(voicePlayWave))
 132:main.c        **** 			    PORTD &=~_BV(1);
 133:main.c        **** 			    break;
 134:main.c        **** 			  case 9:
 135:main.c        **** 			    //Drum Synths
 136:main.c        **** 
 137:main.c        **** 			    if( ts1 )
 138:main.c        **** 			    {
 139:main.c        **** 			      speed1 = 24-ts1;
 140:main.c        **** 			      speed = 24-ts;
 141:main.c        **** 			    } else if (ts) {
 142:main.c        **** 			      speed = 24-ts;
 143:main.c        **** 			    }
 144:main.c        **** 
 145:main.c        **** 			    if (ts) {
 146:main.c        **** 			      volume = 100;
 147:main.c        **** 			      volume1 = 100;
 148:main.c        **** 			      
 149:main.c        **** 			      fade_out = 24;
 150:main.c        **** 			      PORTD &=~_BV(1);
 151:main.c        **** 			    } else {
 152:main.c        **** 			      PORTD |= _BV(1);
 153:main.c        **** 			    }
 154:main.c        **** 
 155:main.c        **** 			    voiceptr = &voiceDrums;
 228               	.LM24:
 229 007a F0E0      		ldi r31,lo8(gs(voiceDrums))
 230 007c EF2E      		mov r14,r31
 231 007e F0E0      		ldi r31,hi8(gs(voiceDrums))
 232 0080 FF2E      		mov r15,r31
 149:main.c        **** 			      PORTD &=~_BV(1);
 234               	.LM25:
 235 0082 A8E1      		ldi r26,lo8(24)
 236 0084 CA2E      		mov r12,r26
 237 0086 D12C      		mov r13,__zero_reg__
 156:main.c        **** 			    break;
 157:main.c        **** 			  }
 158:main.c        **** 			}
 159:main.c        **** 			else
 160:main.c        **** 			{
 161:main.c        **** 				//No notes
 162:main.c        **** 				voiceptr = voiceQuicklySleep;
 239               	.LM26:
 240 0088 5901      		movw r10,r18
 241               	.L2:
 242               	.LBE3:
  52:main.c        **** 		{
 244               	.LM27:
 245 008a 1D99      		sbic 0x3,5
 246 008c 00C0      		rjmp .L4
GAS LISTING /tmp/ccLsnRQw.s 			page 6


  54:main.c        **** 		}
 248               	.LM28:
 249 008e 81E0      		ldi r24,lo8(1)
 250 0090 8093 0000 		sts mode_button,r24
 251 0094 00C0      		rjmp .L2
 252               	.L4:
 253               	.LBB4:
  58:main.c        **** 
 255               	.LM29:
 256 0096 0E94 0000 		call ReadButtonMask
 257 009a E1E0      		ldi r30,lo8(1)
 258               	.LBE4:
  50:main.c        **** 
 260               	.LM30:
 261 009c 21E0      		ldi r18,lo8(1)
 262 009e 30E0      		ldi r19,0
  47:main.c        **** 
 264               	.LM31:
 265 00a0 60E0      		ldi r22,0
  46:main.c        **** 		uint8_t ts1 = 0;
 267               	.LM32:
 268 00a2 70E0      		ldi r23,0
 269               	.L6:
 270               	.LBB5:
  62:main.c        **** 					if( ts ) 
 272               	.LM33:
 273 00a4 AC01      		movw r20,r24
 274 00a6 4223      		and r20,r18
 275 00a8 5323      		and r21,r19
 276 00aa 452B      		or r20,r21
 277 00ac 01F0      		breq .L5
  63:main.c        **** 						ts1 = i+1;
 279               	.LM34:
 280 00ae 7723      		tst r23
 281 00b0 01F0      		breq .L23
  64:main.c        **** 					else
 283               	.LM35:
 284 00b2 6E2F      		mov r22,r30
 285               	.L5:
  68:main.c        **** 			}
 287               	.LM36:
 288 00b4 220F      		lsl r18
 289 00b6 331F      		rol r19
 290 00b8 EF5F      		subi r30,lo8(-(1))
  60:main.c        **** 			{
 292               	.LM37:
 293 00ba E131      		cpi r30,lo8(17)
 294 00bc 01F4      		brne .L6
  73:main.c        **** 			  mode_button = 0;
 296               	.LM38:
 297 00be 8091 0000 		lds r24,mode_button
 298 00c2 8823      		tst r24
 299 00c4 01F0      		breq .L7
  74:main.c        **** 
 301               	.LM39:
 302 00c6 1092 0000 		sts mode_button,__zero_reg__
  76:main.c        **** 			  speed = 0;
GAS LISTING /tmp/ccLsnRQw.s 			page 7


 304               	.LM40:
 305 00ca B092 0000 		sts voiceptr+1,r11
 306 00ce A092 0000 		sts voiceptr,r10
  77:main.c        **** 			  PORTD |= _BV(1);
 308               	.LM41:
 309 00d2 1092 0000 		sts speed,__zero_reg__
  78:main.c        **** 			  mode = ts;
 311               	.LM42:
 312 00d6 599A      		sbi 0xb,1
  79:main.c        **** 			}
 314               	.LM43:
 315 00d8 7093 0000 		sts mode,r23
 316 00dc 00C0      		rjmp .L2
 317               	.L23:
  66:main.c        **** 				}
 319               	.LM44:
 320 00de 7E2F      		mov r23,r30
 321 00e0 00C0      		rjmp .L5
 322               	.L7:
  81:main.c        **** 			{
 324               	.LM45:
 325 00e2 7111      		cpse r23,__zero_reg__
 326 00e4 00C0      		rjmp .L8
  81:main.c        **** 			{
 328               	.LM46:
 329 00e6 8091 0000 		lds r24,mode
 330 00ea 8930      		cpi r24,lo8(9)
 331 00ec 01F0      		breq .+2
 332 00ee 00C0      		rjmp .L9
 333               	.L8:
  83:main.c        **** 			  case 0:
 335               	.LM47:
 336 00f0 8091 0000 		lds r24,mode
 337 00f4 8630      		cpi r24,lo8(6)
 338 00f6 01F4      		brne .+2
 339 00f8 00C0      		rjmp .L10
 340 00fa 00F0      		brlo .L11
 341 00fc 8830      		cpi r24,lo8(8)
 342 00fe 01F4      		brne .+2
 343 0100 00C0      		rjmp .L12
 344 0102 00F4      		brsh .+2
 345 0104 00C0      		rjmp .L13
 346 0106 8930      		cpi r24,lo8(9)
 347 0108 01F0      		breq .+2
 348 010a 00C0      		rjmp .L2
 137:main.c        **** 			    {
 350               	.LM48:
 351 010c 6623      		tst r22
 352 010e 01F4      		brne .+2
 353 0110 00C0      		rjmp .L19
 139:main.c        **** 			      speed = 24-ts;
 355               	.LM49:
 356 0112 8D2F      		mov r24,r29
 357 0114 861B      		sub r24,r22
 358 0116 8093 0000 		sts speed1,r24
 140:main.c        **** 			    } else if (ts) {
 360               	.LM50:
GAS LISTING /tmp/ccLsnRQw.s 			page 8


 361 011a 8D2F      		mov r24,r29
 362 011c 871B      		sub r24,r23
 363 011e 8093 0000 		sts speed,r24
 145:main.c        **** 			      volume = 100;
 365               	.LM51:
 366 0122 7111      		cpse r23,__zero_reg__
 367 0124 00C0      		rjmp .L20
 368               	.L21:
 152:main.c        **** 			    }
 370               	.LM52:
 371 0126 599A      		sbi 0xb,1
 372 0128 00C0      		rjmp .L22
 373               	.L11:
  90:main.c        **** 			    volume1 = 100;
 375               	.LM53:
 376 012a C093 0000 		sts volume,r28
  91:main.c        **** 
 378               	.LM54:
 379 012e C093 0000 		sts volume1,r28
  93:main.c        **** 			    speed_rec = freq_rs[ts-1+BASENOTE+12*mode];
 381               	.LM55:
 382 0132 872F      		mov r24,r23
 383 0134 90E0      		ldi r25,0
 384 0136 0197      		sbiw r24,1
 385 0138 2091 0000 		lds r18,mode
 386 013c FC01      		movw r30,r24
 387 013e E050      		subi r30,lo8(-(freq_s))
 388 0140 F040      		sbci r31,hi8(-(freq_s))
 389 0142 299D      		mul r18,r9
 390 0144 E00D      		add r30,r0
 391 0146 F11D      		adc r31,r1
 392 0148 1124      		clr __zero_reg__
 393 014a 2081      		ld r18,Z
 394 014c 2093 0000 		sts speed,r18
  94:main.c        **** 			    if( ts1 )
 396               	.LM56:
 397 0150 2091 0000 		lds r18,mode
 398 0154 8050      		subi r24,lo8(-(freq_rs))
 399 0156 9040      		sbci r25,hi8(-(freq_rs))
 400 0158 FC01      		movw r30,r24
 401 015a 299D      		mul r18,r9
 402 015c E00D      		add r30,r0
 403 015e F11D      		adc r31,r1
 404 0160 1124      		clr __zero_reg__
 405 0162 8081      		ld r24,Z
 406 0164 8093 0000 		sts speed_rec,r24
  95:main.c        **** 			    {
 408               	.LM57:
 409 0168 6623      		tst r22
 410 016a 01F0      		breq .L15
  98:main.c        **** 				speed_rec1 = freq_rs[ts1-1+BASENOTE+12*mode];
 412               	.LM58:
 413 016c 70E0      		ldi r23,0
 414 016e 6150      		subi r22,1
 415 0170 7109      		sbc r23,__zero_reg__
 416 0172 8091 0000 		lds r24,mode
 417 0176 FB01      		movw r30,r22
GAS LISTING /tmp/ccLsnRQw.s 			page 9


 418 0178 E050      		subi r30,lo8(-(freq_s))
 419 017a F040      		sbci r31,hi8(-(freq_s))
 420 017c 899D      		mul r24,r9
 421 017e E00D      		add r30,r0
 422 0180 F11D      		adc r31,r1
 423 0182 1124      		clr __zero_reg__
 424 0184 8081      		ld r24,Z
 425 0186 8093 0000 		sts speed1,r24
  99:main.c        **** 			    }
 427               	.LM59:
 428 018a 8091 0000 		lds r24,mode
 429 018e 6050      		subi r22,lo8(-(freq_rs))
 430 0190 7040      		sbci r23,hi8(-(freq_rs))
 431 0192 FB01      		movw r30,r22
 432 0194 899D      		mul r24,r9
 433 0196 E00D      		add r30,r0
 434 0198 F11D      		adc r31,r1
 435 019a 1124      		clr __zero_reg__
 436 019c 8081      		ld r24,Z
 437 019e 8093 0000 		sts speed_rec1,r24
 438               	.L16:
 106:main.c        **** 			    PORTD &=~_BV(1); //LED
 440               	.LM60:
 441 01a2 5092 0000 		sts voiceptr+1,r5
 442 01a6 4092 0000 		sts voiceptr,r4
 443               	.L37:
 132:main.c        **** 			    break;
 445               	.LM61:
 446 01aa 5998      		cbi 0xb,1
 133:main.c        **** 			  case 9:
 448               	.LM62:
 449 01ac 00C0      		rjmp .L2
 450               	.L15:
 104:main.c        **** 			    }
 452               	.LM63:
 453 01ae 1092 0000 		sts speed1,__zero_reg__
 454 01b2 00C0      		rjmp .L16
 455               	.L10:
 110:main.c        **** 			    speed = ts;
 457               	.LM64:
 458 01b4 789D      		mul r23,r8
 459 01b6 802D      		mov r24,r0
 460 01b8 1124      		clr r1
 461 01ba 8093 0000 		sts volume,r24
 111:main.c        **** 			    voiceptr = &voiceNoise;
 463               	.LM65:
 464 01be 7093 0000 		sts speed,r23
 112:main.c        **** 			    PORTD &=~_BV(1); //LED
 466               	.LM66:
 467 01c2 80E0      		ldi r24,lo8(gs(voiceNoise))
 468 01c4 90E0      		ldi r25,hi8(gs(voiceNoise))
 469 01c6 9093 0000 		sts voiceptr+1,r25
 470 01ca 8093 0000 		sts voiceptr,r24
 471 01ce 00C0      		rjmp .L37
 472               	.L13:
 116:main.c        **** 			    PORTD &=~_BV(1); //LED
 474               	.LM67:
GAS LISTING /tmp/ccLsnRQw.s 			page 10


 475 01d0 1093 0000 		sts voiceptr+1,r17
 476 01d4 0093 0000 		sts voiceptr,r16
 117:main.c        **** 			  case 8:
 478               	.LM68:
 479 01d8 5998      		cbi 0xb,1
 480               	.L12:
 120:main.c        **** 			    volume1 = 100;
 482               	.LM69:
 483 01da C093 0000 		sts volume,r28
 121:main.c        **** 
 485               	.LM70:
 486 01de C093 0000 		sts volume1,r28
 123:main.c        **** 			    {
 488               	.LM71:
 489 01e2 6623      		tst r22
 490 01e4 01F0      		breq .L17
 125:main.c        **** 			      speed = 24-ts;
 492               	.LM72:
 493 01e6 8D2F      		mov r24,r29
 494 01e8 861B      		sub r24,r22
 495 01ea 8093 0000 		sts speed1,r24
 496               	.L38:
 128:main.c        **** 			    }
 498               	.LM73:
 499 01ee 8D2F      		mov r24,r29
 500 01f0 871B      		sub r24,r23
 501 01f2 8093 0000 		sts speed,r24
 502 01f6 00C0      		rjmp .L18
 503               	.L17:
 127:main.c        **** 			      speed = 24-ts;
 505               	.LM74:
 506 01f8 7111      		cpse r23,__zero_reg__
 507 01fa 00C0      		rjmp .L38
 508               	.L18:
 131:main.c        **** 			    PORTD &=~_BV(1);
 510               	.LM75:
 511 01fc 7092 0000 		sts voiceptr+1,r7
 512 0200 6092 0000 		sts voiceptr,r6
 513 0204 00C0      		rjmp .L37
 514               	.L19:
 141:main.c        **** 			      speed = 24-ts;
 516               	.LM76:
 517 0206 7723      		tst r23
 518 0208 01F4      		brne .+2
 519 020a 00C0      		rjmp .L21
 142:main.c        **** 			    }
 521               	.LM77:
 522 020c 8D2F      		mov r24,r29
 523 020e 871B      		sub r24,r23
 524 0210 8093 0000 		sts speed,r24
 525               	.L20:
 146:main.c        **** 			      volume1 = 100;
 527               	.LM78:
 528 0214 C093 0000 		sts volume,r28
 147:main.c        **** 			      
 530               	.LM79:
 531 0218 C093 0000 		sts volume1,r28
GAS LISTING /tmp/ccLsnRQw.s 			page 11


 149:main.c        **** 			      PORTD &=~_BV(1);
 533               	.LM80:
 534 021c D092 0000 		sts fade_out+1,r13
 535 0220 C092 0000 		sts fade_out,r12
 150:main.c        **** 			    } else {
 537               	.LM81:
 538 0224 5998      		cbi 0xb,1
 539               	.L22:
 155:main.c        **** 			    break;
 541               	.LM82:
 542 0226 F092 0000 		sts voiceptr+1,r15
 543 022a E092 0000 		sts voiceptr,r14
 156:main.c        **** 			  }
 545               	.LM83:
 546 022e 00C0      		rjmp .L2
 547               	.L9:
 549               	.LM84:
 550 0230 B092 0000 		sts voiceptr+1,r11
 551 0234 A092 0000 		sts voiceptr,r10
 163:main.c        **** 				speed = 0;
 553               	.LM85:
 554 0238 1092 0000 		sts speed,__zero_reg__
 164:main.c        **** 				PORTD |= _BV(1); //LED
 556               	.LM86:
 557 023c 599A      		sbi 0xb,1
 558 023e 00C0      		rjmp .L2
 559               	.LBE5:
 560               	.LBE2:
 576               	.Lscope1:
 578               		.stabd	78,0,0
 579               		.comm	fade_out_mode,1,1
 581               		.comm	fade_out,2,1
 583               		.comm	mode,1,1
 585               		.comm	mode_button,1,1
 587               		.comm	speed_rec1,1,1
 589               		.comm	speed1,1,1
 591               		.text
 593               	.Letext0:
 594               		.ident	"GCC: (Fedora 6.3.0-1.fc26) 6.3.0"
 595               	.global __do_clear_bss
GAS LISTING /tmp/ccLsnRQw.s 			page 12


DEFINED SYMBOLS
                            *ABS*:0000000000000000 main.c
     /tmp/ccLsnRQw.s:2      *ABS*:000000000000003e __SP_H__
     /tmp/ccLsnRQw.s:3      *ABS*:000000000000003d __SP_L__
     /tmp/ccLsnRQw.s:4      *ABS*:000000000000003f __SREG__
     /tmp/ccLsnRQw.s:5      *ABS*:0000000000000000 __tmp_reg__
     /tmp/ccLsnRQw.s:6      *ABS*:0000000000000001 __zero_reg__
     /tmp/ccLsnRQw.s:113    .text.startup:0000000000000000 main
                            *COM*:0000000000000001 mode_button
                            *COM*:0000000000000001 mode
                            *COM*:0000000000000001 speed1
                            *COM*:0000000000000001 speed_rec1
                            *COM*:0000000000000002 fade_out
                            *COM*:0000000000000001 fade_out_mode

UNDEFINED SYMBOLS
voiceQuicklySleep
voiceptr
voiceDoBasicSynth
voiceTunedNoise
voicePlayWave
voiceDrums
ReadButtonMask
speed
volume
volume1
freq_s
freq_rs
speed_rec
voiceNoise
__do_clear_bss
GAS LISTING /tmp/ccLsnRQw.s 			page 1


   1               		.file	"util.c"
   2               	__SP_H__ = 0x3e
   3               	__SP_L__ = 0x3d
   4               	__SREG__ = 0x3f
   5               	__tmp_reg__ = 0
   6               	__zero_reg__ = 1
   9               		.text
  10               	.Ltext0:
 112               	.global	voiceQuicklySleep
 114               	voiceQuicklySleep:
 115               		.stabd	46,0,0
   1:util.c        **** #include "util.h"
   2:util.c        **** #include <avr/io.h>
   3:util.c        **** #include <avr/interrupt.h>
   4:util.c        **** #include <util/delay.h>
   5:util.c        **** #include <avr/pgmspace.h>
   6:util.c        **** 
   7:util.c        **** #include "calced_speeds.c"
   8:util.c        **** 
   9:util.c        **** int8_t wave;
  10:util.c        **** 
  11:util.c        **** uint8_t (* volatile voiceptr)();
  12:util.c        **** volatile uint8_t speed;
  13:util.c        **** volatile uint8_t speed_rec;
  14:util.c        **** volatile uint8_t speed1;
  15:util.c        **** volatile uint8_t speed_rec1;
  16:util.c        **** volatile uint8_t volume;
  17:util.c        **** volatile uint8_t volume1;
  18:util.c        **** volatile uint16_t frametimer;
  19:util.c        **** volatile uint8_t mode;
  20:util.c        **** volatile uint8_t mode_button;
  21:util.c        **** volatile uint16_t fade_in;
  22:util.c        **** volatile uint16_t fade_out;
  23:util.c        **** volatile uint8_t fade_in_mode;
  24:util.c        **** volatile uint8_t fade_out_mode;
  25:util.c        **** 
  26:util.c        **** uint16_t GetFrametimer() //Make sure it gets frametimer as an atomic operation.
  27:util.c        **** {
  28:util.c        **** 	uint16_t ret;
  29:util.c        **** 	cli();
  30:util.c        **** 	ret = frametimer;
  31:util.c        **** 	sei();
  32:util.c        **** 	return ret;
  33:util.c        **** }
  34:util.c        **** 
  35:util.c        **** uint16_t lfsr = 0xACE1u;  /* Any nonzero start state will work. (from wikipedia) */
  36:util.c        **** 
  37:util.c        **** uint8_t GetRandom()
  38:util.c        **** {
  39:util.c        **** 	/* taps: 16 14 13 11; feedback polynomial: x^16 + x^14 + x^13 + x^11 + 1 */
  40:util.c        **** 	uint8_t   bit  = ((lfsr >> 0) ^ (lfsr >> 2) ^ (lfsr >> 3) ^ (lfsr >> 5) ) & 1;
  41:util.c        **** 	lfsr = (lfsr >> 1) | (bit << 15);
  42:util.c        **** 	return lfsr;
  43:util.c        **** }
  44:util.c        **** 
  45:util.c        **** 
  46:util.c        **** 
GAS LISTING /tmp/ccLsnRQw.s 			page 2


  47:util.c        **** 
  48:util.c        **** ISR( TIMER0_COMPA_vect, ISR_NAKED  )
  49:util.c        **** {
  50:util.c        **** /*	if( wave < 0 )
  51:util.c        **** 	{
  52:util.c        **** 		//Switch the inverting rail.  WARNING: Do we need to put the second rail into high impedance mode
  53:util.c        **** 	}
  54:util.c        **** 	else
  55:util.c        **** 	{
  56:util.c        **** 		//Switch the inverting rail.  WARNING: Do we need to put the second rail into high impedance mode
  57:util.c        **** */
  58:util.c        **** //	}
  59:util.c        **** 	asm( "reti" );
  60:util.c        **** }
  61:util.c        **** 
  62:util.c        **** 
  63:util.c        **** //		mov r25, r2\n\
  64:util.c        **** 		lsl r2\n\
  65:util.c        **** 		out 0x27,r2 /*OCR0A*/ \n\
  66:util.c        **** 		out 0x28,r2 /*OCR0B*/ \n\
  67:util.c        **** 		brcs cont__\n\
  68:util.c        **** 		cbi 0xa,3 /*DDRD |= _BV(3) */\n\
  69:util.c        **** 		cbi 0x4,3 /*DDRB |= _BV(3) */\n\
  70:util.c        **** cont__:\n\
  71:util.c        **** 		push r0\n\
  72:util.c        **** 
  73:util.c        **** //#define NAKED_T0OVF
  74:util.c        **** 
  75:util.c        **** ISR( TIMER0_OVF_vect, ISR_NAKED )
  76:util.c        **** {
  77:util.c        **** 	asm( "\n\
  78:util.c        **** 		sbis 0x1E, 1	/* If we aren't supposed to do any operations, don't skip the jump to normal operati
  79:util.c        **** 		rjmp intcont\n\
  80:util.c        **** 		sbic 0x1E, 0	/* If _BV(0) is set, continue to the below code. */ \n\
  81:util.c        **** 		rjmp make_zero\n\
  82:util.c        **** 		sbi 0xb,3 /*PORT |= _BV(3) */\n\
  83:util.c        **** 		sbi 0x5,3 /*PORTB |= _BV(3) */\n\
  84:util.c        **** 		rjmp intcont\n\
  85:util.c        **** make_zero:\n\
  86:util.c        **** 		cbi 0xb,3 /*PORTD &=~_BV(3) */\n\
  87:util.c        **** 		cbi 0x5,3 /*PORTB &=~_BV(3) */\n\
  88:util.c        **** intcont:\n\
  89:util.c        **** 		push r0\n\
  90:util.c        **** 		push r1\n\
  91:util.c        **** 		in r0,63 /*Store SREG*/\n\
  92:util.c        **** 		push r0\n\
  93:util.c        **** 		clr r1\n\
  94:util.c        **** 		push r16\n\
  95:util.c        **** 		push r17\n\
  96:util.c        **** 		push r18\n\
  97:util.c        **** 		push r19\n\
  98:util.c        **** 		push r20\n\
  99:util.c        **** 		push r21\n\
 100:util.c        **** 		push r22\n\
 101:util.c        **** 		push r23\n\
 102:util.c        **** 		push r24\n\
 103:util.c        **** 		push r25\n\
GAS LISTING /tmp/ccLsnRQw.s 			page 3


 104:util.c        **** 		push r30\n\
 105:util.c        **** 		push r31\n\
 106:util.c        **** 	");
 107:util.c        **** 
 108:util.c        **** 
 109:util.c        **** 	frametimer++;
 110:util.c        **** 	/*Ok... We can do whatever we want in here, as long as it's fast and before the end we update
 111:util.c        **** 		OCR0A and OCR0B.  That will cause the actual registers to update AFTER the next cycle. */
 112:util.c        **** 
 113:util.c        **** 	//Handle TIM0 OVR.  This happens at 31kHz.
 114:util.c        **** 	if( !voiceptr() )
 115:util.c        **** 	{
 116:util.c        **** 			//This disables the output drive.
 117:util.c        **** 			DDRB &=~_BV(3);
 118:util.c        **** 			DDRD &=~_BV(3);
 119:util.c        **** 			PORTB |= _BV(3);
 120:util.c        **** 			PORTD |= _BV(3);
 121:util.c        **** 			OCR0A = OCR0B = 255;
 122:util.c        **** 			goto end_int;
 123:util.c        **** 	}
 124:util.c        **** 	else
 125:util.c        **** 	{
 126:util.c        **** 		DDRD |= _BV(3);
 127:util.c        **** 		DDRB |= _BV(3);
 128:util.c        **** 	}
 129:util.c        **** 
 130:util.c        **** 	//Tricky: Detect if we're switching states, if so, need to trigger early-interrupt-handler transit
 131:util.c        **** 	//This data is stored in GPIOR0 so we can operate at the beginning of the next interrupt without i
 132:util.c        **** 	if( wave < 0 )
 133:util.c        **** 	{
 134:util.c        **** 		if( GPIOR0 & _BV(0) )
 135:util.c        **** 			GPIOR0 |= _BV(1); //If transition, trigger.
 136:util.c        **** 		else
 137:util.c        **** 			GPIOR0 &=~_BV(1);
 138:util.c        **** 		GPIOR0 &= ~_BV(0);
 139:util.c        **** 	}
 140:util.c        **** 	else
 141:util.c        **** 	{
 142:util.c        **** 		if( !(GPIOR0 & _BV(0)) )
 143:util.c        **** 			GPIOR0 |= _BV(1); //If transition, trigger.
 144:util.c        **** 		else
 145:util.c        **** 			GPIOR0 &=~_BV(1);
 146:util.c        **** 		GPIOR0 |= _BV(0);
 147:util.c        **** 	}
 148:util.c        **** 
 149:util.c        **** 	OCR0A = OCR0B = ((uint8_t)wave)<<1;
 150:util.c        **** end_int:
 151:util.c        **** 	asm( "\
 152:util.c        **** 		pop r31\n\
 153:util.c        **** 		pop r30\n\
 154:util.c        **** 		pop r25\n\
 155:util.c        **** 		pop r24\n\
 156:util.c        **** 		pop r23\n\
 157:util.c        **** 		pop r22\n\
 158:util.c        **** 		pop r21\n\
 159:util.c        **** 		pop r20\n\
 160:util.c        **** 		pop r19\n\
GAS LISTING /tmp/ccLsnRQw.s 			page 4


 161:util.c        **** 		pop r18\n\
 162:util.c        **** 		pop r17\n\
 163:util.c        **** 		pop r16\n\
 164:util.c        **** 		pop r0\n\
 165:util.c        **** 		out 63, r0 /*Restore SREG*/\n\
 166:util.c        **** 		pop r1\n\
 167:util.c        **** 		pop r0\n\
 168:util.c        **** 		reti\n");
 169:util.c        **** }
 170:util.c        **** 
 171:util.c        **** 
 172:util.c        **** #define HAS_SAMPLES
 173:util.c        **** #ifdef HAS_SAMPLES
 174:util.c        **** #include "samples.c"
 175:util.c        **** const extern int8_t PROGMEM auddat[NUM_SAMPLES];
 176:util.c        **** uint16_t sampleCount = 0;
 177:util.c        **** uint8_t voicePlayWave()
 178:util.c        **** {
 179:util.c        **** 	wave = pgm_read_byte( &auddat[sampleCount] );
 180:util.c        **** 	if( sampleCount == NUM_SAMPLES )
 181:util.c        **** 	{
 182:util.c        **** 		voiceptr = voiceQuicklySleep;
 183:util.c        **** 		sampleCount = 0;
 184:util.c        **** 	}
 185:util.c        **** 	sampleCount++;
 186:util.c        **** 	return 1;
 187:util.c        **** }
 188:util.c        **** #else
 189:util.c        **** uint8_t voicePlayWave()
 190:util.c        **** {
 191:util.c        **** 	voiceptr = voiceQuicklySleep;
 192:util.c        **** }
 193:util.c        **** 
 194:util.c        **** #endif
 195:util.c        **** 
 196:util.c        **** uint8_t voiceDoBasicSynth()
 197:util.c        **** {
 198:util.c        **** 	int16_t twave;
 199:util.c        **** 	static uint8_t up;
 200:util.c        **** 	static uint8_t up1;
 201:util.c        **** 	static int8_t wave0;
 202:util.c        **** 	static int8_t wave1;
 203:util.c        **** 
 204:util.c        **** 
 205:util.c        **** 	if( !speed )
 206:util.c        **** 	{
 207:util.c        **** 		voiceptr = voiceQuicklySleep;
 208:util.c        **** 		wave0 = wave1 = 0;
 209:util.c        **** 		return 0;
 210:util.c        **** 	}
 211:util.c        **** 
 212:util.c        **** 	twave = wave0;
 213:util.c        **** 	if( up )
 214:util.c        **** 	{
 215:util.c        **** 		twave+=speed;
 216:util.c        **** 		if( twave > speed_rec ) { up = 0; twave = speed_rec - (twave-speed_rec); } //I hope this is right
 217:util.c        **** 	}
GAS LISTING /tmp/ccLsnRQw.s 			page 5


 218:util.c        **** 	else
 219:util.c        **** 	{
 220:util.c        **** 		twave-=speed;
 221:util.c        **** 		if( twave < -speed_rec ) { up = 1; twave = -speed_rec - (twave+speed_rec); } //I hope this is rig
 222:util.c        **** 	}
 223:util.c        **** 	wave0 = twave;
 224:util.c        **** 
 225:util.c        **** 	if( speed1 )
 226:util.c        **** 	{
 227:util.c        **** 		twave = wave1;
 228:util.c        **** 		if( up1 )
 229:util.c        **** 		{
 230:util.c        **** 			twave+=speed1;
 231:util.c        **** 			if( twave > speed_rec1 ) { up1 = 0; twave = speed_rec1 - (twave-speed_rec1); } //I hope this is 
 232:util.c        **** 		}
 233:util.c        **** 		else
 234:util.c        **** 		{
 235:util.c        **** 			twave-=speed1;
 236:util.c        **** 			if( twave < -speed_rec1 ) { up1 = 1; twave = -speed_rec1 - (twave+speed_rec1); } //I hope this i
 237:util.c        **** 		}
 238:util.c        **** 		wave1 = twave;
 239:util.c        **** 		wave = ((wave1*volume)>>8)+((wave0*volume)>>8);
 240:util.c        **** 		return 1;
 241:util.c        **** 	}
 242:util.c        **** 	else
 243:util.c        **** 	{
 244:util.c        **** 		wave = (wave0*volume)>>8;
 245:util.c        **** 		wave1 = 0;
 246:util.c        **** 		return 1;
 247:util.c        **** 	}
 248:util.c        **** }
 249:util.c        **** 
 250:util.c        **** uint8_t voiceTunedNoise()
 251:util.c        **** {
 252:util.c        ****   static uint8_t mark_s, mark_s1;
 253:util.c        **** 
 254:util.c        ****   mark_s++;
 255:util.c        ****   
 256:util.c        ****   if (mark_s == speed) {
 257:util.c        ****     wave = (((int8_t)GetRandom()) * volume) >> 8;
 258:util.c        ****     mark_s = 0;
 259:util.c        ****   }
 260:util.c        **** 
 261:util.c        ****   return 1;
 262:util.c        **** }
 263:util.c        **** 
 264:util.c        **** uint8_t voiceDrums()
 265:util.c        **** {
 266:util.c        ****   static uint8_t drum_s;
 267:util.c        ****   static uint16_t ticks;
 268:util.c        **** 
 269:util.c        ****   drum_s++;
 270:util.c        **** 
 271:util.c        ****   if (drum_s == speed) {
 272:util.c        ****     wave = (((int8_t)GetRandom()) * volume) >> 8;
 273:util.c        ****     drum_s = 0;
 274:util.c        ****     ticks++;
GAS LISTING /tmp/ccLsnRQw.s 			page 6


 275:util.c        **** 
 276:util.c        ****     if (ticks > fade_out) {
 277:util.c        ****       volume--;
 278:util.c        ****     }
 279:util.c        ****   }
 280:util.c        **** 
 281:util.c        ****   if (volume == 0) {
 282:util.c        ****     ticks = 0;
 283:util.c        ****     drum_s = 0;
 284:util.c        ****     return 0;
 285:util.c        ****   }
 286:util.c        **** 
 287:util.c        ****   return 1;
 288:util.c        **** }
 289:util.c        **** 
 290:util.c        **** uint8_t voiceQuicklySleep()
 291:util.c        **** {
 117               	.LM0:
 118               	.LFBB1:
 119               	/* prologue: function */
 120               	/* frame size = 0 */
 121               	/* stack size = 0 */
 122               	.L__stack_usage = 0
 292:util.c        **** 	return 0;
 293:util.c        **** }
 124               	.LM1:
 125 0000 80E0      		ldi r24,0
 126 0002 0895      		ret
 128               	.Lscope1:
 130               		.stabd	78,0,0
 132               	.global	GetFrametimer
 134               	GetFrametimer:
 135               		.stabd	46,0,0
  27:util.c        **** 	uint16_t ret;
 137               	.LM2:
 138               	.LFBB2:
 139               	/* prologue: function */
 140               	/* frame size = 0 */
 141               	/* stack size = 0 */
 142               	.L__stack_usage = 0
  29:util.c        **** 	ret = frametimer;
 144               	.LM3:
 145               	/* #APP */
 146               	 ;  29 "util.c" 1
 147 0004 F894      		cli
 148               	 ;  0 "" 2
  30:util.c        **** 	sei();
 150               	.LM4:
 151               	/* #NOAPP */
 152 0006 8091 0000 		lds r24,frametimer
 153 000a 9091 0000 		lds r25,frametimer+1
  31:util.c        **** 	return ret;
 155               	.LM5:
 156               	/* #APP */
 157               	 ;  31 "util.c" 1
 158 000e 7894      		sei
 159               	 ;  0 "" 2
GAS LISTING /tmp/ccLsnRQw.s 			page 7


  33:util.c        **** 
 161               	.LM6:
 162               	/* #NOAPP */
 163 0010 0895      		ret
 168               	.Lscope2:
 170               		.stabd	78,0,0
 172               	.global	GetRandom
 174               	GetRandom:
 175               		.stabd	46,0,0
  38:util.c        **** 	/* taps: 16 14 13 11; feedback polynomial: x^16 + x^14 + x^13 + x^11 + 1 */
 177               	.LM7:
 178               	.LFBB3:
 179               	/* prologue: function */
 180               	/* frame size = 0 */
 181               	/* stack size = 0 */
 182               	.L__stack_usage = 0
  40:util.c        **** 	lfsr = (lfsr >> 1) | (bit << 15);
 184               	.LM8:
 185 0012 4091 0000 		lds r20,lfsr
 186 0016 5091 0000 		lds r21,lfsr+1
 187 001a 9A01      		movw r18,r20
 188 001c 3695      		lsr r19
 189 001e 2795      		ror r18
 190 0020 3695      		lsr r19
 191 0022 2795      		ror r18
 192 0024 BA01      		movw r22,r20
 193 0026 93E0      		ldi r25,3
 194               		1:
 195 0028 7695      		lsr r23
 196 002a 6795      		ror r22
 197 002c 9A95      		dec r25
 198 002e 01F4      		brne 1b
 199 0030 2627      		eor r18,r22
 200 0032 2427      		eor r18,r20
 201 0034 BA01      		movw r22,r20
 202 0036 35E0      		ldi r19,5
 203               		1:
 204 0038 7695      		lsr r23
 205 003a 6795      		ror r22
 206 003c 3A95      		dec r19
 207 003e 01F4      		brne 1b
 208 0040 2627      		eor r18,r22
  41:util.c        **** 	return lfsr;
 210               	.LM9:
 211 0042 2170      		andi r18,1
 212 0044 922F      		mov r25,r18
 213 0046 9795      		ror r25
 214 0048 9927      		clr r25
 215 004a 9795      		ror r25
 216 004c 80E0      		ldi r24,0
 217 004e 5695      		lsr r21
 218 0050 4795      		ror r20
 219 0052 842B      		or r24,r20
 220 0054 952B      		or r25,r21
 221 0056 9093 0000 		sts lfsr+1,r25
 222 005a 8093 0000 		sts lfsr,r24
  43:util.c        **** 
GAS LISTING /tmp/ccLsnRQw.s 			page 8


 224               	.LM10:
 225 005e 0895      		ret
 227               	.Lscope3:
 229               		.stabd	78,0,0
 231               	.global	__vector_14
 233               	__vector_14:
 234               		.stabd	46,0,0
  49:util.c        **** /*	if( wave < 0 )
 236               	.LM11:
 237               	.LFBB4:
 238               	/* prologue: naked */
 239               	/* frame size = 0 */
 240               	/* stack size = 0 */
 241               	.L__stack_usage = 0
  59:util.c        **** }
 243               	.LM12:
 244               	/* #APP */
 245               	 ;  59 "util.c" 1
 246 0060 1895      		reti
 247               	 ;  0 "" 2
 248               	/* epilogue start */
  60:util.c        **** 
 250               	.LM13:
 251               	/* #NOAPP */
 253               	.Lscope4:
 255               		.stabd	78,0,0
 257               	.global	__vector_16
 259               	__vector_16:
 260               		.stabd	46,0,0
  76:util.c        **** 	asm( "\n\
 262               	.LM14:
 263               	.LFBB5:
 264               	/* prologue: naked */
 265               	/* frame size = 0 */
 266               	/* stack size = 0 */
 267               	.L__stack_usage = 0
  77:util.c        **** 		sbis 0x1E, 1	/* If we aren't supposed to do any operations, don't skip the jump to normal operati
 269               	.LM15:
 270               	/* #APP */
 271               	 ;  77 "util.c" 1
 272               		
 273 0062 F19B      			sbis 0x1E, 1	/* If we aren't supposed to do any operations, don't skip the jump to normal operati
 274 0064 00C0      			rjmp intcont
 275 0066 F099      			sbic 0x1E, 0	/* If _BV(0) is set, continue to the below code. */ 
 276 0068 00C0      			rjmp make_zero
 277 006a 5B9A      			sbi 0xb,3 /*PORT |= _BV(3) */
 278 006c 2B9A      			sbi 0x5,3 /*PORTB |= _BV(3) */
 279 006e 00C0      			rjmp intcont
 280               	make_zero:
 281 0070 5B98      			cbi 0xb,3 /*PORTD &=~_BV(3) */
 282 0072 2B98      			cbi 0x5,3 /*PORTB &=~_BV(3) */
 283               	intcont:
 284 0074 0F92      			push r0
 285 0076 1F92      			push r1
 286 0078 0FB6      			in r0,63 /*Store SREG*/
 287 007a 0F92      			push r0
 288 007c 1124      			clr r1
GAS LISTING /tmp/ccLsnRQw.s 			page 9


 289 007e 0F93      			push r16
 290 0080 1F93      			push r17
 291 0082 2F93      			push r18
 292 0084 3F93      			push r19
 293 0086 4F93      			push r20
 294 0088 5F93      			push r21
 295 008a 6F93      			push r22
 296 008c 7F93      			push r23
 297 008e 8F93      			push r24
 298 0090 9F93      			push r25
 299 0092 EF93      			push r30
 300 0094 FF93      			push r31
 301               		
 302               	 ;  0 "" 2
 109:util.c        **** 	/*Ok... We can do whatever we want in here, as long as it's fast and before the end we update
 304               	.LM16:
 305               	/* #NOAPP */
 306 0096 8091 0000 		lds r24,frametimer
 307 009a 9091 0000 		lds r25,frametimer+1
 308 009e 0196      		adiw r24,1
 309 00a0 9093 0000 		sts frametimer+1,r25
 310 00a4 8093 0000 		sts frametimer,r24
 114:util.c        **** 	{
 312               	.LM17:
 313 00a8 E091 0000 		lds r30,voiceptr
 314 00ac F091 0000 		lds r31,voiceptr+1
 315 00b0 0995      		icall
 316 00b2 8111      		cpse r24,__zero_reg__
 317 00b4 00C0      		rjmp .L6
 117:util.c        **** 			DDRD &=~_BV(3);
 319               	.LM18:
 320 00b6 2398      		cbi 0x4,3
 118:util.c        **** 			PORTB |= _BV(3);
 322               	.LM19:
 323 00b8 5398      		cbi 0xa,3
 119:util.c        **** 			PORTD |= _BV(3);
 325               	.LM20:
 326 00ba 2B9A      		sbi 0x5,3
 120:util.c        **** 			OCR0A = OCR0B = 255;
 328               	.LM21:
 329 00bc 5B9A      		sbi 0xb,3
 121:util.c        **** 			goto end_int;
 331               	.LM22:
 332 00be 8FEF      		ldi r24,lo8(-1)
 333 00c0 88BD      		out 0x28,r24
 334 00c2 87BD      		out 0x27,r24
 122:util.c        **** 	}
 336               	.LM23:
 337 00c4 00C0      		rjmp .L7
 338               	.L6:
 126:util.c        **** 		DDRB |= _BV(3);
 340               	.LM24:
 341 00c6 539A      		sbi 0xa,3
 127:util.c        **** 	}
 343               	.LM25:
 344 00c8 239A      		sbi 0x4,3
 132:util.c        **** 	{
GAS LISTING /tmp/ccLsnRQw.s 			page 10


 346               	.LM26:
 347 00ca 8091 0000 		lds r24,wave
 348 00ce 87FF      		sbrs r24,7
 349 00d0 00C0      		rjmp .L8
 134:util.c        **** 			GPIOR0 |= _BV(1); //If transition, trigger.
 351               	.LM27:
 352 00d2 F09B      		sbis 0x1e,0
 353 00d4 00C0      		rjmp .L9
 135:util.c        **** 		else
 355               	.LM28:
 356 00d6 F19A      		sbi 0x1e,1
 357 00d8 00C0      		rjmp .L10
 358               	.L9:
 137:util.c        **** 		GPIOR0 &= ~_BV(0);
 360               	.LM29:
 361 00da F198      		cbi 0x1e,1
 362               	.L10:
 138:util.c        **** 	}
 364               	.LM30:
 365 00dc F098      		cbi 0x1e,0
 366 00de 00C0      		rjmp .L11
 367               	.L8:
 142:util.c        **** 			GPIOR0 |= _BV(1); //If transition, trigger.
 369               	.LM31:
 370 00e0 F099      		sbic 0x1e,0
 371 00e2 00C0      		rjmp .L12
 143:util.c        **** 		else
 373               	.LM32:
 374 00e4 F19A      		sbi 0x1e,1
 375 00e6 00C0      		rjmp .L13
 376               	.L12:
 145:util.c        **** 		GPIOR0 |= _BV(0);
 378               	.LM33:
 379 00e8 F198      		cbi 0x1e,1
 380               	.L13:
 146:util.c        **** 	}
 382               	.LM34:
 383 00ea F09A      		sbi 0x1e,0
 384               	.L11:
 149:util.c        **** end_int:
 386               	.LM35:
 387 00ec 8091 0000 		lds r24,wave
 388 00f0 880F      		lsl r24
 389 00f2 88BD      		out 0x28,r24
 390 00f4 87BD      		out 0x27,r24
 391               	.L7:
 151:util.c        **** 		pop r31\n\
 393               	.LM36:
 394               	/* #APP */
 395               	 ;  151 "util.c" 1
 396 00f6 FF91      				pop r31
 397 00f8 EF91      			pop r30
 398 00fa 9F91      			pop r25
 399 00fc 8F91      			pop r24
 400 00fe 7F91      			pop r23
 401 0100 6F91      			pop r22
 402 0102 5F91      			pop r21
GAS LISTING /tmp/ccLsnRQw.s 			page 11


 403 0104 4F91      			pop r20
 404 0106 3F91      			pop r19
 405 0108 2F91      			pop r18
 406 010a 1F91      			pop r17
 407 010c 0F91      			pop r16
 408 010e 0F90      			pop r0
 409 0110 0FBE      			out 63, r0 /*Restore SREG*/
 410 0112 1F90      			pop r1
 411 0114 0F90      			pop r0
 412 0116 1895      			reti
 413               	
 414               	 ;  0 "" 2
 415               	/* epilogue start */
 169:util.c        **** 
 417               	.LM37:
 418               	/* #NOAPP */
 420               	.Lscope5:
 422               		.stabd	78,0,0
 424               	.global	voicePlayWave
 426               	voicePlayWave:
 427               		.stabd	46,0,0
 178:util.c        **** 	wave = pgm_read_byte( &auddat[sampleCount] );
 429               	.LM38:
 430               	.LFBB6:
 431               	/* prologue: function */
 432               	/* frame size = 0 */
 433               	/* stack size = 0 */
 434               	.L__stack_usage = 0
 435               	.LBB2:
 179:util.c        **** 	if( sampleCount == NUM_SAMPLES )
 437               	.LM39:
 438 0118 8091 0000 		lds r24,sampleCount
 439 011c 9091 0000 		lds r25,sampleCount+1
 440 0120 FC01      		movw r30,r24
 441 0122 E050      		subi r30,lo8(-(auddat))
 442 0124 F040      		sbci r31,hi8(-(auddat))
 443               	/* #APP */
 444               	 ;  179 "util.c" 1
 445 0126 E491      		lpm r30, Z
 446               		
 447               	 ;  0 "" 2
 448               	/* #NOAPP */
 449               	.LBE2:
 450 0128 E093 0000 		sts wave,r30
 180:util.c        **** 	{
 452               	.LM40:
 453 012c 8132      		cpi r24,33
 454 012e 9841      		sbci r25,24
 455 0130 01F4      		brne .L15
 182:util.c        **** 		sampleCount = 0;
 457               	.LM41:
 458 0132 80E0      		ldi r24,lo8(gs(voiceQuicklySleep))
 459 0134 90E0      		ldi r25,hi8(gs(voiceQuicklySleep))
 460 0136 9093 0000 		sts voiceptr+1,r25
 461 013a 8093 0000 		sts voiceptr,r24
 183:util.c        **** 	}
 463               	.LM42:
GAS LISTING /tmp/ccLsnRQw.s 			page 12


 464 013e 1092 0000 		sts sampleCount+1,__zero_reg__
 465 0142 1092 0000 		sts sampleCount,__zero_reg__
 466               	.L15:
 185:util.c        **** 	return 1;
 468               	.LM43:
 469 0146 8091 0000 		lds r24,sampleCount
 470 014a 9091 0000 		lds r25,sampleCount+1
 471 014e 0196      		adiw r24,1
 472 0150 9093 0000 		sts sampleCount+1,r25
 473 0154 8093 0000 		sts sampleCount,r24
 187:util.c        **** #else
 475               	.LM44:
 476 0158 81E0      		ldi r24,lo8(1)
 477 015a 0895      		ret
 479               	.Lscope6:
 481               		.stabd	78,0,0
 483               	.global	voiceDoBasicSynth
 485               	voiceDoBasicSynth:
 486               		.stabd	46,0,0
 197:util.c        **** 	int16_t twave;
 488               	.LM45:
 489               	.LFBB7:
 490               	/* prologue: function */
 491               	/* frame size = 0 */
 492               	/* stack size = 0 */
 493               	.L__stack_usage = 0
 205:util.c        **** 	{
 495               	.LM46:
 496 015c 8091 0000 		lds r24,speed
 497 0160 8111      		cpse r24,__zero_reg__
 498 0162 00C0      		rjmp .L17
 207:util.c        **** 		wave0 = wave1 = 0;
 500               	.LM47:
 501 0164 80E0      		ldi r24,lo8(gs(voiceQuicklySleep))
 502 0166 90E0      		ldi r25,hi8(gs(voiceQuicklySleep))
 503 0168 9093 0000 		sts voiceptr+1,r25
 504 016c 8093 0000 		sts voiceptr,r24
 208:util.c        **** 		return 0;
 506               	.LM48:
 507 0170 1092 0000 		sts wave1.1885,__zero_reg__
 508 0174 1092 0000 		sts wave0.1884,__zero_reg__
 209:util.c        **** 	}
 510               	.LM49:
 511 0178 80E0      		ldi r24,0
 512 017a 0895      		ret
 513               	.L17:
 212:util.c        **** 	if( up )
 515               	.LM50:
 516 017c 2091 0000 		lds r18,wave0.1884
 517 0180 022E      		mov __tmp_reg__,r18
 518 0182 000C      		lsl r0
 519 0184 330B      		sbc r19,r19
 213:util.c        **** 	{
 521               	.LM51:
 522 0186 8091 0000 		lds r24,up.1882
 523 018a 8823      		tst r24
 524 018c 01F4      		brne .+2
GAS LISTING /tmp/ccLsnRQw.s 			page 13


 525 018e 00C0      		rjmp .L19
 215:util.c        **** 		if( twave > speed_rec ) { up = 0; twave = speed_rec - (twave-speed_rec); } //I hope this is right
 527               	.LM52:
 528 0190 8091 0000 		lds r24,speed
 529 0194 280F      		add r18,r24
 530 0196 311D      		adc r19,__zero_reg__
 216:util.c        **** 	}
 532               	.LM53:
 533 0198 8091 0000 		lds r24,speed_rec
 534 019c 90E0      		ldi r25,0
 535 019e 8217      		cp r24,r18
 536 01a0 9307      		cpc r25,r19
 537 01a2 04F4      		brge .L20
 216:util.c        **** 	}
 539               	.LM54:
 540 01a4 1092 0000 		sts up.1882,__zero_reg__
 541 01a8 8091 0000 		lds r24,speed_rec
 542 01ac 9091 0000 		lds r25,speed_rec
 543 01b0 291B      		sub r18,r25
 544 01b2 3109      		sbc r19,__zero_reg__
 545 01b4 90E0      		ldi r25,0
 546               	.L24:
 221:util.c        **** 	}
 548               	.LM55:
 549 01b6 AC01      		movw r20,r24
 550 01b8 421B      		sub r20,r18
 551 01ba 530B      		sbc r21,r19
 552 01bc 9A01      		movw r18,r20
 553               	.L20:
 223:util.c        **** 
 555               	.LM56:
 556 01be 622F      		mov r22,r18
 557 01c0 2093 0000 		sts wave0.1884,r18
 225:util.c        **** 	{
 559               	.LM57:
 560 01c4 8091 0000 		lds r24,speed1
 561 01c8 8823      		tst r24
 562 01ca 01F4      		brne .+2
 563 01cc 00C0      		rjmp .L21
 227:util.c        **** 		if( up1 )
 565               	.LM58:
 566 01ce 2091 0000 		lds r18,wave1.1885
 567 01d2 022E      		mov __tmp_reg__,r18
 568 01d4 000C      		lsl r0
 569 01d6 330B      		sbc r19,r19
 228:util.c        **** 		{
 571               	.LM59:
 572 01d8 8091 0000 		lds r24,up1.1883
 573 01dc 8823      		tst r24
 574 01de 01F4      		brne .+2
 575 01e0 00C0      		rjmp .L22
 230:util.c        **** 			if( twave > speed_rec1 ) { up1 = 0; twave = speed_rec1 - (twave-speed_rec1); } //I hope this is 
 577               	.LM60:
 578 01e2 8091 0000 		lds r24,speed1
 579 01e6 280F      		add r18,r24
 580 01e8 311D      		adc r19,__zero_reg__
 231:util.c        **** 		}
GAS LISTING /tmp/ccLsnRQw.s 			page 14


 582               	.LM61:
 583 01ea 8091 0000 		lds r24,speed_rec1
 584 01ee 90E0      		ldi r25,0
 585 01f0 8217      		cp r24,r18
 586 01f2 9307      		cpc r25,r19
 587 01f4 04F4      		brge .L23
 231:util.c        **** 		}
 589               	.LM62:
 590 01f6 1092 0000 		sts up1.1883,__zero_reg__
 591 01fa 4091 0000 		lds r20,speed_rec1
 592 01fe 8091 0000 		lds r24,speed_rec1
 593 0202 281B      		sub r18,r24
 594 0204 3109      		sbc r19,__zero_reg__
 595 0206 50E0      		ldi r21,0
 596 0208 CA01      		movw r24,r20
 597 020a 821B      		sub r24,r18
 598 020c 930B      		sbc r25,r19
 599 020e 9C01      		movw r18,r24
 600               	.L23:
 238:util.c        **** 		wave = ((wave1*volume)>>8)+((wave0*volume)>>8);
 602               	.LM63:
 603 0210 2093 0000 		sts wave1.1885,r18
 239:util.c        **** 		return 1;
 605               	.LM64:
 606 0214 3091 0000 		lds r19,volume
 607 0218 4091 0000 		lds r20,volume
 608 021c 2303      		mulsu r18,r19
 609 021e 9001      		movw r18,r0
 610 0220 1124      		clr __zero_reg__
 611 0222 6403      		mulsu r22,r20
 612 0224 A001      		movw r20,r0
 613 0226 1124      		clr __zero_reg__
 614 0228 852F      		mov r24,r21
 615 022a 830F      		add r24,r19
 616 022c 8093 0000 		sts wave,r24
 617               	.L25:
 246:util.c        **** 	}
 619               	.LM65:
 620 0230 81E0      		ldi r24,lo8(1)
 248:util.c        **** 
 622               	.LM66:
 623 0232 0895      		ret
 624               	.L19:
 220:util.c        **** 		if( twave < -speed_rec ) { up = 1; twave = -speed_rec - (twave+speed_rec); } //I hope this is rig
 626               	.LM67:
 627 0234 8091 0000 		lds r24,speed
 628 0238 281B      		sub r18,r24
 629 023a 3109      		sbc r19,__zero_reg__
 221:util.c        **** 	}
 631               	.LM68:
 632 023c 8091 0000 		lds r24,speed_rec
 633 0240 90E0      		ldi r25,0
 634 0242 9195      		neg r25
 635 0244 8195      		neg r24
 636 0246 9109      		sbc r25,__zero_reg__
 637 0248 2817      		cp r18,r24
 638 024a 3907      		cpc r19,r25
GAS LISTING /tmp/ccLsnRQw.s 			page 15


 639 024c 04F0      		brlt .+2
 640 024e 00C0      		rjmp .L20
 221:util.c        **** 	}
 642               	.LM69:
 643 0250 81E0      		ldi r24,lo8(1)
 644 0252 8093 0000 		sts up.1882,r24
 645 0256 8091 0000 		lds r24,speed_rec
 646 025a 9091 0000 		lds r25,speed_rec
 647 025e 290F      		add r18,r25
 648 0260 311D      		adc r19,__zero_reg__
 649 0262 90E0      		ldi r25,0
 650 0264 9195      		neg r25
 651 0266 8195      		neg r24
 652 0268 9109      		sbc r25,__zero_reg__
 653 026a 00C0      		rjmp .L24
 654               	.L22:
 235:util.c        **** 			if( twave < -speed_rec1 ) { up1 = 1; twave = -speed_rec1 - (twave+speed_rec1); } //I hope this i
 656               	.LM70:
 657 026c 8091 0000 		lds r24,speed1
 658 0270 281B      		sub r18,r24
 659 0272 3109      		sbc r19,__zero_reg__
 236:util.c        **** 		}
 661               	.LM71:
 662 0274 8091 0000 		lds r24,speed_rec1
 663 0278 90E0      		ldi r25,0
 664 027a 9195      		neg r25
 665 027c 8195      		neg r24
 666 027e 9109      		sbc r25,__zero_reg__
 667 0280 2817      		cp r18,r24
 668 0282 3907      		cpc r19,r25
 669 0284 04F4      		brge .L23
 236:util.c        **** 		}
 671               	.LM72:
 672 0286 81E0      		ldi r24,lo8(1)
 673 0288 8093 0000 		sts up1.1883,r24
 674 028c 8091 0000 		lds r24,speed_rec1
 675 0290 9091 0000 		lds r25,speed_rec1
 676 0294 290F      		add r18,r25
 677 0296 311D      		adc r19,__zero_reg__
 678 0298 90E0      		ldi r25,0
 679 029a 9195      		neg r25
 680 029c 8195      		neg r24
 681 029e 9109      		sbc r25,__zero_reg__
 682 02a0 AC01      		movw r20,r24
 683 02a2 421B      		sub r20,r18
 684 02a4 530B      		sbc r21,r19
 685 02a6 9A01      		movw r18,r20
 686 02a8 00C0      		rjmp .L23
 687               	.L21:
 244:util.c        **** 		wave1 = 0;
 689               	.LM73:
 690 02aa 3091 0000 		lds r19,volume
 691 02ae 2303      		mulsu r18,r19
 692 02b0 9001      		movw r18,r0
 693 02b2 1124      		clr __zero_reg__
 694 02b4 3093 0000 		sts wave,r19
 245:util.c        **** 		return 1;
GAS LISTING /tmp/ccLsnRQw.s 			page 16


 696               	.LM74:
 697 02b8 1092 0000 		sts wave1.1885,__zero_reg__
 698 02bc 00C0      		rjmp .L25
 706               	.Lscope7:
 708               		.stabd	78,0,0
 710               	.global	voiceTunedNoise
 712               	voiceTunedNoise:
 713               		.stabd	46,0,0
 251:util.c        ****   static uint8_t mark_s, mark_s1;
 715               	.LM75:
 716               	.LFBB8:
 717               	/* prologue: function */
 718               	/* frame size = 0 */
 719               	/* stack size = 0 */
 720               	.L__stack_usage = 0
 254:util.c        ****   
 722               	.LM76:
 723 02be 8091 0000 		lds r24,mark_s.1888
 724 02c2 8F5F      		subi r24,lo8(-(1))
 725 02c4 8093 0000 		sts mark_s.1888,r24
 256:util.c        ****     wave = (((int8_t)GetRandom()) * volume) >> 8;
 727               	.LM77:
 728 02c8 9091 0000 		lds r25,speed
 729 02cc 8913      		cpse r24,r25
 730 02ce 00C0      		rjmp .L27
 257:util.c        ****     mark_s = 0;
 732               	.LM78:
 733 02d0 0E94 0000 		call GetRandom
 734 02d4 2091 0000 		lds r18,volume
 735 02d8 382F      		mov r19,r24
 736 02da 3203      		mulsu r19,r18
 737 02dc C001      		movw r24,r0
 738 02de 1124      		clr __zero_reg__
 739 02e0 9093 0000 		sts wave,r25
 258:util.c        ****   }
 741               	.LM79:
 742 02e4 1092 0000 		sts mark_s.1888,__zero_reg__
 743               	.L27:
 262:util.c        **** 
 745               	.LM80:
 746 02e8 81E0      		ldi r24,lo8(1)
 747 02ea 0895      		ret
 752               	.Lscope8:
 754               		.stabd	78,0,0
 756               	.global	voiceDrums
 758               	voiceDrums:
 759               		.stabd	46,0,0
 265:util.c        ****   static uint8_t drum_s;
 761               	.LM81:
 762               	.LFBB9:
 763               	/* prologue: function */
 764               	/* frame size = 0 */
 765               	/* stack size = 0 */
 766               	.L__stack_usage = 0
 269:util.c        **** 
 768               	.LM82:
 769 02ec 8091 0000 		lds r24,drum_s.1892
GAS LISTING /tmp/ccLsnRQw.s 			page 17


 770 02f0 8F5F      		subi r24,lo8(-(1))
 771 02f2 8093 0000 		sts drum_s.1892,r24
 271:util.c        ****     wave = (((int8_t)GetRandom()) * volume) >> 8;
 773               	.LM83:
 774 02f6 9091 0000 		lds r25,speed
 775 02fa 8913      		cpse r24,r25
 776 02fc 00C0      		rjmp .L30
 272:util.c        ****     drum_s = 0;
 778               	.LM84:
 779 02fe 0E94 0000 		call GetRandom
 780 0302 2091 0000 		lds r18,volume
 781 0306 382F      		mov r19,r24
 782 0308 3203      		mulsu r19,r18
 783 030a C001      		movw r24,r0
 784 030c 1124      		clr __zero_reg__
 785 030e 9093 0000 		sts wave,r25
 273:util.c        ****     ticks++;
 787               	.LM85:
 788 0312 1092 0000 		sts drum_s.1892,__zero_reg__
 274:util.c        **** 
 790               	.LM86:
 791 0316 8091 0000 		lds r24,ticks.1893
 792 031a 9091 0000 		lds r25,ticks.1893+1
 793 031e 0196      		adiw r24,1
 794 0320 9093 0000 		sts ticks.1893+1,r25
 795 0324 8093 0000 		sts ticks.1893,r24
 276:util.c        ****       volume--;
 797               	.LM87:
 798 0328 2091 0000 		lds r18,fade_out
 799 032c 3091 0000 		lds r19,fade_out+1
 800 0330 2817      		cp r18,r24
 801 0332 3907      		cpc r19,r25
 802 0334 00F4      		brsh .L30
 277:util.c        ****     }
 804               	.LM88:
 805 0336 8091 0000 		lds r24,volume
 806 033a 8150      		subi r24,lo8(-(-1))
 807 033c 8093 0000 		sts volume,r24
 808               	.L30:
 281:util.c        ****     ticks = 0;
 810               	.LM89:
 811 0340 8091 0000 		lds r24,volume
 812 0344 8111      		cpse r24,__zero_reg__
 813 0346 00C0      		rjmp .L33
 282:util.c        ****     drum_s = 0;
 815               	.LM90:
 816 0348 1092 0000 		sts ticks.1893+1,__zero_reg__
 817 034c 1092 0000 		sts ticks.1893,__zero_reg__
 283:util.c        ****     return 0;
 819               	.LM91:
 820 0350 1092 0000 		sts drum_s.1892,__zero_reg__
 284:util.c        ****   }
 822               	.LM92:
 823 0354 0895      		ret
 824               	.L33:
 287:util.c        **** }
 826               	.LM93:
GAS LISTING /tmp/ccLsnRQw.s 			page 18


 827 0356 81E0      		ldi r24,lo8(1)
 288:util.c        **** 
 829               	.LM94:
 830 0358 0895      		ret
 836               	.Lscope9:
 838               		.stabd	78,0,0
 840               	.global	voiceNoise
 842               	voiceNoise:
 843               		.stabd	46,0,0
 294:util.c        **** 
 295:util.c        **** uint8_t voiceNoise()
 296:util.c        **** {
 845               	.LM95:
 846               	.LFBB10:
 847               	/* prologue: function */
 848               	/* frame size = 0 */
 849               	/* stack size = 0 */
 850               	.L__stack_usage = 0
 297:util.c        **** 	static uint8_t speedmark;
 298:util.c        **** 	speedmark++;
 852               	.LM96:
 853 035a 8091 0000 		lds r24,speedmark.1898
 854 035e 8F5F      		subi r24,lo8(-(1))
 855 0360 8093 0000 		sts speedmark.1898,r24
 299:util.c        **** 
 300:util.c        **** 	if( speedmark == speed )
 857               	.LM97:
 858 0364 9091 0000 		lds r25,speed
 859 0368 8913      		cpse r24,r25
 860 036a 00C0      		rjmp .L35
 301:util.c        **** 	{
 302:util.c        **** 		wave = (((int8_t)GetRandom()) * volume)>>8;
 862               	.LM98:
 863 036c 0E94 0000 		call GetRandom
 864 0370 2091 0000 		lds r18,volume
 865 0374 382F      		mov r19,r24
 866 0376 3203      		mulsu r19,r18
 867 0378 C001      		movw r24,r0
 868 037a 1124      		clr __zero_reg__
 869 037c 9093 0000 		sts wave,r25
 303:util.c        **** 		speedmark = 0;
 871               	.LM99:
 872 0380 1092 0000 		sts speedmark.1898,__zero_reg__
 873               	.L35:
 304:util.c        **** 	}
 305:util.c        **** 	return 1;
 306:util.c        **** }
 875               	.LM100:
 876 0384 81E0      		ldi r24,lo8(1)
 877 0386 0895      		ret
 882               	.Lscope10:
 884               		.stabd	78,0,0
 886               	.global	ReadButtonMask
 888               	ReadButtonMask:
 889               		.stabd	46,0,0
 307:util.c        **** 
 308:util.c        **** uint16_t ReadButtonMask()
GAS LISTING /tmp/ccLsnRQw.s 			page 19


 309:util.c        **** {
 891               	.LM101:
 892               	.LFBB11:
 893               	/* prologue: function */
 894               	/* frame size = 0 */
 895               	/* stack size = 0 */
 896               	.L__stack_usage = 0
 310:util.c        **** 	uint16_t ret = 0;
 311:util.c        **** 	if( BUTTON0DOWN ) ret |= _BV(0);
 898               	.LM102:
 899 0388 26B1      		in r18,0x6
 900 038a 2295      		swap r18
 901 038c 2695      		lsr r18
 902 038e 2770      		andi r18,lo8(7)
 903 0390 31E0      		ldi r19,lo8(1)
 904 0392 2327      		eor r18,r19
 310:util.c        **** 	uint16_t ret = 0;
 906               	.LM103:
 907 0394 822F      		mov r24,r18
 908 0396 8170      		andi r24,1
 909 0398 90E0      		ldi r25,0
 312:util.c        **** 	if( BUTTON1DOWN ) ret |= _BV(1);
 911               	.LM104:
 912 039a 4A9B      		sbis 0x9,2
 914               	.LM105:
 915 039c 8260      		ori r24,2
 916               	.L37:
 313:util.c        **** 	if( BUTTON2DOWN ) ret |= _BV(2);
 918               	.LM106:
 919 039e 4C9B      		sbis 0x9,4
 921               	.LM107:
 922 03a0 8460      		ori r24,4
 923               	.L38:
 314:util.c        **** 	if( BUTTON3DOWN ) ret |= _BV(3);
 925               	.LM108:
 926 03a2 619B      		sbis 0xc,1
 928               	.LM109:
 929 03a4 8860      		ori r24,8
 930               	.L39:
 315:util.c        **** 	if( BUTTON4DOWN ) ret |= _BV(4);
 932               	.LM110:
 933 03a6 4F9B      		sbis 0x9,7
 935               	.LM111:
 936 03a8 8061      		ori r24,16
 937               	.L40:
 316:util.c        **** 	if( BUTTON5DOWN ) ret |= _BV(5);
 939               	.LM112:
 940 03aa 189B      		sbis 0x3,0
 942               	.LM113:
 943 03ac 8062      		ori r24,32
 944               	.L41:
 317:util.c        **** 	if( BUTTON6DOWN ) ret |= _BV(6);
 946               	.LM114:
 947 03ae 199B      		sbis 0x3,1
 949               	.LM115:
 950 03b0 8064      		ori r24,64
 951               	.L42:
GAS LISTING /tmp/ccLsnRQw.s 			page 20


 318:util.c        **** 	if( BUTTON7DOWN ) ret |= _BV(7);
 953               	.LM116:
 954 03b2 1C9B      		sbis 0x3,4
 956               	.LM117:
 957 03b4 8068      		ori r24,128
 958               	.L43:
 319:util.c        **** 	if( BUTTON8DOWN ) ret |= _BV(8);
 960               	.LM118:
 961 03b6 629B      		sbis 0xc,2
 963               	.LM119:
 964 03b8 9160      		ori r25,1
 965               	.L44:
 320:util.c        **** 	if( BUTTON9DOWN ) ret |= _BV(9);
 967               	.LM120:
 968 03ba 639B      		sbis 0xc,3
 970               	.LM121:
 971 03bc 9260      		ori r25,2
 972               	.L45:
 321:util.c        **** 	if( BUTTON10DOWN ) ret |= _BV(10);
 974               	.LM122:
 975 03be 329B      		sbis 0x6,2
 977               	.LM123:
 978 03c0 9460      		ori r25,4
 979               	.L46:
 322:util.c        **** 	if( BUTTON11DOWN ) ret |= _BV(11);
 981               	.LM124:
 982 03c2 339B      		sbis 0x6,3
 984               	.LM125:
 985 03c4 9860      		ori r25,8
 986               	.L47:
 323:util.c        **** 	if( BUTTON12DOWN ) ret |= _BV(12);
 988               	.LM126:
 989 03c6 349B      		sbis 0x6,4
 991               	.LM127:
 992 03c8 9061      		ori r25,16
 993               	.L36:
 324:util.c        **** 	return ret;
 325:util.c        **** }
 995               	.LM128:
 996 03ca 0895      		ret
 1001               	.Lscope11:
 1003               		.stabd	78,0,0
 1004               		.local	speedmark.1898
 1005               		.comm	speedmark.1898,1,1
 1007               		.local	ticks.1893
 1008               		.comm	ticks.1893,2,1
 1010               		.local	drum_s.1892
 1011               		.comm	drum_s.1892,1,1
 1013               		.local	mark_s.1888
 1014               		.comm	mark_s.1888,1,1
 1016               		.local	up1.1883
 1017               		.comm	up1.1883,1,1
 1019               		.local	up.1882
 1020               		.comm	up.1882,1,1
 1022               		.local	wave0.1884
 1023               		.comm	wave0.1884,1,1
 1025               		.local	wave1.1885
GAS LISTING /tmp/ccLsnRQw.s 			page 21


 1026               		.comm	wave1.1885,1,1
 1028               	.global	sampleCount
 1029               		.section .bss
 1032               	sampleCount:
 1033 0000 0000      		.zero	2
 1035               	.global	auddat
 1036               		.section	.progmem.data,"a",@progbits
 1039               	auddat:
 1040 0000 00        		.byte	0
 1041 0001 00        		.byte	0
 1042 0002 00        		.byte	0
 1043 0003 00        		.byte	0
 1044 0004 00        		.byte	0
 1045 0005 00        		.byte	0
 1046 0006 FF        		.byte	-1
 1047 0007 FF        		.byte	-1
 1048 0008 FF        		.byte	-1
 1049 0009 00        		.byte	0
 1050 000a 00        		.byte	0
 1051 000b 00        		.byte	0
 1052 000c 00        		.byte	0
 1053 000d FF        		.byte	-1
 1054 000e 00        		.byte	0
 1055 000f 00        		.byte	0
 1056 0010 00        		.byte	0
 1057 0011 00        		.byte	0
 1058 0012 00        		.byte	0
 1059 0013 00        		.byte	0
 1060 0014 00        		.byte	0
 1061 0015 00        		.byte	0
 1062 0016 00        		.byte	0
 1063 0017 00        		.byte	0
 1064 0018 00        		.byte	0
 1065 0019 00        		.byte	0
 1066 001a 00        		.byte	0
 1067 001b 00        		.byte	0
 1068 001c 00        		.byte	0
 1069 001d 00        		.byte	0
 1070 001e 00        		.byte	0
 1071 001f 00        		.byte	0
 1072 0020 00        		.byte	0
 1073 0021 00        		.byte	0
 1074 0022 00        		.byte	0
 1075 0023 00        		.byte	0
 1076 0024 00        		.byte	0
 1077 0025 00        		.byte	0
 1078 0026 FF        		.byte	-1
 1079 0027 FF        		.byte	-1
 1080 0028 FF        		.byte	-1
 1081 0029 FF        		.byte	-1
 1082 002a FF        		.byte	-1
 1083 002b FF        		.byte	-1
 1084 002c FF        		.byte	-1
 1085 002d FF        		.byte	-1
 1086 002e FF        		.byte	-1
 1087 002f FF        		.byte	-1
 1088 0030 FF        		.byte	-1
GAS LISTING /tmp/ccLsnRQw.s 			page 22


 1089 0031 FF        		.byte	-1
 1090 0032 FE        		.byte	-2
 1091 0033 FE        		.byte	-2
 1092 0034 FE        		.byte	-2
 1093 0035 FE        		.byte	-2
 1094 0036 FE        		.byte	-2
 1095 0037 FE        		.byte	-2
 1096 0038 FE        		.byte	-2
 1097 0039 FE        		.byte	-2
 1098 003a FE        		.byte	-2
 1099 003b FE        		.byte	-2
 1100 003c FE        		.byte	-2
 1101 003d FE        		.byte	-2
 1102 003e FE        		.byte	-2
 1103 003f FE        		.byte	-2
 1104 0040 FE        		.byte	-2
 1105 0041 FE        		.byte	-2
 1106 0042 FE        		.byte	-2
 1107 0043 FD        		.byte	-3
 1108 0044 FD        		.byte	-3
 1109 0045 FD        		.byte	-3
 1110 0046 FD        		.byte	-3
 1111 0047 FD        		.byte	-3
 1112 0048 FD        		.byte	-3
 1113 0049 FD        		.byte	-3
 1114 004a FD        		.byte	-3
 1115 004b FD        		.byte	-3
 1116 004c FD        		.byte	-3
 1117 004d FD        		.byte	-3
 1118 004e FD        		.byte	-3
 1119 004f FD        		.byte	-3
 1120 0050 FD        		.byte	-3
 1121 0051 FD        		.byte	-3
 1122 0052 FD        		.byte	-3
 1123 0053 FD        		.byte	-3
 1124 0054 FD        		.byte	-3
 1125 0055 FD        		.byte	-3
 1126 0056 FE        		.byte	-2
 1127 0057 FE        		.byte	-2
 1128 0058 FE        		.byte	-2
 1129 0059 FE        		.byte	-2
 1130 005a FE        		.byte	-2
 1131 005b FE        		.byte	-2
 1132 005c FE        		.byte	-2
 1133 005d FE        		.byte	-2
 1134 005e FF        		.byte	-1
 1135 005f FF        		.byte	-1
 1136 0060 FF        		.byte	-1
 1137 0061 FF        		.byte	-1
 1138 0062 FF        		.byte	-1
 1139 0063 00        		.byte	0
 1140 0064 00        		.byte	0
 1141 0065 00        		.byte	0
 1142 0066 01        		.byte	1
 1143 0067 01        		.byte	1
 1144 0068 01        		.byte	1
 1145 0069 02        		.byte	2
GAS LISTING /tmp/ccLsnRQw.s 			page 23


 1146 006a 02        		.byte	2
 1147 006b 02        		.byte	2
 1148 006c 03        		.byte	3
 1149 006d 03        		.byte	3
 1150 006e 04        		.byte	4
 1151 006f 04        		.byte	4
 1152 0070 04        		.byte	4
 1153 0071 05        		.byte	5
 1154 0072 05        		.byte	5
 1155 0073 05        		.byte	5
 1156 0074 06        		.byte	6
 1157 0075 06        		.byte	6
 1158 0076 07        		.byte	7
 1159 0077 07        		.byte	7
 1160 0078 07        		.byte	7
 1161 0079 08        		.byte	8
 1162 007a 08        		.byte	8
 1163 007b 08        		.byte	8
 1164 007c 08        		.byte	8
 1165 007d 09        		.byte	9
 1166 007e 09        		.byte	9
 1167 007f 09        		.byte	9
 1168 0080 09        		.byte	9
 1169 0081 09        		.byte	9
 1170 0082 08        		.byte	8
 1171 0083 08        		.byte	8
 1172 0084 08        		.byte	8
 1173 0085 08        		.byte	8
 1174 0086 08        		.byte	8
 1175 0087 08        		.byte	8
 1176 0088 07        		.byte	7
 1177 0089 06        		.byte	6
 1178 008a 06        		.byte	6
 1179 008b 05        		.byte	5
 1180 008c 04        		.byte	4
 1181 008d 04        		.byte	4
 1182 008e 04        		.byte	4
 1183 008f 03        		.byte	3
 1184 0090 03        		.byte	3
 1185 0091 02        		.byte	2
 1186 0092 01        		.byte	1
 1187 0093 00        		.byte	0
 1188 0094 00        		.byte	0
 1189 0095 FF        		.byte	-1
 1190 0096 FF        		.byte	-1
 1191 0097 FF        		.byte	-1
 1192 0098 FE        		.byte	-2
 1193 0099 FD        		.byte	-3
 1194 009a FD        		.byte	-3
 1195 009b FC        		.byte	-4
 1196 009c FC        		.byte	-4
 1197 009d FB        		.byte	-5
 1198 009e FB        		.byte	-5
 1199 009f FB        		.byte	-5
 1200 00a0 FB        		.byte	-5
 1201 00a1 FA        		.byte	-6
 1202 00a2 FA        		.byte	-6
GAS LISTING /tmp/ccLsnRQw.s 			page 24


 1203 00a3 FA        		.byte	-6
 1204 00a4 F9        		.byte	-7
 1205 00a5 F9        		.byte	-7
 1206 00a6 F9        		.byte	-7
 1207 00a7 F9        		.byte	-7
 1208 00a8 F9        		.byte	-7
 1209 00a9 F9        		.byte	-7
 1210 00aa F9        		.byte	-7
 1211 00ab F9        		.byte	-7
 1212 00ac F9        		.byte	-7
 1213 00ad F9        		.byte	-7
 1214 00ae F9        		.byte	-7
 1215 00af F9        		.byte	-7
 1216 00b0 F9        		.byte	-7
 1217 00b1 FA        		.byte	-6
 1218 00b2 FA        		.byte	-6
 1219 00b3 FA        		.byte	-6
 1220 00b4 FA        		.byte	-6
 1221 00b5 FA        		.byte	-6
 1222 00b6 FA        		.byte	-6
 1223 00b7 FA        		.byte	-6
 1224 00b8 FA        		.byte	-6
 1225 00b9 FA        		.byte	-6
 1226 00ba FB        		.byte	-5
 1227 00bb FB        		.byte	-5
 1228 00bc FB        		.byte	-5
 1229 00bd FB        		.byte	-5
 1230 00be FB        		.byte	-5
 1231 00bf FB        		.byte	-5
 1232 00c0 FB        		.byte	-5
 1233 00c1 FB        		.byte	-5
 1234 00c2 FB        		.byte	-5
 1235 00c3 FB        		.byte	-5
 1236 00c4 FB        		.byte	-5
 1237 00c5 FB        		.byte	-5
 1238 00c6 FB        		.byte	-5
 1239 00c7 FB        		.byte	-5
 1240 00c8 FB        		.byte	-5
 1241 00c9 FC        		.byte	-4
 1242 00ca FC        		.byte	-4
 1243 00cb FC        		.byte	-4
 1244 00cc FC        		.byte	-4
 1245 00cd FC        		.byte	-4
 1246 00ce FC        		.byte	-4
 1247 00cf FC        		.byte	-4
 1248 00d0 FC        		.byte	-4
 1249 00d1 FC        		.byte	-4
 1250 00d2 FC        		.byte	-4
 1251 00d3 FC        		.byte	-4
 1252 00d4 FC        		.byte	-4
 1253 00d5 FC        		.byte	-4
 1254 00d6 FC        		.byte	-4
 1255 00d7 FC        		.byte	-4
 1256 00d8 FD        		.byte	-3
 1257 00d9 FD        		.byte	-3
 1258 00da FD        		.byte	-3
 1259 00db FD        		.byte	-3
GAS LISTING /tmp/ccLsnRQw.s 			page 25


 1260 00dc FD        		.byte	-3
 1261 00dd FD        		.byte	-3
 1262 00de FD        		.byte	-3
 1263 00df FD        		.byte	-3
 1264 00e0 FD        		.byte	-3
 1265 00e1 FD        		.byte	-3
 1266 00e2 FE        		.byte	-2
 1267 00e3 FE        		.byte	-2
 1268 00e4 FE        		.byte	-2
 1269 00e5 FE        		.byte	-2
 1270 00e6 FE        		.byte	-2
 1271 00e7 FE        		.byte	-2
 1272 00e8 FF        		.byte	-1
 1273 00e9 FF        		.byte	-1
 1274 00ea FF        		.byte	-1
 1275 00eb FF        		.byte	-1
 1276 00ec 00        		.byte	0
 1277 00ed 00        		.byte	0
 1278 00ee 01        		.byte	1
 1279 00ef 01        		.byte	1
 1280 00f0 01        		.byte	1
 1281 00f1 02        		.byte	2
 1282 00f2 02        		.byte	2
 1283 00f3 03        		.byte	3
 1284 00f4 03        		.byte	3
 1285 00f5 04        		.byte	4
 1286 00f6 04        		.byte	4
 1287 00f7 05        		.byte	5
 1288 00f8 06        		.byte	6
 1289 00f9 06        		.byte	6
 1290 00fa 07        		.byte	7
 1291 00fb 08        		.byte	8
 1292 00fc 08        		.byte	8
 1293 00fd 09        		.byte	9
 1294 00fe 09        		.byte	9
 1295 00ff 0A        		.byte	10
 1296 0100 0B        		.byte	11
 1297 0101 0C        		.byte	12
 1298 0102 0C        		.byte	12
 1299 0103 0D        		.byte	13
 1300 0104 0D        		.byte	13
 1301 0105 0E        		.byte	14
 1302 0106 0D        		.byte	13
 1303 0107 0D        		.byte	13
 1304 0108 0D        		.byte	13
 1305 0109 0D        		.byte	13
 1306 010a 0D        		.byte	13
 1307 010b 0D        		.byte	13
 1308 010c 0D        		.byte	13
 1309 010d 0D        		.byte	13
 1310 010e 0C        		.byte	12
 1311 010f 0B        		.byte	11
 1312 0110 0A        		.byte	10
 1313 0111 0A        		.byte	10
 1314 0112 09        		.byte	9
 1315 0113 09        		.byte	9
 1316 0114 08        		.byte	8
GAS LISTING /tmp/ccLsnRQw.s 			page 26


 1317 0115 07        		.byte	7
 1318 0116 06        		.byte	6
 1319 0117 05        		.byte	5
 1320 0118 04        		.byte	4
 1321 0119 03        		.byte	3
 1322 011a 02        		.byte	2
 1323 011b 02        		.byte	2
 1324 011c 01        		.byte	1
 1325 011d 01        		.byte	1
 1326 011e 00        		.byte	0
 1327 011f FF        		.byte	-1
 1328 0120 FE        		.byte	-2
 1329 0121 FD        		.byte	-3
 1330 0122 FD        		.byte	-3
 1331 0123 FC        		.byte	-4
 1332 0124 FC        		.byte	-4
 1333 0125 FC        		.byte	-4
 1334 0126 FB        		.byte	-5
 1335 0127 FB        		.byte	-5
 1336 0128 FA        		.byte	-6
 1337 0129 F9        		.byte	-7
 1338 012a F9        		.byte	-7
 1339 012b F9        		.byte	-7
 1340 012c F9        		.byte	-7
 1341 012d F9        		.byte	-7
 1342 012e F9        		.byte	-7
 1343 012f F8        		.byte	-8
 1344 0130 F8        		.byte	-8
 1345 0131 F8        		.byte	-8
 1346 0132 F8        		.byte	-8
 1347 0133 F8        		.byte	-8
 1348 0134 F8        		.byte	-8
 1349 0135 F8        		.byte	-8
 1350 0136 F8        		.byte	-8
 1351 0137 F9        		.byte	-7
 1352 0138 F9        		.byte	-7
 1353 0139 F9        		.byte	-7
 1354 013a F9        		.byte	-7
 1355 013b F9        		.byte	-7
 1356 013c F9        		.byte	-7
 1357 013d F9        		.byte	-7
 1358 013e F9        		.byte	-7
 1359 013f F9        		.byte	-7
 1360 0140 F9        		.byte	-7
 1361 0141 F9        		.byte	-7
 1362 0142 FA        		.byte	-6
 1363 0143 FA        		.byte	-6
 1364 0144 FA        		.byte	-6
 1365 0145 FA        		.byte	-6
 1366 0146 FB        		.byte	-5
 1367 0147 FB        		.byte	-5
 1368 0148 FB        		.byte	-5
 1369 0149 FB        		.byte	-5
 1370 014a FB        		.byte	-5
 1371 014b FB        		.byte	-5
 1372 014c FB        		.byte	-5
 1373 014d FB        		.byte	-5
GAS LISTING /tmp/ccLsnRQw.s 			page 27


 1374 014e FB        		.byte	-5
 1375 014f FC        		.byte	-4
 1376 0150 FC        		.byte	-4
 1377 0151 FC        		.byte	-4
 1378 0152 FC        		.byte	-4
 1379 0153 FC        		.byte	-4
 1380 0154 FC        		.byte	-4
 1381 0155 FC        		.byte	-4
 1382 0156 FC        		.byte	-4
 1383 0157 FC        		.byte	-4
 1384 0158 FC        		.byte	-4
 1385 0159 FC        		.byte	-4
 1386 015a FC        		.byte	-4
 1387 015b FC        		.byte	-4
 1388 015c FC        		.byte	-4
 1389 015d FD        		.byte	-3
 1390 015e FD        		.byte	-3
 1391 015f FD        		.byte	-3
 1392 0160 FD        		.byte	-3
 1393 0161 FD        		.byte	-3
 1394 0162 FD        		.byte	-3
 1395 0163 FD        		.byte	-3
 1396 0164 FD        		.byte	-3
 1397 0165 FD        		.byte	-3
 1398 0166 FD        		.byte	-3
 1399 0167 FD        		.byte	-3
 1400 0168 FD        		.byte	-3
 1401 0169 FC        		.byte	-4
 1402 016a FC        		.byte	-4
 1403 016b FC        		.byte	-4
 1404 016c FD        		.byte	-3
 1405 016d FD        		.byte	-3
 1406 016e FD        		.byte	-3
 1407 016f FD        		.byte	-3
 1408 0170 FD        		.byte	-3
 1409 0171 FD        		.byte	-3
 1410 0172 FD        		.byte	-3
 1411 0173 FD        		.byte	-3
 1412 0174 FD        		.byte	-3
 1413 0175 FD        		.byte	-3
 1414 0176 FD        		.byte	-3
 1415 0177 FD        		.byte	-3
 1416 0178 FE        		.byte	-2
 1417 0179 FE        		.byte	-2
 1418 017a FE        		.byte	-2
 1419 017b FE        		.byte	-2
 1420 017c FF        		.byte	-1
 1421 017d FF        		.byte	-1
 1422 017e FF        		.byte	-1
 1423 017f 00        		.byte	0
 1424 0180 00        		.byte	0
 1425 0181 01        		.byte	1
 1426 0182 01        		.byte	1
 1427 0183 02        		.byte	2
 1428 0184 02        		.byte	2
 1429 0185 03        		.byte	3
 1430 0186 03        		.byte	3
GAS LISTING /tmp/ccLsnRQw.s 			page 28


 1431 0187 04        		.byte	4
 1432 0188 05        		.byte	5
 1433 0189 06        		.byte	6
 1434 018a 06        		.byte	6
 1435 018b 07        		.byte	7
 1436 018c 07        		.byte	7
 1437 018d 08        		.byte	8
 1438 018e 09        		.byte	9
 1439 018f 09        		.byte	9
 1440 0190 0A        		.byte	10
 1441 0191 0B        		.byte	11
 1442 0192 0C        		.byte	12
 1443 0193 0C        		.byte	12
 1444 0194 0D        		.byte	13
 1445 0195 0E        		.byte	14
 1446 0196 0E        		.byte	14
 1447 0197 0F        		.byte	15
 1448 0198 0F        		.byte	15
 1449 0199 0F        		.byte	15
 1450 019a 0E        		.byte	14
 1451 019b 0E        		.byte	14
 1452 019c 0E        		.byte	14
 1453 019d 0D        		.byte	13
 1454 019e 0D        		.byte	13
 1455 019f 0E        		.byte	14
 1456 01a0 0D        		.byte	13
 1457 01a1 0C        		.byte	12
 1458 01a2 0B        		.byte	11
 1459 01a3 0A        		.byte	10
 1460 01a4 09        		.byte	9
 1461 01a5 09        		.byte	9
 1462 01a6 08        		.byte	8
 1463 01a7 08        		.byte	8
 1464 01a8 07        		.byte	7
 1465 01a9 06        		.byte	6
 1466 01aa 04        		.byte	4
 1467 01ab 03        		.byte	3
 1468 01ac 02        		.byte	2
 1469 01ad 01        		.byte	1
 1470 01ae 01        		.byte	1
 1471 01af 00        		.byte	0
 1472 01b0 00        		.byte	0
 1473 01b1 FF        		.byte	-1
 1474 01b2 FE        		.byte	-2
 1475 01b3 FD        		.byte	-3
 1476 01b4 FC        		.byte	-4
 1477 01b5 FB        		.byte	-5
 1478 01b6 FB        		.byte	-5
 1479 01b7 FB        		.byte	-5
 1480 01b8 FA        		.byte	-6
 1481 01b9 FA        		.byte	-6
 1482 01ba F9        		.byte	-7
 1483 01bb F8        		.byte	-8
 1484 01bc F8        		.byte	-8
 1485 01bd F8        		.byte	-8
 1486 01be F8        		.byte	-8
 1487 01bf F8        		.byte	-8
GAS LISTING /tmp/ccLsnRQw.s 			page 29


 1488 01c0 F8        		.byte	-8
 1489 01c1 F7        		.byte	-9
 1490 01c2 F7        		.byte	-9
 1491 01c3 F7        		.byte	-9
 1492 01c4 F7        		.byte	-9
 1493 01c5 F6        		.byte	-10
 1494 01c6 F7        		.byte	-9
 1495 01c7 F7        		.byte	-9
 1496 01c8 F7        		.byte	-9
 1497 01c9 F7        		.byte	-9
 1498 01ca F8        		.byte	-8
 1499 01cb F8        		.byte	-8
 1500 01cc F8        		.byte	-8
 1501 01cd F8        		.byte	-8
 1502 01ce F8        		.byte	-8
 1503 01cf F8        		.byte	-8
 1504 01d0 F8        		.byte	-8
 1505 01d1 F9        		.byte	-7
 1506 01d2 F9        		.byte	-7
 1507 01d3 F9        		.byte	-7
 1508 01d4 F9        		.byte	-7
 1509 01d5 F9        		.byte	-7
 1510 01d6 F9        		.byte	-7
 1511 01d7 F9        		.byte	-7
 1512 01d8 FA        		.byte	-6
 1513 01d9 FA        		.byte	-6
 1514 01da FA        		.byte	-6
 1515 01db FA        		.byte	-6
 1516 01dc FB        		.byte	-5
 1517 01dd FB        		.byte	-5
 1518 01de FA        		.byte	-6
 1519 01df FA        		.byte	-6
 1520 01e0 FB        		.byte	-5
 1521 01e1 FB        		.byte	-5
 1522 01e2 FB        		.byte	-5
 1523 01e3 FB        		.byte	-5
 1524 01e4 FC        		.byte	-4
 1525 01e5 FB        		.byte	-5
 1526 01e6 FB        		.byte	-5
 1527 01e7 FB        		.byte	-5
 1528 01e8 FC        		.byte	-4
 1529 01e9 FC        		.byte	-4
 1530 01ea FB        		.byte	-5
 1531 01eb FC        		.byte	-4
 1532 01ec FC        		.byte	-4
 1533 01ed FC        		.byte	-4
 1534 01ee FB        		.byte	-5
 1535 01ef FB        		.byte	-5
 1536 01f0 FC        		.byte	-4
 1537 01f1 FB        		.byte	-5
 1538 01f2 FC        		.byte	-4
 1539 01f3 FC        		.byte	-4
 1540 01f4 FC        		.byte	-4
 1541 01f5 FC        		.byte	-4
 1542 01f6 FC        		.byte	-4
 1543 01f7 FC        		.byte	-4
 1544 01f8 FC        		.byte	-4
GAS LISTING /tmp/ccLsnRQw.s 			page 30


 1545 01f9 FC        		.byte	-4
 1546 01fa FC        		.byte	-4
 1547 01fb FC        		.byte	-4
 1548 01fc FC        		.byte	-4
 1549 01fd FC        		.byte	-4
 1550 01fe FC        		.byte	-4
 1551 01ff FC        		.byte	-4
 1552 0200 FC        		.byte	-4
 1553 0201 FC        		.byte	-4
 1554 0202 FD        		.byte	-3
 1555 0203 FD        		.byte	-3
 1556 0204 FD        		.byte	-3
 1557 0205 FE        		.byte	-2
 1558 0206 FE        		.byte	-2
 1559 0207 FE        		.byte	-2
 1560 0208 FF        		.byte	-1
 1561 0209 FF        		.byte	-1
 1562 020a 00        		.byte	0
 1563 020b 00        		.byte	0
 1564 020c 01        		.byte	1
 1565 020d 02        		.byte	2
 1566 020e 02        		.byte	2
 1567 020f 02        		.byte	2
 1568 0210 03        		.byte	3
 1569 0211 04        		.byte	4
 1570 0212 05        		.byte	5
 1571 0213 05        		.byte	5
 1572 0214 06        		.byte	6
 1573 0215 07        		.byte	7
 1574 0216 07        		.byte	7
 1575 0217 08        		.byte	8
 1576 0218 09        		.byte	9
 1577 0219 09        		.byte	9
 1578 021a 0A        		.byte	10
 1579 021b 0B        		.byte	11
 1580 021c 0C        		.byte	12
 1581 021d 0D        		.byte	13
 1582 021e 0D        		.byte	13
 1583 021f 0E        		.byte	14
 1584 0220 0F        		.byte	15
 1585 0221 10        		.byte	16
 1586 0222 10        		.byte	16
 1587 0223 11        		.byte	17
 1588 0224 12        		.byte	18
 1589 0225 11        		.byte	17
 1590 0226 10        		.byte	16
 1591 0227 0F        		.byte	15
 1592 0228 10        		.byte	16
 1593 0229 0F        		.byte	15
 1594 022a 0F        		.byte	15
 1595 022b 10        		.byte	16
 1596 022c 10        		.byte	16
 1597 022d 0F        		.byte	15
 1598 022e 0D        		.byte	13
 1599 022f 0C        		.byte	12
 1600 0230 0B        		.byte	11
 1601 0231 0A        		.byte	10
GAS LISTING /tmp/ccLsnRQw.s 			page 31


 1602 0232 0A        		.byte	10
 1603 0233 0A        		.byte	10
 1604 0234 09        		.byte	9
 1605 0235 08        		.byte	8
 1606 0236 06        		.byte	6
 1607 0237 04        		.byte	4
 1608 0238 03        		.byte	3
 1609 0239 02        		.byte	2
 1610 023a 02        		.byte	2
 1611 023b 02        		.byte	2
 1612 023c 01        		.byte	1
 1613 023d FF        		.byte	-1
 1614 023e FE        		.byte	-2
 1615 023f FD        		.byte	-3
 1616 0240 FC        		.byte	-4
 1617 0241 FB        		.byte	-5
 1618 0242 FB        		.byte	-5
 1619 0243 FA        		.byte	-6
 1620 0244 FA        		.byte	-6
 1621 0245 F9        		.byte	-7
 1622 0246 F9        		.byte	-7
 1623 0247 F8        		.byte	-8
 1624 0248 F7        		.byte	-9
 1625 0249 F7        		.byte	-9
 1626 024a F7        		.byte	-9
 1627 024b F7        		.byte	-9
 1628 024c F7        		.byte	-9
 1629 024d F7        		.byte	-9
 1630 024e F7        		.byte	-9
 1631 024f F6        		.byte	-10
 1632 0250 F5        		.byte	-11
 1633 0251 F5        		.byte	-11
 1634 0252 F5        		.byte	-11
 1635 0253 F6        		.byte	-10
 1636 0254 F6        		.byte	-10
 1637 0255 F7        		.byte	-9
 1638 0256 F7        		.byte	-9
 1639 0257 F7        		.byte	-9
 1640 0258 F7        		.byte	-9
 1641 0259 F7        		.byte	-9
 1642 025a F7        		.byte	-9
 1643 025b F7        		.byte	-9
 1644 025c F7        		.byte	-9
 1645 025d F8        		.byte	-8
 1646 025e F8        		.byte	-8
 1647 025f F8        		.byte	-8
 1648 0260 F8        		.byte	-8
 1649 0261 F8        		.byte	-8
 1650 0262 F8        		.byte	-8
 1651 0263 F9        		.byte	-7
 1652 0264 F9        		.byte	-7
 1653 0265 FA        		.byte	-6
 1654 0266 FA        		.byte	-6
 1655 0267 FA        		.byte	-6
 1656 0268 FA        		.byte	-6
 1657 0269 FA        		.byte	-6
 1658 026a FA        		.byte	-6
GAS LISTING /tmp/ccLsnRQw.s 			page 32


 1659 026b FA        		.byte	-6
 1660 026c FB        		.byte	-5
 1661 026d FB        		.byte	-5
 1662 026e FB        		.byte	-5
 1663 026f FC        		.byte	-4
 1664 0270 FC        		.byte	-4
 1665 0271 FB        		.byte	-5
 1666 0272 FC        		.byte	-4
 1667 0273 FC        		.byte	-4
 1668 0274 FC        		.byte	-4
 1669 0275 FC        		.byte	-4
 1670 0276 FC        		.byte	-4
 1671 0277 FC        		.byte	-4
 1672 0278 FC        		.byte	-4
 1673 0279 FC        		.byte	-4
 1674 027a FC        		.byte	-4
 1675 027b FC        		.byte	-4
 1676 027c FC        		.byte	-4
 1677 027d FC        		.byte	-4
 1678 027e FC        		.byte	-4
 1679 027f FC        		.byte	-4
 1680 0280 FC        		.byte	-4
 1681 0281 FC        		.byte	-4
 1682 0282 FC        		.byte	-4
 1683 0283 FC        		.byte	-4
 1684 0284 FC        		.byte	-4
 1685 0285 FC        		.byte	-4
 1686 0286 FC        		.byte	-4
 1687 0287 FC        		.byte	-4
 1688 0288 FC        		.byte	-4
 1689 0289 FC        		.byte	-4
 1690 028a FC        		.byte	-4
 1691 028b FC        		.byte	-4
 1692 028c FC        		.byte	-4
 1693 028d FC        		.byte	-4
 1694 028e FC        		.byte	-4
 1695 028f FC        		.byte	-4
 1696 0290 FC        		.byte	-4
 1697 0291 FD        		.byte	-3
 1698 0292 FD        		.byte	-3
 1699 0293 FD        		.byte	-3
 1700 0294 FD        		.byte	-3
 1701 0295 FE        		.byte	-2
 1702 0296 FE        		.byte	-2
 1703 0297 FE        		.byte	-2
 1704 0298 FF        		.byte	-1
 1705 0299 00        		.byte	0
 1706 029a 00        		.byte	0
 1707 029b 00        		.byte	0
 1708 029c 01        		.byte	1
 1709 029d 01        		.byte	1
 1710 029e 02        		.byte	2
 1711 029f 03        		.byte	3
 1712 02a0 04        		.byte	4
 1713 02a1 04        		.byte	4
 1714 02a2 05        		.byte	5
 1715 02a3 05        		.byte	5
GAS LISTING /tmp/ccLsnRQw.s 			page 33


 1716 02a4 06        		.byte	6
 1717 02a5 07        		.byte	7
 1718 02a6 07        		.byte	7
 1719 02a7 08        		.byte	8
 1720 02a8 09        		.byte	9
 1721 02a9 0A        		.byte	10
 1722 02aa 0A        		.byte	10
 1723 02ab 0B        		.byte	11
 1724 02ac 0C        		.byte	12
 1725 02ad 0D        		.byte	13
 1726 02ae 0D        		.byte	13
 1727 02af 0E        		.byte	14
 1728 02b0 0F        		.byte	15
 1729 02b1 0F        		.byte	15
 1730 02b2 10        		.byte	16
 1731 02b3 11        		.byte	17
 1732 02b4 12        		.byte	18
 1733 02b5 12        		.byte	18
 1734 02b6 13        		.byte	19
 1735 02b7 12        		.byte	18
 1736 02b8 11        		.byte	17
 1737 02b9 10        		.byte	16
 1738 02ba 10        		.byte	16
 1739 02bb 10        		.byte	16
 1740 02bc 10        		.byte	16
 1741 02bd 11        		.byte	17
 1742 02be 10        		.byte	16
 1743 02bf 0F        		.byte	15
 1744 02c0 0D        		.byte	13
 1745 02c1 0C        		.byte	12
 1746 02c2 0B        		.byte	11
 1747 02c3 0A        		.byte	10
 1748 02c4 0A        		.byte	10
 1749 02c5 09        		.byte	9
 1750 02c6 08        		.byte	8
 1751 02c7 07        		.byte	7
 1752 02c8 05        		.byte	5
 1753 02c9 03        		.byte	3
 1754 02ca 02        		.byte	2
 1755 02cb 01        		.byte	1
 1756 02cc 01        		.byte	1
 1757 02cd 00        		.byte	0
 1758 02ce FF        		.byte	-1
 1759 02cf FF        		.byte	-1
 1760 02d0 FE        		.byte	-2
 1761 02d1 FC        		.byte	-4
 1762 02d2 FB        		.byte	-5
 1763 02d3 FA        		.byte	-6
 1764 02d4 FA        		.byte	-6
 1765 02d5 F9        		.byte	-7
 1766 02d6 F9        		.byte	-7
 1767 02d7 F8        		.byte	-8
 1768 02d8 F8        		.byte	-8
 1769 02d9 F7        		.byte	-9
 1770 02da F6        		.byte	-10
 1771 02db F6        		.byte	-10
 1772 02dc F6        		.byte	-10
GAS LISTING /tmp/ccLsnRQw.s 			page 34


 1773 02dd F6        		.byte	-10
 1774 02de F6        		.byte	-10
 1775 02df F6        		.byte	-10
 1776 02e0 F6        		.byte	-10
 1777 02e1 F5        		.byte	-11
 1778 02e2 F5        		.byte	-11
 1779 02e3 F5        		.byte	-11
 1780 02e4 F4        		.byte	-12
 1781 02e5 F5        		.byte	-11
 1782 02e6 F5        		.byte	-11
 1783 02e7 F6        		.byte	-10
 1784 02e8 F6        		.byte	-10
 1785 02e9 F6        		.byte	-10
 1786 02ea F6        		.byte	-10
 1787 02eb F6        		.byte	-10
 1788 02ec F6        		.byte	-10
 1789 02ed F7        		.byte	-9
 1790 02ee F7        		.byte	-9
 1791 02ef F7        		.byte	-9
 1792 02f0 F8        		.byte	-8
 1793 02f1 F8        		.byte	-8
 1794 02f2 F8        		.byte	-8
 1795 02f3 F8        		.byte	-8
 1796 02f4 F8        		.byte	-8
 1797 02f5 F9        		.byte	-7
 1798 02f6 F9        		.byte	-7
 1799 02f7 F9        		.byte	-7
 1800 02f8 FA        		.byte	-6
 1801 02f9 FA        		.byte	-6
 1802 02fa FA        		.byte	-6
 1803 02fb FA        		.byte	-6
 1804 02fc FB        		.byte	-5
 1805 02fd FB        		.byte	-5
 1806 02fe FB        		.byte	-5
 1807 02ff FB        		.byte	-5
 1808 0300 FC        		.byte	-4
 1809 0301 FB        		.byte	-5
 1810 0302 FB        		.byte	-5
 1811 0303 FC        		.byte	-4
 1812 0304 FC        		.byte	-4
 1813 0305 FC        		.byte	-4
 1814 0306 FC        		.byte	-4
 1815 0307 FC        		.byte	-4
 1816 0308 FC        		.byte	-4
 1817 0309 FB        		.byte	-5
 1818 030a FB        		.byte	-5
 1819 030b FC        		.byte	-4
 1820 030c FC        		.byte	-4
 1821 030d FB        		.byte	-5
 1822 030e FB        		.byte	-5
 1823 030f FC        		.byte	-4
 1824 0310 FC        		.byte	-4
 1825 0311 FB        		.byte	-5
 1826 0312 FB        		.byte	-5
 1827 0313 FB        		.byte	-5
 1828 0314 FB        		.byte	-5
 1829 0315 FB        		.byte	-5
GAS LISTING /tmp/ccLsnRQw.s 			page 35


 1830 0316 FB        		.byte	-5
 1831 0317 FC        		.byte	-4
 1832 0318 FB        		.byte	-5
 1833 0319 FB        		.byte	-5
 1834 031a FB        		.byte	-5
 1835 031b FB        		.byte	-5
 1836 031c FB        		.byte	-5
 1837 031d FB        		.byte	-5
 1838 031e FC        		.byte	-4
 1839 031f FC        		.byte	-4
 1840 0320 FC        		.byte	-4
 1841 0321 FD        		.byte	-3
 1842 0322 FD        		.byte	-3
 1843 0323 FD        		.byte	-3
 1844 0324 FD        		.byte	-3
 1845 0325 FE        		.byte	-2
 1846 0326 FE        		.byte	-2
 1847 0327 FF        		.byte	-1
 1848 0328 FF        		.byte	-1
 1849 0329 00        		.byte	0
 1850 032a 01        		.byte	1
 1851 032b 01        		.byte	1
 1852 032c 01        		.byte	1
 1853 032d 02        		.byte	2
 1854 032e 03        		.byte	3
 1855 032f 03        		.byte	3
 1856 0330 04        		.byte	4
 1857 0331 05        		.byte	5
 1858 0332 05        		.byte	5
 1859 0333 06        		.byte	6
 1860 0334 06        		.byte	6
 1861 0335 07        		.byte	7
 1862 0336 07        		.byte	7
 1863 0337 08        		.byte	8
 1864 0338 09        		.byte	9
 1865 0339 0A        		.byte	10
 1866 033a 0B        		.byte	11
 1867 033b 0B        		.byte	11
 1868 033c 0C        		.byte	12
 1869 033d 0D        		.byte	13
 1870 033e 0D        		.byte	13
 1871 033f 0E        		.byte	14
 1872 0340 0F        		.byte	15
 1873 0341 10        		.byte	16
 1874 0342 10        		.byte	16
 1875 0343 11        		.byte	17
 1876 0344 12        		.byte	18
 1877 0345 12        		.byte	18
 1878 0346 13        		.byte	19
 1879 0347 13        		.byte	19
 1880 0348 12        		.byte	18
 1881 0349 11        		.byte	17
 1882 034a 11        		.byte	17
 1883 034b 11        		.byte	17
 1884 034c 10        		.byte	16
 1885 034d 10        		.byte	16
 1886 034e 11        		.byte	17
GAS LISTING /tmp/ccLsnRQw.s 			page 36


 1887 034f 10        		.byte	16
 1888 0350 0E        		.byte	14
 1889 0351 0D        		.byte	13
 1890 0352 0C        		.byte	12
 1891 0353 0A        		.byte	10
 1892 0354 0A        		.byte	10
 1893 0355 09        		.byte	9
 1894 0356 09        		.byte	9
 1895 0357 08        		.byte	8
 1896 0358 06        		.byte	6
 1897 0359 04        		.byte	4
 1898 035a 03        		.byte	3
 1899 035b 01        		.byte	1
 1900 035c 00        		.byte	0
 1901 035d 00        		.byte	0
 1902 035e 00        		.byte	0
 1903 035f FF        		.byte	-1
 1904 0360 FE        		.byte	-2
 1905 0361 FD        		.byte	-3
 1906 0362 FB        		.byte	-5
 1907 0363 FA        		.byte	-6
 1908 0364 FA        		.byte	-6
 1909 0365 F9        		.byte	-7
 1910 0366 F9        		.byte	-7
 1911 0367 F9        		.byte	-7
 1912 0368 F8        		.byte	-8
 1913 0369 F7        		.byte	-9
 1914 036a F7        		.byte	-9
 1915 036b F6        		.byte	-10
 1916 036c F5        		.byte	-11
 1917 036d F5        		.byte	-11
 1918 036e F5        		.byte	-11
 1919 036f F6        		.byte	-10
 1920 0370 F6        		.byte	-10
 1921 0371 F6        		.byte	-10
 1922 0372 F5        		.byte	-11
 1923 0373 F4        		.byte	-12
 1924 0374 F4        		.byte	-12
 1925 0375 F4        		.byte	-12
 1926 0376 F5        		.byte	-11
 1927 0377 F5        		.byte	-11
 1928 0378 F5        		.byte	-11
 1929 0379 F5        		.byte	-11
 1930 037a F6        		.byte	-10
 1931 037b F6        		.byte	-10
 1932 037c F6        		.byte	-10
 1933 037d F6        		.byte	-10
 1934 037e F6        		.byte	-10
 1935 037f F7        		.byte	-9
 1936 0380 F7        		.byte	-9
 1937 0381 F7        		.byte	-9
 1938 0382 F8        		.byte	-8
 1939 0383 F8        		.byte	-8
 1940 0384 F8        		.byte	-8
 1941 0385 F8        		.byte	-8
 1942 0386 F8        		.byte	-8
 1943 0387 F9        		.byte	-7
GAS LISTING /tmp/ccLsnRQw.s 			page 37


 1944 0388 FA        		.byte	-6
 1945 0389 FA        		.byte	-6
 1946 038a FB        		.byte	-5
 1947 038b FB        		.byte	-5
 1948 038c FB        		.byte	-5
 1949 038d FB        		.byte	-5
 1950 038e FB        		.byte	-5
 1951 038f FB        		.byte	-5
 1952 0390 FC        		.byte	-4
 1953 0391 FC        		.byte	-4
 1954 0392 FC        		.byte	-4
 1955 0393 FC        		.byte	-4
 1956 0394 FB        		.byte	-5
 1957 0395 FB        		.byte	-5
 1958 0396 FB        		.byte	-5
 1959 0397 FB        		.byte	-5
 1960 0398 FB        		.byte	-5
 1961 0399 FB        		.byte	-5
 1962 039a FB        		.byte	-5
 1963 039b FB        		.byte	-5
 1964 039c FB        		.byte	-5
 1965 039d FB        		.byte	-5
 1966 039e FA        		.byte	-6
 1967 039f FA        		.byte	-6
 1968 03a0 FB        		.byte	-5
 1969 03a1 FB        		.byte	-5
 1970 03a2 FA        		.byte	-6
 1971 03a3 FA        		.byte	-6
 1972 03a4 FA        		.byte	-6
 1973 03a5 FA        		.byte	-6
 1974 03a6 FA        		.byte	-6
 1975 03a7 FA        		.byte	-6
 1976 03a8 FA        		.byte	-6
 1977 03a9 FA        		.byte	-6
 1978 03aa FA        		.byte	-6
 1979 03ab FA        		.byte	-6
 1980 03ac FA        		.byte	-6
 1981 03ad FA        		.byte	-6
 1982 03ae FB        		.byte	-5
 1983 03af FB        		.byte	-5
 1984 03b0 FC        		.byte	-4
 1985 03b1 FC        		.byte	-4
 1986 03b2 FD        		.byte	-3
 1987 03b3 FD        		.byte	-3
 1988 03b4 FD        		.byte	-3
 1989 03b5 FE        		.byte	-2
 1990 03b6 FE        		.byte	-2
 1991 03b7 FF        		.byte	-1
 1992 03b8 FF        		.byte	-1
 1993 03b9 00        		.byte	0
 1994 03ba 00        		.byte	0
 1995 03bb 01        		.byte	1
 1996 03bc 01        		.byte	1
 1997 03bd 02        		.byte	2
 1998 03be 03        		.byte	3
 1999 03bf 04        		.byte	4
 2000 03c0 04        		.byte	4
GAS LISTING /tmp/ccLsnRQw.s 			page 38


 2001 03c1 04        		.byte	4
 2002 03c2 05        		.byte	5
 2003 03c3 06        		.byte	6
 2004 03c4 06        		.byte	6
 2005 03c5 07        		.byte	7
 2006 03c6 07        		.byte	7
 2007 03c7 08        		.byte	8
 2008 03c8 09        		.byte	9
 2009 03c9 09        		.byte	9
 2010 03ca 0A        		.byte	10
 2011 03cb 0B        		.byte	11
 2012 03cc 0C        		.byte	12
 2013 03cd 0C        		.byte	12
 2014 03ce 0D        		.byte	13
 2015 03cf 0E        		.byte	14
 2016 03d0 0F        		.byte	15
 2017 03d1 0F        		.byte	15
 2018 03d2 10        		.byte	16
 2019 03d3 10        		.byte	16
 2020 03d4 11        		.byte	17
 2021 03d5 11        		.byte	17
 2022 03d6 12        		.byte	18
 2023 03d7 14        		.byte	20
 2024 03d8 14        		.byte	20
 2025 03d9 13        		.byte	19
 2026 03da 11        		.byte	17
 2027 03db 11        		.byte	17
 2028 03dc 11        		.byte	17
 2029 03dd 10        		.byte	16
 2030 03de 10        		.byte	16
 2031 03df 11        		.byte	17
 2032 03e0 11        		.byte	17
 2033 03e1 10        		.byte	16
 2034 03e2 0E        		.byte	14
 2035 03e3 0C        		.byte	12
 2036 03e4 0B        		.byte	11
 2037 03e5 0A        		.byte	10
 2038 03e6 09        		.byte	9
 2039 03e7 09        		.byte	9
 2040 03e8 09        		.byte	9
 2041 03e9 07        		.byte	7
 2042 03ea 05        		.byte	5
 2043 03eb 03        		.byte	3
 2044 03ec 01        		.byte	1
 2045 03ed 00        		.byte	0
 2046 03ee 00        		.byte	0
 2047 03ef 00        		.byte	0
 2048 03f0 FF        		.byte	-1
 2049 03f1 FE        		.byte	-2
 2050 03f2 FD        		.byte	-3
 2051 03f3 FB        		.byte	-5
 2052 03f4 FA        		.byte	-6
 2053 03f5 F9        		.byte	-7
 2054 03f6 F8        		.byte	-8
 2055 03f7 F8        		.byte	-8
 2056 03f8 F8        		.byte	-8
 2057 03f9 F7        		.byte	-9
GAS LISTING /tmp/ccLsnRQw.s 			page 39


 2058 03fa F7        		.byte	-9
 2059 03fb F6        		.byte	-10
 2060 03fc F5        		.byte	-11
 2061 03fd F4        		.byte	-12
 2062 03fe F4        		.byte	-12
 2063 03ff F5        		.byte	-11
 2064 0400 F5        		.byte	-11
 2065 0401 F5        		.byte	-11
 2066 0402 F5        		.byte	-11
 2067 0403 F5        		.byte	-11
 2068 0404 F4        		.byte	-12
 2069 0405 F3        		.byte	-13
 2070 0406 F3        		.byte	-13
 2071 0407 F4        		.byte	-12
 2072 0408 F4        		.byte	-12
 2073 0409 F5        		.byte	-11
 2074 040a F5        		.byte	-11
 2075 040b F6        		.byte	-10
 2076 040c F5        		.byte	-11
 2077 040d F5        		.byte	-11
 2078 040e F5        		.byte	-11
 2079 040f F5        		.byte	-11
 2080 0410 F6        		.byte	-10
 2081 0411 F7        		.byte	-9
 2082 0412 F8        		.byte	-8
 2083 0413 F8        		.byte	-8
 2084 0414 F8        		.byte	-8
 2085 0415 F7        		.byte	-9
 2086 0416 F8        		.byte	-8
 2087 0417 F8        		.byte	-8
 2088 0418 F9        		.byte	-7
 2089 0419 FA        		.byte	-6
 2090 041a FB        		.byte	-5
 2091 041b FB        		.byte	-5
 2092 041c FB        		.byte	-5
 2093 041d FB        		.byte	-5
 2094 041e FB        		.byte	-5
 2095 041f FC        		.byte	-4
 2096 0420 FC        		.byte	-4
 2097 0421 FC        		.byte	-4
 2098 0422 FC        		.byte	-4
 2099 0423 FD        		.byte	-3
 2100 0424 FD        		.byte	-3
 2101 0425 FC        		.byte	-4
 2102 0426 FC        		.byte	-4
 2103 0427 FC        		.byte	-4
 2104 0428 FD        		.byte	-3
 2105 0429 FD        		.byte	-3
 2106 042a FD        		.byte	-3
 2107 042b FC        		.byte	-4
 2108 042c FC        		.byte	-4
 2109 042d FC        		.byte	-4
 2110 042e FB        		.byte	-5
 2111 042f FB        		.byte	-5
 2112 0430 FB        		.byte	-5
 2113 0431 FC        		.byte	-4
 2114 0432 FC        		.byte	-4
GAS LISTING /tmp/ccLsnRQw.s 			page 40


 2115 0433 FB        		.byte	-5
 2116 0434 FB        		.byte	-5
 2117 0435 FB        		.byte	-5
 2118 0436 FA        		.byte	-6
 2119 0437 FA        		.byte	-6
 2120 0438 FA        		.byte	-6
 2121 0439 FB        		.byte	-5
 2122 043a FB        		.byte	-5
 2123 043b FA        		.byte	-6
 2124 043c F9        		.byte	-7
 2125 043d F9        		.byte	-7
 2126 043e FA        		.byte	-6
 2127 043f FA        		.byte	-6
 2128 0440 FA        		.byte	-6
 2129 0441 FB        		.byte	-5
 2130 0442 FC        		.byte	-4
 2131 0443 FB        		.byte	-5
 2132 0444 FB        		.byte	-5
 2133 0445 FC        		.byte	-4
 2134 0446 FC        		.byte	-4
 2135 0447 FC        		.byte	-4
 2136 0448 FD        		.byte	-3
 2137 0449 FE        		.byte	-2
 2138 044a FF        		.byte	-1
 2139 044b FF        		.byte	-1
 2140 044c FF        		.byte	-1
 2141 044d 00        		.byte	0
 2142 044e 00        		.byte	0
 2143 044f 00        		.byte	0
 2144 0450 02        		.byte	2
 2145 0451 03        		.byte	3
 2146 0452 03        		.byte	3
 2147 0453 03        		.byte	3
 2148 0454 03        		.byte	3
 2149 0455 04        		.byte	4
 2150 0456 05        		.byte	5
 2151 0457 05        		.byte	5
 2152 0458 06        		.byte	6
 2153 0459 07        		.byte	7
 2154 045a 07        		.byte	7
 2155 045b 08        		.byte	8
 2156 045c 09        		.byte	9
 2157 045d 09        		.byte	9
 2158 045e 0A        		.byte	10
 2159 045f 0B        		.byte	11
 2160 0460 0B        		.byte	11
 2161 0461 0C        		.byte	12
 2162 0462 0D        		.byte	13
 2163 0463 0E        		.byte	14
 2164 0464 0E        		.byte	14
 2165 0465 0F        		.byte	15
 2166 0466 0F        		.byte	15
 2167 0467 11        		.byte	17
 2168 0468 11        		.byte	17
 2169 0469 12        		.byte	18
 2170 046a 13        		.byte	19
 2171 046b 14        		.byte	20
GAS LISTING /tmp/ccLsnRQw.s 			page 41


 2172 046c 14        		.byte	20
 2173 046d 13        		.byte	19
 2174 046e 12        		.byte	18
 2175 046f 11        		.byte	17
 2176 0470 11        		.byte	17
 2177 0471 10        		.byte	16
 2178 0472 11        		.byte	17
 2179 0473 12        		.byte	18
 2180 0474 11        		.byte	17
 2181 0475 10        		.byte	16
 2182 0476 0E        		.byte	14
 2183 0477 0C        		.byte	12
 2184 0478 0B        		.byte	11
 2185 0479 0A        		.byte	10
 2186 047a 0A        		.byte	10
 2187 047b 0A        		.byte	10
 2188 047c 09        		.byte	9
 2189 047d 07        		.byte	7
 2190 047e 05        		.byte	5
 2191 047f 03        		.byte	3
 2192 0480 01        		.byte	1
 2193 0481 00        		.byte	0
 2194 0482 00        		.byte	0
 2195 0483 00        		.byte	0
 2196 0484 FF        		.byte	-1
 2197 0485 FD        		.byte	-3
 2198 0486 FD        		.byte	-3
 2199 0487 FB        		.byte	-5
 2200 0488 FA        		.byte	-6
 2201 0489 F9        		.byte	-7
 2202 048a F9        		.byte	-7
 2203 048b F8        		.byte	-8
 2204 048c F7        		.byte	-9
 2205 048d F7        		.byte	-9
 2206 048e F7        		.byte	-9
 2207 048f F6        		.byte	-10
 2208 0490 F5        		.byte	-11
 2209 0491 F4        		.byte	-12
 2210 0492 F5        		.byte	-11
 2211 0493 F5        		.byte	-11
 2212 0494 F5        		.byte	-11
 2213 0495 F5        		.byte	-11
 2214 0496 F5        		.byte	-11
 2215 0497 F5        		.byte	-11
 2216 0498 F4        		.byte	-12
 2217 0499 F4        		.byte	-12
 2218 049a F4        		.byte	-12
 2219 049b F4        		.byte	-12
 2220 049c F3        		.byte	-13
 2221 049d F4        		.byte	-12
 2222 049e F5        		.byte	-11
 2223 049f F6        		.byte	-10
 2224 04a0 F5        		.byte	-11
 2225 04a1 F5        		.byte	-11
 2226 04a2 F6        		.byte	-10
 2227 04a3 F6        		.byte	-10
 2228 04a4 F6        		.byte	-10
GAS LISTING /tmp/ccLsnRQw.s 			page 42


 2229 04a5 F7        		.byte	-9
 2230 04a6 F8        		.byte	-8
 2231 04a7 F8        		.byte	-8
 2232 04a8 F8        		.byte	-8
 2233 04a9 F8        		.byte	-8
 2234 04aa F8        		.byte	-8
 2235 04ab F9        		.byte	-7
 2236 04ac F9        		.byte	-7
 2237 04ad FA        		.byte	-6
 2238 04ae FB        		.byte	-5
 2239 04af FC        		.byte	-4
 2240 04b0 FC        		.byte	-4
 2241 04b1 FC        		.byte	-4
 2242 04b2 FC        		.byte	-4
 2243 04b3 FC        		.byte	-4
 2244 04b4 FC        		.byte	-4
 2245 04b5 FD        		.byte	-3
 2246 04b6 FD        		.byte	-3
 2247 04b7 FD        		.byte	-3
 2248 04b8 FD        		.byte	-3
 2249 04b9 FD        		.byte	-3
 2250 04ba FD        		.byte	-3
 2251 04bb FC        		.byte	-4
 2252 04bc FD        		.byte	-3
 2253 04bd FD        		.byte	-3
 2254 04be FD        		.byte	-3
 2255 04bf FD        		.byte	-3
 2256 04c0 FD        		.byte	-3
 2257 04c1 FD        		.byte	-3
 2258 04c2 FC        		.byte	-4
 2259 04c3 FB        		.byte	-5
 2260 04c4 FB        		.byte	-5
 2261 04c5 FC        		.byte	-4
 2262 04c6 FB        		.byte	-5
 2263 04c7 FB        		.byte	-5
 2264 04c8 FB        		.byte	-5
 2265 04c9 FB        		.byte	-5
 2266 04ca FA        		.byte	-6
 2267 04cb FA        		.byte	-6
 2268 04cc FA        		.byte	-6
 2269 04cd FA        		.byte	-6
 2270 04ce FA        		.byte	-6
 2271 04cf FA        		.byte	-6
 2272 04d0 FA        		.byte	-6
 2273 04d1 FA        		.byte	-6
 2274 04d2 FA        		.byte	-6
 2275 04d3 F9        		.byte	-7
 2276 04d4 F9        		.byte	-7
 2277 04d5 FA        		.byte	-6
 2278 04d6 FA        		.byte	-6
 2279 04d7 FA        		.byte	-6
 2280 04d8 FA        		.byte	-6
 2281 04d9 FB        		.byte	-5
 2282 04da FB        		.byte	-5
 2283 04db FB        		.byte	-5
 2284 04dc FC        		.byte	-4
 2285 04dd FD        		.byte	-3
GAS LISTING /tmp/ccLsnRQw.s 			page 43


 2286 04de FD        		.byte	-3
 2287 04df FD        		.byte	-3
 2288 04e0 FE        		.byte	-2
 2289 04e1 FE        		.byte	-2
 2290 04e2 FF        		.byte	-1
 2291 04e3 FF        		.byte	-1
 2292 04e4 FF        		.byte	-1
 2293 04e5 01        		.byte	1
 2294 04e6 02        		.byte	2
 2295 04e7 02        		.byte	2
 2296 04e8 03        		.byte	3
 2297 04e9 03        		.byte	3
 2298 04ea 04        		.byte	4
 2299 04eb 05        		.byte	5
 2300 04ec 05        		.byte	5
 2301 04ed 06        		.byte	6
 2302 04ee 07        		.byte	7
 2303 04ef 08        		.byte	8
 2304 04f0 08        		.byte	8
 2305 04f1 09        		.byte	9
 2306 04f2 0A        		.byte	10
 2307 04f3 0A        		.byte	10
 2308 04f4 0B        		.byte	11
 2309 04f5 0B        		.byte	11
 2310 04f6 0D        		.byte	13
 2311 04f7 0E        		.byte	14
 2312 04f8 0E        		.byte	14
 2313 04f9 0F        		.byte	15
 2314 04fa 0F        		.byte	15
 2315 04fb 10        		.byte	16
 2316 04fc 11        		.byte	17
 2317 04fd 12        		.byte	18
 2318 04fe 13        		.byte	19
 2319 04ff 14        		.byte	20
 2320 0500 14        		.byte	20
 2321 0501 15        		.byte	21
 2322 0502 14        		.byte	20
 2323 0503 14        		.byte	20
 2324 0504 12        		.byte	18
 2325 0505 12        		.byte	18
 2326 0506 11        		.byte	17
 2327 0507 11        		.byte	17
 2328 0508 12        		.byte	18
 2329 0509 12        		.byte	18
 2330 050a 12        		.byte	18
 2331 050b 10        		.byte	16
 2332 050c 0E        		.byte	14
 2333 050d 0C        		.byte	12
 2334 050e 0B        		.byte	11
 2335 050f 0A        		.byte	10
 2336 0510 0B        		.byte	11
 2337 0511 0A        		.byte	10
 2338 0512 08        		.byte	8
 2339 0513 06        		.byte	6
 2340 0514 05        		.byte	5
 2341 0515 03        		.byte	3
 2342 0516 01        		.byte	1
GAS LISTING /tmp/ccLsnRQw.s 			page 44


 2343 0517 FF        		.byte	-1
 2344 0518 FF        		.byte	-1
 2345 0519 FE        		.byte	-2
 2346 051a FD        		.byte	-3
 2347 051b FD        		.byte	-3
 2348 051c FC        		.byte	-4
 2349 051d FA        		.byte	-6
 2350 051e F8        		.byte	-8
 2351 051f F8        		.byte	-8
 2352 0520 F7        		.byte	-9
 2353 0521 F7        		.byte	-9
 2354 0522 F6        		.byte	-10
 2355 0523 F6        		.byte	-10
 2356 0524 F6        		.byte	-10
 2357 0525 F5        		.byte	-11
 2358 0526 F4        		.byte	-12
 2359 0527 F3        		.byte	-13
 2360 0528 F3        		.byte	-13
 2361 0529 F3        		.byte	-13
 2362 052a F4        		.byte	-12
 2363 052b F4        		.byte	-12
 2364 052c F5        		.byte	-11
 2365 052d F4        		.byte	-12
 2366 052e F3        		.byte	-13
 2367 052f F3        		.byte	-13
 2368 0530 F3        		.byte	-13
 2369 0531 F3        		.byte	-13
 2370 0532 F3        		.byte	-13
 2371 0533 F4        		.byte	-12
 2372 0534 F5        		.byte	-11
 2373 0535 F6        		.byte	-10
 2374 0536 F5        		.byte	-11
 2375 0537 F5        		.byte	-11
 2376 0538 F5        		.byte	-11
 2377 0539 F6        		.byte	-10
 2378 053a F6        		.byte	-10
 2379 053b F7        		.byte	-9
 2380 053c F8        		.byte	-8
 2381 053d F9        		.byte	-7
 2382 053e F8        		.byte	-8
 2383 053f F8        		.byte	-8
 2384 0540 F9        		.byte	-7
 2385 0541 F9        		.byte	-7
 2386 0542 F9        		.byte	-7
 2387 0543 FA        		.byte	-6
 2388 0544 FB        		.byte	-5
 2389 0545 FC        		.byte	-4
 2390 0546 FD        		.byte	-3
 2391 0547 FD        		.byte	-3
 2392 0548 FD        		.byte	-3
 2393 0549 FD        		.byte	-3
 2394 054a FD        		.byte	-3
 2395 054b FE        		.byte	-2
 2396 054c FF        		.byte	-1
 2397 054d FF        		.byte	-1
 2398 054e FE        		.byte	-2
 2399 054f FE        		.byte	-2
GAS LISTING /tmp/ccLsnRQw.s 			page 45


 2400 0550 FE        		.byte	-2
 2401 0551 FE        		.byte	-2
 2402 0552 FE        		.byte	-2
 2403 0553 FE        		.byte	-2
 2404 0554 FF        		.byte	-1
 2405 0555 FF        		.byte	-1
 2406 0556 FE        		.byte	-2
 2407 0557 FD        		.byte	-3
 2408 0558 FE        		.byte	-2
 2409 0559 FD        		.byte	-3
 2410 055a FC        		.byte	-4
 2411 055b FC        		.byte	-4
 2412 055c FC        		.byte	-4
 2413 055d FC        		.byte	-4
 2414 055e FB        		.byte	-5
 2415 055f FB        		.byte	-5
 2416 0560 FB        		.byte	-5
 2417 0561 FA        		.byte	-6
 2418 0562 FA        		.byte	-6
 2419 0563 F9        		.byte	-7
 2420 0564 FA        		.byte	-6
 2421 0565 FA        		.byte	-6
 2422 0566 F9        		.byte	-7
 2423 0567 F9        		.byte	-7
 2424 0568 F8        		.byte	-8
 2425 0569 F8        		.byte	-8
 2426 056a F8        		.byte	-8
 2427 056b F9        		.byte	-7
 2428 056c F9        		.byte	-7
 2429 056d F8        		.byte	-8
 2430 056e F9        		.byte	-7
 2431 056f F9        		.byte	-7
 2432 0570 FA        		.byte	-6
 2433 0571 FA        		.byte	-6
 2434 0572 FB        		.byte	-5
 2435 0573 FB        		.byte	-5
 2436 0574 FB        		.byte	-5
 2437 0575 FC        		.byte	-4
 2438 0576 FD        		.byte	-3
 2439 0577 FD        		.byte	-3
 2440 0578 FD        		.byte	-3
 2441 0579 FE        		.byte	-2
 2442 057a FF        		.byte	-1
 2443 057b FF        		.byte	-1
 2444 057c 00        		.byte	0
 2445 057d 01        		.byte	1
 2446 057e 02        		.byte	2
 2447 057f 02        		.byte	2
 2448 0580 03        		.byte	3
 2449 0581 03        		.byte	3
 2450 0582 04        		.byte	4
 2451 0583 05        		.byte	5
 2452 0584 05        		.byte	5
 2453 0585 07        		.byte	7
 2454 0586 08        		.byte	8
 2455 0587 08        		.byte	8
 2456 0588 09        		.byte	9
GAS LISTING /tmp/ccLsnRQw.s 			page 46


 2457 0589 0A        		.byte	10
 2458 058a 0A        		.byte	10
 2459 058b 0B        		.byte	11
 2460 058c 0C        		.byte	12
 2461 058d 0D        		.byte	13
 2462 058e 0E        		.byte	14
 2463 058f 0F        		.byte	15
 2464 0590 0F        		.byte	15
 2465 0591 10        		.byte	16
 2466 0592 12        		.byte	18
 2467 0593 13        		.byte	19
 2468 0594 14        		.byte	20
 2469 0595 15        		.byte	21
 2470 0596 16        		.byte	22
 2471 0597 17        		.byte	23
 2472 0598 17        		.byte	23
 2473 0599 16        		.byte	22
 2474 059a 14        		.byte	20
 2475 059b 13        		.byte	19
 2476 059c 13        		.byte	19
 2477 059d 13        		.byte	19
 2478 059e 13        		.byte	19
 2479 059f 14        		.byte	20
 2480 05a0 14        		.byte	20
 2481 05a1 12        		.byte	18
 2482 05a2 10        		.byte	16
 2483 05a3 0E        		.byte	14
 2484 05a4 0C        		.byte	12
 2485 05a5 0B        		.byte	11
 2486 05a6 0B        		.byte	11
 2487 05a7 0A        		.byte	10
 2488 05a8 09        		.byte	9
 2489 05a9 08        		.byte	8
 2490 05aa 06        		.byte	6
 2491 05ab 03        		.byte	3
 2492 05ac 01        		.byte	1
 2493 05ad FF        		.byte	-1
 2494 05ae FE        		.byte	-2
 2495 05af FE        		.byte	-2
 2496 05b0 FD        		.byte	-3
 2497 05b1 FC        		.byte	-4
 2498 05b2 FC        		.byte	-4
 2499 05b3 FB        		.byte	-5
 2500 05b4 F8        		.byte	-8
 2501 05b5 F7        		.byte	-9
 2502 05b6 F7        		.byte	-9
 2503 05b7 F6        		.byte	-10
 2504 05b8 F5        		.byte	-11
 2505 05b9 F4        		.byte	-12
 2506 05ba F4        		.byte	-12
 2507 05bb F4        		.byte	-12
 2508 05bc F2        		.byte	-14
 2509 05bd F1        		.byte	-15
 2510 05be F1        		.byte	-15
 2511 05bf F1        		.byte	-15
 2512 05c0 F2        		.byte	-14
 2513 05c1 F3        		.byte	-13
GAS LISTING /tmp/ccLsnRQw.s 			page 47


 2514 05c2 F4        		.byte	-12
 2515 05c3 F4        		.byte	-12
 2516 05c4 F2        		.byte	-14
 2517 05c5 F2        		.byte	-14
 2518 05c6 F1        		.byte	-15
 2519 05c7 F1        		.byte	-15
 2520 05c8 F0        		.byte	-16
 2521 05c9 F1        		.byte	-15
 2522 05ca F2        		.byte	-14
 2523 05cb F3        		.byte	-13
 2524 05cc F3        		.byte	-13
 2525 05cd F4        		.byte	-12
 2526 05ce F4        		.byte	-12
 2527 05cf F4        		.byte	-12
 2528 05d0 F5        		.byte	-11
 2529 05d1 F7        		.byte	-9
 2530 05d2 F9        		.byte	-7
 2531 05d3 FA        		.byte	-6
 2532 05d4 F9        		.byte	-7
 2533 05d5 F8        		.byte	-8
 2534 05d6 F7        		.byte	-9
 2535 05d7 F7        		.byte	-9
 2536 05d8 F6        		.byte	-10
 2537 05d9 F6        		.byte	-10
 2538 05da F7        		.byte	-9
 2539 05db FA        		.byte	-6
 2540 05dc FC        		.byte	-4
 2541 05dd FC        		.byte	-4
 2542 05de FD        		.byte	-3
 2543 05df FE        		.byte	-2
 2544 05e0 FF        		.byte	-1
 2545 05e1 00        		.byte	0
 2546 05e2 00        		.byte	0
 2547 05e3 00        		.byte	0
 2548 05e4 FF        		.byte	-1
 2549 05e5 FC        		.byte	-4
 2550 05e6 FB        		.byte	-5
 2551 05e7 F9        		.byte	-7
 2552 05e8 F7        		.byte	-9
 2553 05e9 F6        		.byte	-10
 2554 05ea F7        		.byte	-9
 2555 05eb F8        		.byte	-8
 2556 05ec F8        		.byte	-8
 2557 05ed F8        		.byte	-8
 2558 05ee F8        		.byte	-8
 2559 05ef F7        		.byte	-9
 2560 05f0 F6        		.byte	-10
 2561 05f1 F4        		.byte	-12
 2562 05f2 F3        		.byte	-13
 2563 05f3 F1        		.byte	-15
 2564 05f4 F0        		.byte	-16
 2565 05f5 EF        		.byte	-17
 2566 05f6 F0        		.byte	-16
 2567 05f7 F0        		.byte	-16
 2568 05f8 EF        		.byte	-17
 2569 05f9 EF        		.byte	-17
 2570 05fa F1        		.byte	-15
GAS LISTING /tmp/ccLsnRQw.s 			page 48


 2571 05fb F1        		.byte	-15
 2572 05fc F1        		.byte	-15
 2573 05fd F0        		.byte	-16
 2574 05fe EF        		.byte	-17
 2575 05ff EE        		.byte	-18
 2576 0600 ED        		.byte	-19
 2577 0601 EC        		.byte	-20
 2578 0602 EC        		.byte	-20
 2579 0603 EC        		.byte	-20
 2580 0604 EC        		.byte	-20
 2581 0605 EE        		.byte	-18
 2582 0606 F0        		.byte	-16
 2583 0607 F2        		.byte	-14
 2584 0608 F2        		.byte	-14
 2585 0609 F3        		.byte	-13
 2586 060a F4        		.byte	-12
 2587 060b F5        		.byte	-11
 2588 060c F5        		.byte	-11
 2589 060d F5        		.byte	-11
 2590 060e F6        		.byte	-10
 2591 060f F6        		.byte	-10
 2592 0610 F7        		.byte	-9
 2593 0611 F8        		.byte	-8
 2594 0612 FB        		.byte	-5
 2595 0613 FD        		.byte	-3
 2596 0614 FE        		.byte	-2
 2597 0615 01        		.byte	1
 2598 0616 03        		.byte	3
 2599 0617 05        		.byte	5
 2600 0618 06        		.byte	6
 2601 0619 06        		.byte	6
 2602 061a 08        		.byte	8
 2603 061b 0A        		.byte	10
 2604 061c 0C        		.byte	12
 2605 061d 0D        		.byte	13
 2606 061e 0F        		.byte	15
 2607 061f 12        		.byte	18
 2608 0620 15        		.byte	21
 2609 0621 19        		.byte	25
 2610 0622 1B        		.byte	27
 2611 0623 1E        		.byte	30
 2612 0624 20        		.byte	32
 2613 0625 23        		.byte	35
 2614 0626 26        		.byte	38
 2615 0627 29        		.byte	41
 2616 0628 2D        		.byte	45
 2617 0629 31        		.byte	49
 2618 062a 36        		.byte	54
 2619 062b 3D        		.byte	61
 2620 062c 42        		.byte	66
 2621 062d 3F        		.byte	63
 2622 062e 33        		.byte	51
 2623 062f 27        		.byte	39
 2624 0630 1A        		.byte	26
 2625 0631 0F        		.byte	15
 2626 0632 07        		.byte	7
 2627 0633 01        		.byte	1
GAS LISTING /tmp/ccLsnRQw.s 			page 49


 2628 0634 FC        		.byte	-4
 2629 0635 FA        		.byte	-6
 2630 0636 FC        		.byte	-4
 2631 0637 FA        		.byte	-6
 2632 0638 F4        		.byte	-12
 2633 0639 F0        		.byte	-16
 2634 063a EF        		.byte	-17
 2635 063b F0        		.byte	-16
 2636 063c F3        		.byte	-13
 2637 063d F3        		.byte	-13
 2638 063e ED        		.byte	-19
 2639 063f E9        		.byte	-23
 2640 0640 EA        		.byte	-22
 2641 0641 EF        		.byte	-17
 2642 0642 F5        		.byte	-11
 2643 0643 FF        		.byte	-1
 2644 0644 09        		.byte	9
 2645 0645 13        		.byte	19
 2646 0646 1C        		.byte	28
 2647 0647 1D        		.byte	29
 2648 0648 18        		.byte	24
 2649 0649 11        		.byte	17
 2650 064a 0C        		.byte	12
 2651 064b 0A        		.byte	10
 2652 064c 0A        		.byte	10
 2653 064d 08        		.byte	8
 2654 064e 03        		.byte	3
 2655 064f 01        		.byte	1
 2656 0650 02        		.byte	2
 2657 0651 01        		.byte	1
 2658 0652 FE        		.byte	-2
 2659 0653 FE        		.byte	-2
 2660 0654 FB        		.byte	-5
 2661 0655 F8        		.byte	-8
 2662 0656 F4        		.byte	-12
 2663 0657 EE        		.byte	-18
 2664 0658 E6        		.byte	-26
 2665 0659 E0        		.byte	-32
 2666 065a E0        		.byte	-32
 2667 065b E5        		.byte	-27
 2668 065c EE        		.byte	-18
 2669 065d F5        		.byte	-11
 2670 065e F9        		.byte	-7
 2671 065f FD        		.byte	-3
 2672 0660 02        		.byte	2
 2673 0661 02        		.byte	2
 2674 0662 FF        		.byte	-1
 2675 0663 FD        		.byte	-3
 2676 0664 FD        		.byte	-3
 2677 0665 FE        		.byte	-2
 2678 0666 01        		.byte	1
 2679 0667 02        		.byte	2
 2680 0668 01        		.byte	1
 2681 0669 03        		.byte	3
 2682 066a 07        		.byte	7
 2683 066b 0A        		.byte	10
 2684 066c 0D        		.byte	13
GAS LISTING /tmp/ccLsnRQw.s 			page 50


 2685 066d 0C        		.byte	12
 2686 066e 06        		.byte	6
 2687 066f 02        		.byte	2
 2688 0670 FE        		.byte	-2
 2689 0671 F8        		.byte	-8
 2690 0672 F3        		.byte	-13
 2691 0673 F3        		.byte	-13
 2692 0674 F6        		.byte	-10
 2693 0675 FB        		.byte	-5
 2694 0676 00        		.byte	0
 2695 0677 03        		.byte	3
 2696 0678 02        		.byte	2
 2697 0679 01        		.byte	1
 2698 067a 01        		.byte	1
 2699 067b FF        		.byte	-1
 2700 067c FD        		.byte	-3
 2701 067d FB        		.byte	-5
 2702 067e F9        		.byte	-7
 2703 067f F8        		.byte	-8
 2704 0680 F9        		.byte	-7
 2705 0681 F9        		.byte	-7
 2706 0682 F7        		.byte	-9
 2707 0683 F9        		.byte	-7
 2708 0684 FC        		.byte	-4
 2709 0685 FA        		.byte	-6
 2710 0686 F7        		.byte	-9
 2711 0687 F1        		.byte	-15
 2712 0688 EA        		.byte	-22
 2713 0689 E4        		.byte	-28
 2714 068a E2        		.byte	-30
 2715 068b E2        		.byte	-30
 2716 068c E4        		.byte	-28
 2717 068d E6        		.byte	-26
 2718 068e E9        		.byte	-23
 2719 068f ED        		.byte	-19
 2720 0690 EF        		.byte	-17
 2721 0691 ED        		.byte	-19
 2722 0692 EC        		.byte	-20
 2723 0693 EB        		.byte	-21
 2724 0694 EB        		.byte	-21
 2725 0695 EB        		.byte	-21
 2726 0696 EC        		.byte	-20
 2727 0697 ED        		.byte	-19
 2728 0698 ED        		.byte	-19
 2729 0699 F1        		.byte	-15
 2730 069a F5        		.byte	-11
 2731 069b F7        		.byte	-9
 2732 069c F8        		.byte	-8
 2733 069d F9        		.byte	-7
 2734 069e F8        		.byte	-8
 2735 069f F6        		.byte	-10
 2736 06a0 F5        		.byte	-11
 2737 06a1 F4        		.byte	-12
 2738 06a2 F5        		.byte	-11
 2739 06a3 F8        		.byte	-8
 2740 06a4 FC        		.byte	-4
 2741 06a5 00        		.byte	0
GAS LISTING /tmp/ccLsnRQw.s 			page 51


 2742 06a6 03        		.byte	3
 2743 06a7 06        		.byte	6
 2744 06a8 07        		.byte	7
 2745 06a9 09        		.byte	9
 2746 06aa 0B        		.byte	11
 2747 06ab 0B        		.byte	11
 2748 06ac 0E        		.byte	14
 2749 06ad 11        		.byte	17
 2750 06ae 14        		.byte	20
 2751 06af 18        		.byte	24
 2752 06b0 1B        		.byte	27
 2753 06b1 1E        		.byte	30
 2754 06b2 22        		.byte	34
 2755 06b3 27        		.byte	39
 2756 06b4 29        		.byte	41
 2757 06b5 2A        		.byte	42
 2758 06b6 2B        		.byte	43
 2759 06b7 2B        		.byte	43
 2760 06b8 2B        		.byte	43
 2761 06b9 2D        		.byte	45
 2762 06ba 2F        		.byte	47
 2763 06bb 31        		.byte	49
 2764 06bc 32        		.byte	50
 2765 06bd 34        		.byte	52
 2766 06be 37        		.byte	55
 2767 06bf 3A        		.byte	58
 2768 06c0 3D        		.byte	61
 2769 06c1 41        		.byte	65
 2770 06c2 44        		.byte	68
 2771 06c3 49        		.byte	73
 2772 06c4 47        		.byte	71
 2773 06c5 2E        		.byte	46
 2774 06c6 0A        		.byte	10
 2775 06c7 F8        		.byte	-8
 2776 06c8 F2        		.byte	-14
 2777 06c9 F1        		.byte	-15
 2778 06ca F3        		.byte	-13
 2779 06cb F5        		.byte	-11
 2780 06cc F2        		.byte	-14
 2781 06cd F1        		.byte	-15
 2782 06ce F4        		.byte	-12
 2783 06cf ED        		.byte	-19
 2784 06d0 E4        		.byte	-28
 2785 06d1 E8        		.byte	-24
 2786 06d2 EE        		.byte	-18
 2787 06d3 F0        		.byte	-16
 2788 06d4 F1        		.byte	-15
 2789 06d5 F3        		.byte	-13
 2790 06d6 F5        		.byte	-11
 2791 06d7 03        		.byte	3
 2792 06d8 14        		.byte	20
 2793 06d9 1A        		.byte	26
 2794 06da 18        		.byte	24
 2795 06db 15        		.byte	21
 2796 06dc 0C        		.byte	12
 2797 06dd 04        		.byte	4
 2798 06de FF        		.byte	-1
GAS LISTING /tmp/ccLsnRQw.s 			page 52


 2799 06df F4        		.byte	-12
 2800 06e0 EC        		.byte	-20
 2801 06e1 EF        		.byte	-17
 2802 06e2 F4        		.byte	-12
 2803 06e3 F1        		.byte	-15
 2804 06e4 ED        		.byte	-19
 2805 06e5 EA        		.byte	-22
 2806 06e6 E6        		.byte	-26
 2807 06e7 E6        		.byte	-26
 2808 06e8 E5        		.byte	-27
 2809 06e9 DC        		.byte	-36
 2810 06ea D9        		.byte	-39
 2811 06eb E0        		.byte	-32
 2812 06ec E5        		.byte	-27
 2813 06ed EA        		.byte	-22
 2814 06ee F4        		.byte	-12
 2815 06ef FC        		.byte	-4
 2816 06f0 02        		.byte	2
 2817 06f1 0A        		.byte	10
 2818 06f2 0B        		.byte	11
 2819 06f3 05        		.byte	5
 2820 06f4 03        		.byte	3
 2821 06f5 01        		.byte	1
 2822 06f6 FD        		.byte	-3
 2823 06f7 FC        		.byte	-4
 2824 06f8 FC        		.byte	-4
 2825 06f9 F9        		.byte	-7
 2826 06fa FA        		.byte	-6
 2827 06fb FD        		.byte	-3
 2828 06fc FA        		.byte	-6
 2829 06fd F4        		.byte	-12
 2830 06fe F0        		.byte	-16
 2831 06ff EB        		.byte	-21
 2832 0700 E7        		.byte	-25
 2833 0701 E7        		.byte	-25
 2834 0702 E6        		.byte	-26
 2835 0703 E7        		.byte	-25
 2836 0704 ED        		.byte	-19
 2837 0705 F4        		.byte	-12
 2838 0706 F8        		.byte	-8
 2839 0707 FE        		.byte	-2
 2840 0708 03        		.byte	3
 2841 0709 03        		.byte	3
 2842 070a 05        		.byte	5
 2843 070b 06        		.byte	6
 2844 070c 02        		.byte	2
 2845 070d FF        		.byte	-1
 2846 070e 01        		.byte	1
 2847 070f 01        		.byte	1
 2848 0710 01        		.byte	1
 2849 0711 01        		.byte	1
 2850 0712 00        		.byte	0
 2851 0713 FC        		.byte	-4
 2852 0714 F9        		.byte	-7
 2853 0715 F3        		.byte	-13
 2854 0716 ED        		.byte	-19
 2855 0717 E8        		.byte	-24
GAS LISTING /tmp/ccLsnRQw.s 			page 53


 2856 0718 E5        		.byte	-27
 2857 0719 E2        		.byte	-30
 2858 071a E2        		.byte	-30
 2859 071b E4        		.byte	-28
 2860 071c E4        		.byte	-28
 2861 071d E7        		.byte	-25
 2862 071e EC        		.byte	-20
 2863 071f EF        		.byte	-17
 2864 0720 EF        		.byte	-17
 2865 0721 EF        		.byte	-17
 2866 0722 EF        		.byte	-17
 2867 0723 F0        		.byte	-16
 2868 0724 F1        		.byte	-15
 2869 0725 F2        		.byte	-14
 2870 0726 F5        		.byte	-11
 2871 0727 F8        		.byte	-8
 2872 0728 F8        		.byte	-8
 2873 0729 F7        		.byte	-9
 2874 072a F6        		.byte	-10
 2875 072b F4        		.byte	-12
 2876 072c EF        		.byte	-17
 2877 072d ED        		.byte	-19
 2878 072e EC        		.byte	-20
 2879 072f EB        		.byte	-21
 2880 0730 EA        		.byte	-22
 2881 0731 EC        		.byte	-20
 2882 0732 EE        		.byte	-18
 2883 0733 F1        		.byte	-15
 2884 0734 F3        		.byte	-13
 2885 0735 F6        		.byte	-10
 2886 0736 F8        		.byte	-8
 2887 0737 F9        		.byte	-7
 2888 0738 FA        		.byte	-6
 2889 0739 FB        		.byte	-5
 2890 073a FE        		.byte	-2
 2891 073b 01        		.byte	1
 2892 073c 04        		.byte	4
 2893 073d 07        		.byte	7
 2894 073e 0A        		.byte	10
 2895 073f 0C        		.byte	12
 2896 0740 0D        		.byte	13
 2897 0741 0F        		.byte	15
 2898 0742 10        		.byte	16
 2899 0743 11        		.byte	17
 2900 0744 13        		.byte	19
 2901 0745 15        		.byte	21
 2902 0746 17        		.byte	23
 2903 0747 19        		.byte	25
 2904 0748 1B        		.byte	27
 2905 0749 1C        		.byte	28
 2906 074a 1F        		.byte	31
 2907 074b 20        		.byte	32
 2908 074c 21        		.byte	33
 2909 074d 22        		.byte	34
 2910 074e 25        		.byte	37
 2911 074f 28        		.byte	40
 2912 0750 27        		.byte	39
GAS LISTING /tmp/ccLsnRQw.s 			page 54


 2913 0751 26        		.byte	38
 2914 0752 29        		.byte	41
 2915 0753 2B        		.byte	43
 2916 0754 2F        		.byte	47
 2917 0755 35        		.byte	53
 2918 0756 3A        		.byte	58
 2919 0757 3C        		.byte	60
 2920 0758 40        		.byte	64
 2921 0759 46        		.byte	70
 2922 075a 43        		.byte	67
 2923 075b 2D        		.byte	45
 2924 075c 0C        		.byte	12
 2925 075d F3        		.byte	-13
 2926 075e EB        		.byte	-21
 2927 075f ED        		.byte	-19
 2928 0760 EE        		.byte	-18
 2929 0761 EF        		.byte	-17
 2930 0762 EF        		.byte	-17
 2931 0763 F0        		.byte	-16
 2932 0764 F0        		.byte	-16
 2933 0765 ED        		.byte	-19
 2934 0766 E9        		.byte	-23
 2935 0767 E9        		.byte	-23
 2936 0768 F0        		.byte	-16
 2937 0769 F6        		.byte	-10
 2938 076a F7        		.byte	-9
 2939 076b F9        		.byte	-7
 2940 076c 03        		.byte	3
 2941 076d 11        		.byte	17
 2942 076e 1E        		.byte	30
 2943 076f 22        		.byte	34
 2944 0770 1E        		.byte	30
 2945 0771 16        		.byte	22
 2946 0772 0D        		.byte	13
 2947 0773 04        		.byte	4
 2948 0774 FB        		.byte	-5
 2949 0775 F4        		.byte	-12
 2950 0776 F0        		.byte	-16
 2951 0777 F0        		.byte	-16
 2952 0778 F1        		.byte	-15
 2953 0779 EF        		.byte	-17
 2954 077a EA        		.byte	-22
 2955 077b E8        		.byte	-24
 2956 077c E7        		.byte	-25
 2957 077d E5        		.byte	-27
 2958 077e E2        		.byte	-30
 2959 077f DF        		.byte	-33
 2960 0780 E2        		.byte	-30
 2961 0781 EA        		.byte	-22
 2962 0782 F4        		.byte	-12
 2963 0783 FC        		.byte	-4
 2964 0784 04        		.byte	4
 2965 0785 0B        		.byte	11
 2966 0786 10        		.byte	16
 2967 0787 11        		.byte	17
 2968 0788 0E        		.byte	14
 2969 0789 0A        		.byte	10
GAS LISTING /tmp/ccLsnRQw.s 			page 55


 2970 078a 05        		.byte	5
 2971 078b 02        		.byte	2
 2972 078c FF        		.byte	-1
 2973 078d FC        		.byte	-4
 2974 078e F9        		.byte	-7
 2975 078f F8        		.byte	-8
 2976 0790 F7        		.byte	-9
 2977 0791 F4        		.byte	-12
 2978 0792 F0        		.byte	-16
 2979 0793 EA        		.byte	-22
 2980 0794 E6        		.byte	-26
 2981 0795 E4        		.byte	-28
 2982 0796 E3        		.byte	-29
 2983 0797 E5        		.byte	-27
 2984 0798 EA        		.byte	-22
 2985 0799 F0        		.byte	-16
 2986 079a F7        		.byte	-9
 2987 079b FD        		.byte	-3
 2988 079c 02        		.byte	2
 2989 079d 06        		.byte	6
 2990 079e 08        		.byte	8
 2991 079f 09        		.byte	9
 2992 07a0 09        		.byte	9
 2993 07a1 08        		.byte	8
 2994 07a2 06        		.byte	6
 2995 07a3 04        		.byte	4
 2996 07a4 04        		.byte	4
 2997 07a5 03        		.byte	3
 2998 07a6 01        		.byte	1
 2999 07a7 FD        		.byte	-3
 3000 07a8 FA        		.byte	-6
 3001 07a9 F6        		.byte	-10
 3002 07aa F1        		.byte	-15
 3003 07ab ED        		.byte	-19
 3004 07ac E9        		.byte	-23
 3005 07ad E8        		.byte	-24
 3006 07ae E9        		.byte	-23
 3007 07af EA        		.byte	-22
 3008 07b0 EB        		.byte	-21
 3009 07b1 EE        		.byte	-18
 3010 07b2 F1        		.byte	-15
 3011 07b3 F2        		.byte	-14
 3012 07b4 F3        		.byte	-13
 3013 07b5 F6        		.byte	-10
 3014 07b6 F7        		.byte	-9
 3015 07b7 F6        		.byte	-10
 3016 07b8 F6        		.byte	-10
 3017 07b9 F7        		.byte	-9
 3018 07ba F7        		.byte	-9
 3019 07bb F6        		.byte	-10
 3020 07bc F5        		.byte	-11
 3021 07bd F4        		.byte	-12
 3022 07be F2        		.byte	-14
 3023 07bf EE        		.byte	-18
 3024 07c0 EC        		.byte	-20
 3025 07c1 EC        		.byte	-20
 3026 07c2 EB        		.byte	-21
GAS LISTING /tmp/ccLsnRQw.s 			page 56


 3027 07c3 EB        		.byte	-21
 3028 07c4 EB        		.byte	-21
 3029 07c5 ED        		.byte	-19
 3030 07c6 ED        		.byte	-19
 3031 07c7 EE        		.byte	-18
 3032 07c8 F0        		.byte	-16
 3033 07c9 F3        		.byte	-13
 3034 07ca F6        		.byte	-10
 3035 07cb F8        		.byte	-8
 3036 07cc F9        		.byte	-7
 3037 07cd FB        		.byte	-5
 3038 07ce FC        		.byte	-4
 3039 07cf FD        		.byte	-3
 3040 07d0 FE        		.byte	-2
 3041 07d1 00        		.byte	0
 3042 07d2 01        		.byte	1
 3043 07d3 02        		.byte	2
 3044 07d4 03        		.byte	3
 3045 07d5 05        		.byte	5
 3046 07d6 07        		.byte	7
 3047 07d7 09        		.byte	9
 3048 07d8 0A        		.byte	10
 3049 07d9 0C        		.byte	12
 3050 07da 0E        		.byte	14
 3051 07db 10        		.byte	16
 3052 07dc 13        		.byte	19
 3053 07dd 15        		.byte	21
 3054 07de 18        		.byte	24
 3055 07df 1A        		.byte	26
 3056 07e0 1C        		.byte	28
 3057 07e1 1D        		.byte	29
 3058 07e2 1F        		.byte	31
 3059 07e3 21        		.byte	33
 3060 07e4 22        		.byte	34
 3061 07e5 25        		.byte	37
 3062 07e6 2B        		.byte	43
 3063 07e7 2D        		.byte	45
 3064 07e8 2E        		.byte	46
 3065 07e9 31        		.byte	49
 3066 07ea 33        		.byte	51
 3067 07eb 34        		.byte	52
 3068 07ec 37        		.byte	55
 3069 07ed 3C        		.byte	60
 3070 07ee 3F        		.byte	63
 3071 07ef 41        		.byte	65
 3072 07f0 30        		.byte	48
 3073 07f1 07        		.byte	7
 3074 07f2 EA        		.byte	-22
 3075 07f3 E6        		.byte	-26
 3076 07f4 E7        		.byte	-25
 3077 07f5 EA        		.byte	-22
 3078 07f6 F0        		.byte	-16
 3079 07f7 EF        		.byte	-17
 3080 07f8 EC        		.byte	-20
 3081 07f9 F0        		.byte	-16
 3082 07fa F2        		.byte	-14
 3083 07fb ED        		.byte	-19
GAS LISTING /tmp/ccLsnRQw.s 			page 57


 3084 07fc F1        		.byte	-15
 3085 07fd FC        		.byte	-4
 3086 07fe FF        		.byte	-1
 3087 07ff 00        		.byte	0
 3088 0800 04        		.byte	4
 3089 0801 0A        		.byte	10
 3090 0802 17        		.byte	23
 3091 0803 25        		.byte	37
 3092 0804 25        		.byte	37
 3093 0805 1C        		.byte	28
 3094 0806 15        		.byte	21
 3095 0807 09        		.byte	9
 3096 0808 FC        		.byte	-4
 3097 0809 F5        		.byte	-11
 3098 080a EF        		.byte	-17
 3099 080b E9        		.byte	-23
 3100 080c EA        		.byte	-22
 3101 080d EC        		.byte	-20
 3102 080e E8        		.byte	-24
 3103 080f E5        		.byte	-27
 3104 0810 E7        		.byte	-25
 3105 0811 E7        		.byte	-25
 3106 0812 E6        		.byte	-26
 3107 0813 E7        		.byte	-25
 3108 0814 E6        		.byte	-26
 3109 0815 E9        		.byte	-23
 3110 0816 F4        		.byte	-12
 3111 0817 FE        		.byte	-2
 3112 0818 05        		.byte	5
 3113 0819 0E        		.byte	14
 3114 081a 13        		.byte	19
 3115 081b 13        		.byte	19
 3116 081c 11        		.byte	17
 3117 081d 0D        		.byte	13
 3118 081e 06        		.byte	6
 3119 081f 01        		.byte	1
 3120 0820 FE        		.byte	-2
 3121 0821 F8        		.byte	-8
 3122 0822 F3        		.byte	-13
 3123 0823 F2        		.byte	-14
 3124 0824 F0        		.byte	-16
 3125 0825 EE        		.byte	-18
 3126 0826 EC        		.byte	-20
 3127 0827 E9        		.byte	-23
 3128 0828 E4        		.byte	-28
 3129 0829 E3        		.byte	-29
 3130 082a E4        		.byte	-28
 3131 082b E6        		.byte	-26
 3132 082c EB        		.byte	-21
 3133 082d F3        		.byte	-13
 3134 082e FA        		.byte	-6
 3135 082f 01        		.byte	1
 3136 0830 06        		.byte	6
 3137 0831 0A        		.byte	10
 3138 0832 0D        		.byte	13
 3139 0833 0E        		.byte	14
 3140 0834 0D        		.byte	13
GAS LISTING /tmp/ccLsnRQw.s 			page 58


 3141 0835 0A        		.byte	10
 3142 0836 08        		.byte	8
 3143 0837 03        		.byte	3
 3144 0838 FE        		.byte	-2
 3145 0839 FB        		.byte	-5
 3146 083a FA        		.byte	-6
 3147 083b F7        		.byte	-9
 3148 083c F3        		.byte	-13
 3149 083d EF        		.byte	-17
 3150 083e EA        		.byte	-22
 3151 083f E6        		.byte	-26
 3152 0840 E4        		.byte	-28
 3153 0841 E4        		.byte	-28
 3154 0842 E6        		.byte	-26
 3155 0843 E9        		.byte	-23
 3156 0844 EB        		.byte	-21
 3157 0845 EE        		.byte	-18
 3158 0846 F3        		.byte	-13
 3159 0847 F7        		.byte	-9
 3160 0848 F8        		.byte	-8
 3161 0849 F9        		.byte	-7
 3162 084a FC        		.byte	-4
 3163 084b FC        		.byte	-4
 3164 084c FA        		.byte	-6
 3165 084d FA        		.byte	-6
 3166 084e FB        		.byte	-5
 3167 084f FA        		.byte	-6
 3168 0850 F7        		.byte	-9
 3169 0851 F6        		.byte	-10
 3170 0852 F5        		.byte	-11
 3171 0853 F2        		.byte	-14
 3172 0854 EF        		.byte	-17
 3173 0855 ED        		.byte	-19
 3174 0856 ED        		.byte	-19
 3175 0857 EB        		.byte	-21
 3176 0858 EA        		.byte	-22
 3177 0859 EC        		.byte	-20
 3178 085a EF        		.byte	-17
 3179 085b F0        		.byte	-16
 3180 085c F2        		.byte	-14
 3181 085d F6        		.byte	-10
 3182 085e F9        		.byte	-7
 3183 085f FB        		.byte	-5
 3184 0860 FC        		.byte	-4
 3185 0861 FF        		.byte	-1
 3186 0862 01        		.byte	1
 3187 0863 02        		.byte	2
 3188 0864 04        		.byte	4
 3189 0865 06        		.byte	6
 3190 0866 08        		.byte	8
 3191 0867 08        		.byte	8
 3192 0868 09        		.byte	9
 3193 0869 0B        		.byte	11
 3194 086a 0C        		.byte	12
 3195 086b 0D        		.byte	13
 3196 086c 0F        		.byte	15
 3197 086d 11        		.byte	17
GAS LISTING /tmp/ccLsnRQw.s 			page 59


 3198 086e 12        		.byte	18
 3199 086f 13        		.byte	19
 3200 0870 18        		.byte	24
 3201 0871 1B        		.byte	27
 3202 0872 1D        		.byte	29
 3203 0873 1E        		.byte	30
 3204 0874 1F        		.byte	31
 3205 0875 20        		.byte	32
 3206 0876 20        		.byte	32
 3207 0877 23        		.byte	35
 3208 0878 26        		.byte	38
 3209 0879 29        		.byte	41
 3210 087a 2E        		.byte	46
 3211 087b 30        		.byte	48
 3212 087c 32        		.byte	50
 3213 087d 35        		.byte	53
 3214 087e 38        		.byte	56
 3215 087f 3C        		.byte	60
 3216 0880 36        		.byte	54
 3217 0881 16        		.byte	22
 3218 0882 EF        		.byte	-17
 3219 0883 E3        		.byte	-29
 3220 0884 E6        		.byte	-26
 3221 0885 E6        		.byte	-26
 3222 0886 EC        		.byte	-20
 3223 0887 F5        		.byte	-11
 3224 0888 F2        		.byte	-14
 3225 0889 F1        		.byte	-15
 3226 088a F5        		.byte	-11
 3227 088b F2        		.byte	-14
 3228 088c F0        		.byte	-16
 3229 088d F9        		.byte	-7
 3230 088e 01        		.byte	1
 3231 088f 01        		.byte	1
 3232 0890 05        		.byte	5
 3233 0891 0A        		.byte	10
 3234 0892 11        		.byte	17
 3235 0893 1F        		.byte	31
 3236 0894 27        		.byte	39
 3237 0895 1D        		.byte	29
 3238 0896 13        		.byte	19
 3239 0897 0A        		.byte	10
 3240 0898 FB        		.byte	-5
 3241 0899 F0        		.byte	-16
 3242 089a ED        		.byte	-19
 3243 089b E8        		.byte	-24
 3244 089c E7        		.byte	-25
 3245 089d ED        		.byte	-19
 3246 089e EC        		.byte	-20
 3247 089f E7        		.byte	-25
 3248 08a0 E9        		.byte	-23
 3249 08a1 EB        		.byte	-21
 3250 08a2 E9        		.byte	-23
 3251 08a3 EA        		.byte	-22
 3252 08a4 ED        		.byte	-19
 3253 08a5 EE        		.byte	-18
 3254 08a6 F6        		.byte	-10
GAS LISTING /tmp/ccLsnRQw.s 			page 60


 3255 08a7 01        		.byte	1
 3256 08a8 09        		.byte	9
 3257 08a9 0F        		.byte	15
 3258 08aa 16        		.byte	22
 3259 08ab 15        		.byte	21
 3260 08ac 11        		.byte	17
 3261 08ad 0D        		.byte	13
 3262 08ae 05        		.byte	5
 3263 08af FD        		.byte	-3
 3264 08b0 FA        		.byte	-6
 3265 08b1 F6        		.byte	-10
 3266 08b2 F1        		.byte	-15
 3267 08b3 EF        		.byte	-17
 3268 08b4 EF        		.byte	-17
 3269 08b5 EE        		.byte	-18
 3270 08b6 EC        		.byte	-20
 3271 08b7 EB        		.byte	-21
 3272 08b8 E8        		.byte	-24
 3273 08b9 E6        		.byte	-26
 3274 08ba E9        		.byte	-23
 3275 08bb EB        		.byte	-21
 3276 08bc EF        		.byte	-17
 3277 08bd F7        		.byte	-9
 3278 08be 00        		.byte	0
 3279 08bf 06        		.byte	6
 3280 08c0 0A        		.byte	10
 3281 08c1 0D        		.byte	13
 3282 08c2 0D        		.byte	13
 3283 08c3 0C        		.byte	12
 3284 08c4 0A        		.byte	10
 3285 08c5 07        		.byte	7
 3286 08c6 03        		.byte	3
 3287 08c7 FF        		.byte	-1
 3288 08c8 FB        		.byte	-5
 3289 08c9 F8        		.byte	-8
 3290 08ca F6        		.byte	-10
 3291 08cb F2        		.byte	-14
 3292 08cc EE        		.byte	-18
 3293 08cd EA        		.byte	-22
 3294 08ce E8        		.byte	-24
 3295 08cf E5        		.byte	-27
 3296 08d0 E3        		.byte	-29
 3297 08d1 E4        		.byte	-28
 3298 08d2 E7        		.byte	-25
 3299 08d3 EB        		.byte	-21
 3300 08d4 F0        		.byte	-16
 3301 08d5 F4        		.byte	-12
 3302 08d6 F7        		.byte	-9
 3303 08d7 FA        		.byte	-6
 3304 08d8 FD        		.byte	-3
 3305 08d9 FD        		.byte	-3
 3306 08da FD        		.byte	-3
 3307 08db FC        		.byte	-4
 3308 08dc FB        		.byte	-5
 3309 08dd FA        		.byte	-6
 3310 08de F9        		.byte	-7
 3311 08df F8        		.byte	-8
GAS LISTING /tmp/ccLsnRQw.s 			page 61


 3312 08e0 F6        		.byte	-10
 3313 08e1 F4        		.byte	-12
 3314 08e2 F2        		.byte	-14
 3315 08e3 EF        		.byte	-17
 3316 08e4 ED        		.byte	-19
 3317 08e5 EC        		.byte	-20
 3318 08e6 ED        		.byte	-19
 3319 08e7 EE        		.byte	-18
 3320 08e8 EF        		.byte	-17
 3321 08e9 F1        		.byte	-15
 3322 08ea F3        		.byte	-13
 3323 08eb F6        		.byte	-10
 3324 08ec F8        		.byte	-8
 3325 08ed FA        		.byte	-6
 3326 08ee FD        		.byte	-3
 3327 08ef FF        		.byte	-1
 3328 08f0 01        		.byte	1
 3329 08f1 03        		.byte	3
 3330 08f2 06        		.byte	6
 3331 08f3 07        		.byte	7
 3332 08f4 09        		.byte	9
 3333 08f5 0C        		.byte	12
 3334 08f6 0D        		.byte	13
 3335 08f7 0E        		.byte	14
 3336 08f8 0F        		.byte	15
 3337 08f9 10        		.byte	16
 3338 08fa 11        		.byte	17
 3339 08fb 14        		.byte	20
 3340 08fc 16        		.byte	22
 3341 08fd 17        		.byte	23
 3342 08fe 1A        		.byte	26
 3343 08ff 1D        		.byte	29
 3344 0900 1D        		.byte	29
 3345 0901 1F        		.byte	31
 3346 0902 21        		.byte	33
 3347 0903 23        		.byte	35
 3348 0904 24        		.byte	36
 3349 0905 27        		.byte	39
 3350 0906 2B        		.byte	43
 3351 0907 2E        		.byte	46
 3352 0908 31        		.byte	49
 3353 0909 36        		.byte	54
 3354 090a 3A        		.byte	58
 3355 090b 3B        		.byte	59
 3356 090c 2A        		.byte	42
 3357 090d 04        		.byte	4
 3358 090e E7        		.byte	-25
 3359 090f E2        		.byte	-30
 3360 0910 E3        		.byte	-29
 3361 0911 E5        		.byte	-27
 3362 0912 EF        		.byte	-17
 3363 0913 F5        		.byte	-11
 3364 0914 F2        		.byte	-14
 3365 0915 F4        		.byte	-12
 3366 0916 F7        		.byte	-9
 3367 0917 F4        		.byte	-12
 3368 0918 F6        		.byte	-10
GAS LISTING /tmp/ccLsnRQw.s 			page 62


 3369 0919 FF        		.byte	-1
 3370 091a 02        		.byte	2
 3371 091b 03        		.byte	3
 3372 091c 09        		.byte	9
 3373 091d 0E        		.byte	14
 3374 091e 17        		.byte	23
 3375 091f 24        		.byte	36
 3376 0920 24        		.byte	36
 3377 0921 18        		.byte	24
 3378 0922 0E        		.byte	14
 3379 0923 03        		.byte	3
 3380 0924 F3        		.byte	-13
 3381 0925 EA        		.byte	-22
 3382 0926 E7        		.byte	-25
 3383 0927 E4        		.byte	-28
 3384 0928 E6        		.byte	-26
 3385 0929 EC        		.byte	-20
 3386 092a EA        		.byte	-22
 3387 092b E8        		.byte	-24
 3388 092c ED        		.byte	-19
 3389 092d EF        		.byte	-17
 3390 092e ED        		.byte	-19
 3391 092f EE        		.byte	-18
 3392 0930 F1        		.byte	-15
 3393 0931 F6        		.byte	-10
 3394 0932 FF        		.byte	-1
 3395 0933 09        		.byte	9
 3396 0934 0F        		.byte	15
 3397 0935 16        		.byte	22
 3398 0936 19        		.byte	25
 3399 0937 16        		.byte	22
 3400 0938 0F        		.byte	15
 3401 0939 08        		.byte	8
 3402 093a 00        		.byte	0
 3403 093b F9        		.byte	-7
 3404 093c F5        		.byte	-11
 3405 093d F1        		.byte	-15
 3406 093e EE        		.byte	-18
 3407 093f ED        		.byte	-19
 3408 0940 ED        		.byte	-19
 3409 0941 ED        		.byte	-19
 3410 0942 ED        		.byte	-19
 3411 0943 EB        		.byte	-21
 3412 0944 E9        		.byte	-23
 3413 0945 EB        		.byte	-21
 3414 0946 EF        		.byte	-17
 3415 0947 F3        		.byte	-13
 3416 0948 F8        		.byte	-8
 3417 0949 00        		.byte	0
 3418 094a 07        		.byte	7
 3419 094b 0B        		.byte	11
 3420 094c 0D        		.byte	13
 3421 094d 0B        		.byte	11
 3422 094e 09        		.byte	9
 3423 094f 08        		.byte	8
 3424 0950 04        		.byte	4
 3425 0951 FF        		.byte	-1
GAS LISTING /tmp/ccLsnRQw.s 			page 63


 3426 0952 FA        		.byte	-6
 3427 0953 F7        		.byte	-9
 3428 0954 F5        		.byte	-11
 3429 0955 F3        		.byte	-13
 3430 0956 F4        		.byte	-12
 3431 0957 F2        		.byte	-14
 3432 0958 EE        		.byte	-18
 3433 0959 EA        		.byte	-22
 3434 095a E7        		.byte	-25
 3435 095b E6        		.byte	-26
 3436 095c E5        		.byte	-27
 3437 095d E6        		.byte	-26
 3438 095e EC        		.byte	-20
 3439 095f F1        		.byte	-15
 3440 0960 F4        		.byte	-12
 3441 0961 F5        		.byte	-11
 3442 0962 F9        		.byte	-7
 3443 0963 FC        		.byte	-4
 3444 0964 FB        		.byte	-5
 3445 0965 FA        		.byte	-6
 3446 0966 FA        		.byte	-6
 3447 0967 FA        		.byte	-6
 3448 0968 F8        		.byte	-8
 3449 0969 F8        		.byte	-8
 3450 096a F9        		.byte	-7
 3451 096b F8        		.byte	-8
 3452 096c F5        		.byte	-11
 3453 096d F3        		.byte	-13
 3454 096e F2        		.byte	-14
 3455 096f EF        		.byte	-17
 3456 0970 EC        		.byte	-20
 3457 0971 EC        		.byte	-20
 3458 0972 EF        		.byte	-17
 3459 0973 F2        		.byte	-14
 3460 0974 F5        		.byte	-11
 3461 0975 F8        		.byte	-8
 3462 0976 FB        		.byte	-5
 3463 0977 FD        		.byte	-3
 3464 0978 FE        		.byte	-2
 3465 0979 00        		.byte	0
 3466 097a 03        		.byte	3
 3467 097b 06        		.byte	6
 3468 097c 09        		.byte	9
 3469 097d 0C        		.byte	12
 3470 097e 0F        		.byte	15
 3471 097f 11        		.byte	17
 3472 0980 13        		.byte	19
 3473 0981 14        		.byte	20
 3474 0982 16        		.byte	22
 3475 0983 17        		.byte	23
 3476 0984 19        		.byte	25
 3477 0985 1B        		.byte	27
 3478 0986 1D        		.byte	29
 3479 0987 20        		.byte	32
 3480 0988 23        		.byte	35
 3481 0989 23        		.byte	35
 3482 098a 25        		.byte	37
GAS LISTING /tmp/ccLsnRQw.s 			page 64


 3483 098b 27        		.byte	39
 3484 098c 27        		.byte	39
 3485 098d 28        		.byte	40
 3486 098e 2A        		.byte	42
 3487 098f 2C        		.byte	44
 3488 0990 2E        		.byte	46
 3489 0991 33        		.byte	51
 3490 0992 37        		.byte	55
 3491 0993 26        		.byte	38
 3492 0994 FB        		.byte	-5
 3493 0995 E1        		.byte	-31
 3494 0996 E3        		.byte	-29
 3495 0997 E2        		.byte	-30
 3496 0998 E2        		.byte	-30
 3497 0999 F2        		.byte	-14
 3498 099a F9        		.byte	-7
 3499 099b F2        		.byte	-14
 3500 099c F7        		.byte	-9
 3501 099d FD        		.byte	-3
 3502 099e F6        		.byte	-10
 3503 099f FA        		.byte	-6
 3504 09a0 07        		.byte	7
 3505 09a1 07        		.byte	7
 3506 09a2 05        		.byte	5
 3507 09a3 0D        		.byte	13
 3508 09a4 0F        		.byte	15
 3509 09a5 13        		.byte	19
 3510 09a6 22        		.byte	34
 3511 09a7 21        		.byte	33
 3512 09a8 10        		.byte	16
 3513 09a9 08        		.byte	8
 3514 09aa FE        		.byte	-2
 3515 09ab EE        		.byte	-18
 3516 09ac E6        		.byte	-26
 3517 09ad E5        		.byte	-27
 3518 09ae E1        		.byte	-31
 3519 09af E6        		.byte	-26
 3520 09b0 ED        		.byte	-19
 3521 09b1 EB        		.byte	-21
 3522 09b2 E9        		.byte	-23
 3523 09b3 F0        		.byte	-16
 3524 09b4 F3        		.byte	-13
 3525 09b5 F2        		.byte	-14
 3526 09b6 F4        		.byte	-12
 3527 09b7 F7        		.byte	-9
 3528 09b8 FC        		.byte	-4
 3529 09b9 05        		.byte	5
 3530 09ba 0D        		.byte	13
 3531 09bb 11        		.byte	17
 3532 09bc 16        		.byte	22
 3533 09bd 18        		.byte	24
 3534 09be 12        		.byte	18
 3535 09bf 0B        		.byte	11
 3536 09c0 04        		.byte	4
 3537 09c1 FB        		.byte	-5
 3538 09c2 F4        		.byte	-12
 3539 09c3 F1        		.byte	-15
GAS LISTING /tmp/ccLsnRQw.s 			page 65


 3540 09c4 EF        		.byte	-17
 3541 09c5 EC        		.byte	-20
 3542 09c6 EC        		.byte	-20
 3543 09c7 ED        		.byte	-19
 3544 09c8 ED        		.byte	-19
 3545 09c9 EF        		.byte	-17
 3546 09ca EF        		.byte	-17
 3547 09cb EC        		.byte	-20
 3548 09cc EE        		.byte	-18
 3549 09cd F4        		.byte	-12
 3550 09ce F8        		.byte	-8
 3551 09cf FD        		.byte	-3
 3552 09d0 05        		.byte	5
 3553 09d1 0B        		.byte	11
 3554 09d2 0D        		.byte	13
 3555 09d3 0B        		.byte	11
 3556 09d4 07        		.byte	7
 3557 09d5 04        		.byte	4
 3558 09d6 02        		.byte	2
 3559 09d7 FE        		.byte	-2
 3560 09d8 F9        		.byte	-7
 3561 09d9 F7        		.byte	-9
 3562 09da F5        		.byte	-11
 3563 09db F2        		.byte	-14
 3564 09dc F0        		.byte	-16
 3565 09dd F0        		.byte	-16
 3566 09de F0        		.byte	-16
 3567 09df EE        		.byte	-18
 3568 09e0 ED        		.byte	-19
 3569 09e1 ED        		.byte	-19
 3570 09e2 EF        		.byte	-17
 3571 09e3 F1        		.byte	-15
 3572 09e4 F3        		.byte	-13
 3573 09e5 F7        		.byte	-9
 3574 09e6 FB        		.byte	-5
 3575 09e7 FA        		.byte	-6
 3576 09e8 F8        		.byte	-8
 3577 09e9 F9        		.byte	-7
 3578 09ea F9        		.byte	-7
 3579 09eb F6        		.byte	-10
 3580 09ec F5        		.byte	-11
 3581 09ed F6        		.byte	-10
 3582 09ee F6        		.byte	-10
 3583 09ef F4        		.byte	-12
 3584 09f0 F3        		.byte	-13
 3585 09f1 F4        		.byte	-12
 3586 09f2 F5        		.byte	-11
 3587 09f3 F3        		.byte	-13
 3588 09f4 F2        		.byte	-14
 3589 09f5 F4        		.byte	-12
 3590 09f6 F4        		.byte	-12
 3591 09f7 F4        		.byte	-12
 3592 09f8 F5        		.byte	-11
 3593 09f9 F8        		.byte	-8
 3594 09fa F9        		.byte	-7
 3595 09fb F8        		.byte	-8
 3596 09fc F8        		.byte	-8
GAS LISTING /tmp/ccLsnRQw.s 			page 66


 3597 09fd F9        		.byte	-7
 3598 09fe F9        		.byte	-7
 3599 09ff F9        		.byte	-7
 3600 0a00 FC        		.byte	-4
 3601 0a01 FF        		.byte	-1
 3602 0a02 01        		.byte	1
 3603 0a03 02        		.byte	2
 3604 0a04 05        		.byte	5
 3605 0a05 07        		.byte	7
 3606 0a06 09        		.byte	9
 3607 0a07 0C        		.byte	12
 3608 0a08 0E        		.byte	14
 3609 0a09 11        		.byte	17
 3610 0a0a 13        		.byte	19
 3611 0a0b 16        		.byte	22
 3612 0a0c 19        		.byte	25
 3613 0a0d 1C        		.byte	28
 3614 0a0e 1E        		.byte	30
 3615 0a0f 20        		.byte	32
 3616 0a10 22        		.byte	34
 3617 0a11 23        		.byte	35
 3618 0a12 24        		.byte	36
 3619 0a13 26        		.byte	38
 3620 0a14 26        		.byte	38
 3621 0a15 27        		.byte	39
 3622 0a16 29        		.byte	41
 3623 0a17 2B        		.byte	43
 3624 0a18 2D        		.byte	45
 3625 0a19 32        		.byte	50
 3626 0a1a 38        		.byte	56
 3627 0a1b 28        		.byte	40
 3628 0a1c FB        		.byte	-5
 3629 0a1d DD        		.byte	-35
 3630 0a1e DF        		.byte	-33
 3631 0a1f DE        		.byte	-34
 3632 0a20 DE        		.byte	-34
 3633 0a21 F1        		.byte	-15
 3634 0a22 FC        		.byte	-4
 3635 0a23 F3        		.byte	-13
 3636 0a24 F7        		.byte	-9
 3637 0a25 FF        		.byte	-1
 3638 0a26 F8        		.byte	-8
 3639 0a27 FA        		.byte	-6
 3640 0a28 07        		.byte	7
 3641 0a29 06        		.byte	6
 3642 0a2a 06        		.byte	6
 3643 0a2b 0F        		.byte	15
 3644 0a2c 10        		.byte	16
 3645 0a2d 13        		.byte	19
 3646 0a2e 23        		.byte	35
 3647 0a2f 22        		.byte	34
 3648 0a30 11        		.byte	17
 3649 0a31 06        		.byte	6
 3650 0a32 FA        		.byte	-6
 3651 0a33 EA        		.byte	-22
 3652 0a34 E4        		.byte	-28
 3653 0a35 E2        		.byte	-30
GAS LISTING /tmp/ccLsnRQw.s 			page 67


 3654 0a36 DF        		.byte	-33
 3655 0a37 E6        		.byte	-26
 3656 0a38 F0        		.byte	-16
 3657 0a39 EC        		.byte	-20
 3658 0a3a EA        		.byte	-22
 3659 0a3b F2        		.byte	-14
 3660 0a3c F4        		.byte	-12
 3661 0a3d F2        		.byte	-14
 3662 0a3e F6        		.byte	-10
 3663 0a3f F9        		.byte	-7
 3664 0a40 FD        		.byte	-3
 3665 0a41 08        		.byte	8
 3666 0a42 10        		.byte	16
 3667 0a43 13        		.byte	19
 3668 0a44 18        		.byte	24
 3669 0a45 1A        		.byte	26
 3670 0a46 12        		.byte	18
 3671 0a47 08        		.byte	8
 3672 0a48 02        		.byte	2
 3673 0a49 F9        		.byte	-7
 3674 0a4a F0        		.byte	-16
 3675 0a4b EF        		.byte	-17
 3676 0a4c EE        		.byte	-18
 3677 0a4d EC        		.byte	-20
 3678 0a4e ED        		.byte	-19
 3679 0a4f EE        		.byte	-18
 3680 0a50 ED        		.byte	-19
 3681 0a51 EF        		.byte	-17
 3682 0a52 EF        		.byte	-17
 3683 0a53 EC        		.byte	-20
 3684 0a54 EE        		.byte	-18
 3685 0a55 F5        		.byte	-11
 3686 0a56 FA        		.byte	-6
 3687 0a57 FF        		.byte	-1
 3688 0a58 06        		.byte	6
 3689 0a59 0B        		.byte	11
 3690 0a5a 0C        		.byte	12
 3691 0a5b 0A        		.byte	10
 3692 0a5c 05        		.byte	5
 3693 0a5d 02        		.byte	2
 3694 0a5e 02        		.byte	2
 3695 0a5f FD        		.byte	-3
 3696 0a60 F6        		.byte	-10
 3697 0a61 F5        		.byte	-11
 3698 0a62 F4        		.byte	-12
 3699 0a63 F0        		.byte	-16
 3700 0a64 EF        		.byte	-17
 3701 0a65 F1        		.byte	-15
 3702 0a66 F1        		.byte	-15
 3703 0a67 EE        		.byte	-18
 3704 0a68 EC        		.byte	-20
 3705 0a69 EC        		.byte	-20
 3706 0a6a EF        		.byte	-17
 3707 0a6b F1        		.byte	-15
 3708 0a6c F3        		.byte	-13
 3709 0a6d F9        		.byte	-7
 3710 0a6e FD        		.byte	-3
GAS LISTING /tmp/ccLsnRQw.s 			page 68


 3711 0a6f FA        		.byte	-6
 3712 0a70 F8        		.byte	-8
 3713 0a71 FA        		.byte	-6
 3714 0a72 F9        		.byte	-7
 3715 0a73 F5        		.byte	-11
 3716 0a74 F4        		.byte	-12
 3717 0a75 F5        		.byte	-11
 3718 0a76 F5        		.byte	-11
 3719 0a77 F3        		.byte	-13
 3720 0a78 F3        		.byte	-13
 3721 0a79 F5        		.byte	-11
 3722 0a7a F6        		.byte	-10
 3723 0a7b F4        		.byte	-12
 3724 0a7c F4        		.byte	-12
 3725 0a7d F5        		.byte	-11
 3726 0a7e F5        		.byte	-11
 3727 0a7f F4        		.byte	-12
 3728 0a80 F5        		.byte	-11
 3729 0a81 F7        		.byte	-9
 3730 0a82 F8        		.byte	-8
 3731 0a83 F8        		.byte	-8
 3732 0a84 F9        		.byte	-7
 3733 0a85 FD        		.byte	-3
 3734 0a86 FE        		.byte	-2
 3735 0a87 FD        		.byte	-3
 3736 0a88 FF        		.byte	-1
 3737 0a89 01        		.byte	1
 3738 0a8a 01        		.byte	1
 3739 0a8b 03        		.byte	3
 3740 0a8c 07        		.byte	7
 3741 0a8d 0B        		.byte	11
 3742 0a8e 0D        		.byte	13
 3743 0a8f 10        		.byte	16
 3744 0a90 13        		.byte	19
 3745 0a91 15        		.byte	21
 3746 0a92 16        		.byte	22
 3747 0a93 18        		.byte	24
 3748 0a94 1A        		.byte	26
 3749 0a95 1C        		.byte	28
 3750 0a96 1E        		.byte	30
 3751 0a97 20        		.byte	32
 3752 0a98 22        		.byte	34
 3753 0a99 22        		.byte	34
 3754 0a9a 21        		.byte	33
 3755 0a9b 22        		.byte	34
 3756 0a9c 24        		.byte	36
 3757 0a9d 26        		.byte	38
 3758 0a9e 29        		.byte	41
 3759 0a9f 2E        		.byte	46
 3760 0aa0 32        		.byte	50
 3761 0aa1 34        		.byte	52
 3762 0aa2 1E        		.byte	30
 3763 0aa3 F1        		.byte	-15
 3764 0aa4 DC        		.byte	-36
 3765 0aa5 E1        		.byte	-31
 3766 0aa6 DE        		.byte	-34
 3767 0aa7 E1        		.byte	-31
GAS LISTING /tmp/ccLsnRQw.s 			page 69


 3768 0aa8 F8        		.byte	-8
 3769 0aa9 FE        		.byte	-2
 3770 0aaa F2        		.byte	-14
 3771 0aab F9        		.byte	-7
 3772 0aac FE        		.byte	-2
 3773 0aad F6        		.byte	-10
 3774 0aae FB        		.byte	-5
 3775 0aaf 06        		.byte	6
 3776 0ab0 04        		.byte	4
 3777 0ab1 08        		.byte	8
 3778 0ab2 11        		.byte	17
 3779 0ab3 10        		.byte	16
 3780 0ab4 16        		.byte	22
 3781 0ab5 24        		.byte	36
 3782 0ab6 1E        		.byte	30
 3783 0ab7 0D        		.byte	13
 3784 0ab8 02        		.byte	2
 3785 0ab9 F5        		.byte	-11
 3786 0aba E8        		.byte	-24
 3787 0abb E5        		.byte	-27
 3788 0abc E3        		.byte	-29
 3789 0abd E1        		.byte	-31
 3790 0abe EC        		.byte	-20
 3791 0abf F2        		.byte	-14
 3792 0ac0 ED        		.byte	-19
 3793 0ac1 EC        		.byte	-20
 3794 0ac2 F3        		.byte	-13
 3795 0ac3 F2        		.byte	-14
 3796 0ac4 F1        		.byte	-15
 3797 0ac5 F6        		.byte	-10
 3798 0ac6 FA        		.byte	-6
 3799 0ac7 FF        		.byte	-1
 3800 0ac8 0B        		.byte	11
 3801 0ac9 12        		.byte	18
 3802 0aca 15        		.byte	21
 3803 0acb 19        		.byte	25
 3804 0acc 18        		.byte	24
 3805 0acd 0D        		.byte	13
 3806 0ace 05        		.byte	5
 3807 0acf FF        		.byte	-1
 3808 0ad0 F6        		.byte	-10
 3809 0ad1 EF        		.byte	-17
 3810 0ad2 F0        		.byte	-16
 3811 0ad3 F0        		.byte	-16
 3812 0ad4 EE        		.byte	-18
 3813 0ad5 F0        		.byte	-16
 3814 0ad6 EF        		.byte	-17
 3815 0ad7 EE        		.byte	-18
 3816 0ad8 F0        		.byte	-16
 3817 0ad9 EE        		.byte	-18
 3818 0ada EB        		.byte	-21
 3819 0adb F0        		.byte	-16
 3820 0adc F8        		.byte	-8
 3821 0add FC        		.byte	-4
 3822 0ade 02        		.byte	2
 3823 0adf 09        		.byte	9
 3824 0ae0 0B        		.byte	11
GAS LISTING /tmp/ccLsnRQw.s 			page 70


 3825 0ae1 0A        		.byte	10
 3826 0ae2 07        		.byte	7
 3827 0ae3 01        		.byte	1
 3828 0ae4 FE        		.byte	-2
 3829 0ae5 FE        		.byte	-2
 3830 0ae6 F8        		.byte	-8
 3831 0ae7 F4        		.byte	-12
 3832 0ae8 F7        		.byte	-9
 3833 0ae9 F6        		.byte	-10
 3834 0aea F1        		.byte	-15
 3835 0aeb F1        		.byte	-15
 3836 0aec F2        		.byte	-14
 3837 0aed EF        		.byte	-17
 3838 0aee EB        		.byte	-21
 3839 0aef EC        		.byte	-20
 3840 0af0 EE        		.byte	-18
 3841 0af1 F1        		.byte	-15
 3842 0af2 F3        		.byte	-13
 3843 0af3 F7        		.byte	-9
 3844 0af4 FB        		.byte	-5
 3845 0af5 FB        		.byte	-5
 3846 0af6 F8        		.byte	-8
 3847 0af7 F9        		.byte	-7
 3848 0af8 F8        		.byte	-8
 3849 0af9 F6        		.byte	-10
 3850 0afa F4        		.byte	-12
 3851 0afb F5        		.byte	-11
 3852 0afc F6        		.byte	-10
 3853 0afd F6        		.byte	-10
 3854 0afe F5        		.byte	-11
 3855 0aff F5        		.byte	-11
 3856 0b00 F6        		.byte	-10
 3857 0b01 F4        		.byte	-12
 3858 0b02 F2        		.byte	-14
 3859 0b03 F2        		.byte	-14
 3860 0b04 F3        		.byte	-13
 3861 0b05 F4        		.byte	-12
 3862 0b06 F7        		.byte	-9
 3863 0b07 FA        		.byte	-6
 3864 0b08 FB        		.byte	-5
 3865 0b09 FC        		.byte	-4
 3866 0b0a FC        		.byte	-4
 3867 0b0b FD        		.byte	-3
 3868 0b0c FD        		.byte	-3
 3869 0b0d FE        		.byte	-2
 3870 0b0e FF        		.byte	-1
 3871 0b0f 02        		.byte	2
 3872 0b10 05        		.byte	5
 3873 0b11 07        		.byte	7
 3874 0b12 0A        		.byte	10
 3875 0b13 0D        		.byte	13
 3876 0b14 0E        		.byte	14
 3877 0b15 11        		.byte	17
 3878 0b16 14        		.byte	20
 3879 0b17 15        		.byte	21
 3880 0b18 17        		.byte	23
 3881 0b19 1B        		.byte	27
GAS LISTING /tmp/ccLsnRQw.s 			page 71


 3882 0b1a 1C        		.byte	28
 3883 0b1b 1E        		.byte	30
 3884 0b1c 22        		.byte	34
 3885 0b1d 22        		.byte	34
 3886 0b1e 21        		.byte	33
 3887 0b1f 22        		.byte	34
 3888 0b20 22        		.byte	34
 3889 0b21 23        		.byte	35
 3890 0b22 26        		.byte	38
 3891 0b23 2A        		.byte	42
 3892 0b24 2B        		.byte	43
 3893 0b25 2F        		.byte	47
 3894 0b26 32        		.byte	50
 3895 0b27 1C        		.byte	28
 3896 0b28 F2        		.byte	-14
 3897 0b29 DE        		.byte	-34
 3898 0b2a E1        		.byte	-31
 3899 0b2b DD        		.byte	-35
 3900 0b2c E1        		.byte	-31
 3901 0b2d F7        		.byte	-9
 3902 0b2e FE        		.byte	-2
 3903 0b2f F5        		.byte	-11
 3904 0b30 FA        		.byte	-6
 3905 0b31 FE        		.byte	-2
 3906 0b32 F7        		.byte	-9
 3907 0b33 FB        		.byte	-5
 3908 0b34 04        		.byte	4
 3909 0b35 04        		.byte	4
 3910 0b36 0A        		.byte	10
 3911 0b37 12        		.byte	18
 3912 0b38 11        		.byte	17
 3913 0b39 17        		.byte	23
 3914 0b3a 22        		.byte	34
 3915 0b3b 1C        		.byte	28
 3916 0b3c 0C        		.byte	12
 3917 0b3d 01        		.byte	1
 3918 0b3e F3        		.byte	-13
 3919 0b3f E7        		.byte	-25
 3920 0b40 E5        		.byte	-27
 3921 0b41 E3        		.byte	-29
 3922 0b42 E2        		.byte	-30
 3923 0b43 EC        		.byte	-20
 3924 0b44 F3        		.byte	-13
 3925 0b45 EE        		.byte	-18
 3926 0b46 ED        		.byte	-19
 3927 0b47 F2        		.byte	-14
 3928 0b48 F2        		.byte	-14
 3929 0b49 F1        		.byte	-15
 3930 0b4a F7        		.byte	-9
 3931 0b4b FC        		.byte	-4
 3932 0b4c 02        		.byte	2
 3933 0b4d 0D        		.byte	13
 3934 0b4e 14        		.byte	20
 3935 0b4f 16        		.byte	22
 3936 0b50 19        		.byte	25
 3937 0b51 17        		.byte	23
 3938 0b52 0C        		.byte	12
GAS LISTING /tmp/ccLsnRQw.s 			page 72


 3939 0b53 03        		.byte	3
 3940 0b54 FE        		.byte	-2
 3941 0b55 F5        		.byte	-11
 3942 0b56 EF        		.byte	-17
 3943 0b57 F0        		.byte	-16
 3944 0b58 F0        		.byte	-16
 3945 0b59 F0        		.byte	-16
 3946 0b5a F0        		.byte	-16
 3947 0b5b EF        		.byte	-17
 3948 0b5c ED        		.byte	-19
 3949 0b5d EF        		.byte	-17
 3950 0b5e EE        		.byte	-18
 3951 0b5f EC        		.byte	-20
 3952 0b60 F1        		.byte	-15
 3953 0b61 F9        		.byte	-7
 3954 0b62 FE        		.byte	-2
 3955 0b63 03        		.byte	3
 3956 0b64 07        		.byte	7
 3957 0b65 0A        		.byte	10
 3958 0b66 0A        		.byte	10
 3959 0b67 05        		.byte	5
 3960 0b68 00        		.byte	0
 3961 0b69 00        		.byte	0
 3962 0b6a FC        		.byte	-4
 3963 0b6b F7        		.byte	-9
 3964 0b6c F6        		.byte	-10
 3965 0b6d F7        		.byte	-9
 3966 0b6e F4        		.byte	-12
 3967 0b6f F2        		.byte	-14
 3968 0b70 F2        		.byte	-14
 3969 0b71 F0        		.byte	-16
 3970 0b72 ED        		.byte	-19
 3971 0b73 EB        		.byte	-21
 3972 0b74 EB        		.byte	-21
 3973 0b75 EE        		.byte	-18
 3974 0b76 F2        		.byte	-14
 3975 0b77 F4        		.byte	-12
 3976 0b78 F7        		.byte	-9
 3977 0b79 F9        		.byte	-7
 3978 0b7a F9        		.byte	-7
 3979 0b7b F7        		.byte	-9
 3980 0b7c F7        		.byte	-9
 3981 0b7d F7        		.byte	-9
 3982 0b7e F7        		.byte	-9
 3983 0b7f F6        		.byte	-10
 3984 0b80 F6        		.byte	-10
 3985 0b81 F6        		.byte	-10
 3986 0b82 F7        		.byte	-9
 3987 0b83 F6        		.byte	-10
 3988 0b84 F6        		.byte	-10
 3989 0b85 F6        		.byte	-10
 3990 0b86 F4        		.byte	-12
 3991 0b87 F2        		.byte	-14
 3992 0b88 F3        		.byte	-13
 3993 0b89 F4        		.byte	-12
 3994 0b8a F6        		.byte	-10
 3995 0b8b F9        		.byte	-7
GAS LISTING /tmp/ccLsnRQw.s 			page 73


 3996 0b8c FB        		.byte	-5
 3997 0b8d FC        		.byte	-4
 3998 0b8e FC        		.byte	-4
 3999 0b8f FC        		.byte	-4
 4000 0b90 FD        		.byte	-3
 4001 0b91 FF        		.byte	-1
 4002 0b92 01        		.byte	1
 4003 0b93 03        		.byte	3
 4004 0b94 05        		.byte	5
 4005 0b95 08        		.byte	8
 4006 0b96 0B        		.byte	11
 4007 0b97 0C        		.byte	12
 4008 0b98 0E        		.byte	14
 4009 0b99 11        		.byte	17
 4010 0b9a 14        		.byte	20
 4011 0b9b 16        		.byte	22
 4012 0b9c 18        		.byte	24
 4013 0b9d 1B        		.byte	27
 4014 0b9e 1E        		.byte	30
 4015 0b9f 1E        		.byte	30
 4016 0ba0 1F        		.byte	31
 4017 0ba1 21        		.byte	33
 4018 0ba2 22        		.byte	34
 4019 0ba3 21        		.byte	33
 4020 0ba4 21        		.byte	33
 4021 0ba5 25        		.byte	37
 4022 0ba6 25        		.byte	37
 4023 0ba7 26        		.byte	38
 4024 0ba8 2B        		.byte	43
 4025 0ba9 32        		.byte	50
 4026 0baa 32        		.byte	50
 4027 0bab 1C        		.byte	28
 4028 0bac F4        		.byte	-12
 4029 0bad DD        		.byte	-35
 4030 0bae DE        		.byte	-34
 4031 0baf DD        		.byte	-35
 4032 0bb0 E2        		.byte	-30
 4033 0bb1 F9        		.byte	-7
 4034 0bb2 00        		.byte	0
 4035 0bb3 F6        		.byte	-10
 4036 0bb4 F9        		.byte	-7
 4037 0bb5 FC        		.byte	-4
 4038 0bb6 F5        		.byte	-11
 4039 0bb7 F9        		.byte	-7
 4040 0bb8 04        		.byte	4
 4041 0bb9 05        		.byte	5
 4042 0bba 0A        		.byte	10
 4043 0bbb 13        		.byte	19
 4044 0bbc 13        		.byte	19
 4045 0bbd 17        		.byte	23
 4046 0bbe 21        		.byte	33
 4047 0bbf 1E        		.byte	30
 4048 0bc0 0D        		.byte	13
 4049 0bc1 FF        		.byte	-1
 4050 0bc2 F3        		.byte	-13
 4051 0bc3 E7        		.byte	-25
 4052 0bc4 E4        		.byte	-28
GAS LISTING /tmp/ccLsnRQw.s 			page 74


 4053 0bc5 E3        		.byte	-29
 4054 0bc6 E4        		.byte	-28
 4055 0bc7 ED        		.byte	-19
 4056 0bc8 F4        		.byte	-12
 4057 0bc9 F0        		.byte	-16
 4058 0bca EC        		.byte	-20
 4059 0bcb F0        		.byte	-16
 4060 0bcc F1        		.byte	-15
 4061 0bcd F0        		.byte	-16
 4062 0bce F5        		.byte	-11
 4063 0bcf FC        		.byte	-4
 4064 0bd0 03        		.byte	3
 4065 0bd1 0D        		.byte	13
 4066 0bd2 16        		.byte	22
 4067 0bd3 18        		.byte	24
 4068 0bd4 19        		.byte	25
 4069 0bd5 17        		.byte	23
 4070 0bd6 0C        		.byte	12
 4071 0bd7 02        		.byte	2
 4072 0bd8 FD        		.byte	-3
 4073 0bd9 F6        		.byte	-10
 4074 0bda F0        		.byte	-16
 4075 0bdb F1        		.byte	-15
 4076 0bdc F2        		.byte	-14
 4077 0bdd F2        		.byte	-14
 4078 0bde F1        		.byte	-15
 4079 0bdf EF        		.byte	-17
 4080 0be0 EC        		.byte	-20
 4081 0be1 ED        		.byte	-19
 4082 0be2 ED        		.byte	-19
 4083 0be3 EC        		.byte	-20
 4084 0be4 F0        		.byte	-16
 4085 0be5 F9        		.byte	-7
 4086 0be6 00        		.byte	0
 4087 0be7 04        		.byte	4
 4088 0be8 07        		.byte	7
 4089 0be9 0A        		.byte	10
 4090 0bea 09        		.byte	9
 4091 0beb 02        		.byte	2
 4092 0bec FD        		.byte	-3
 4093 0bed FE        		.byte	-2
 4094 0bee FD        		.byte	-3
 4095 0bef F7        		.byte	-9
 4096 0bf0 F8        		.byte	-8
 4097 0bf1 FA        		.byte	-6
 4098 0bf2 F6        		.byte	-10
 4099 0bf3 F2        		.byte	-14
 4100 0bf4 F1        		.byte	-15
 4101 0bf5 EF        		.byte	-17
 4102 0bf6 ED        		.byte	-19
 4103 0bf7 EC        		.byte	-20
 4104 0bf8 EC        		.byte	-20
 4105 0bf9 F1        		.byte	-15
 4106 0bfa F5        		.byte	-11
 4107 0bfb F4        		.byte	-12
 4108 0bfc F7        		.byte	-9
 4109 0bfd FC        		.byte	-4
GAS LISTING /tmp/ccLsnRQw.s 			page 75


 4110 0bfe FA        		.byte	-6
 4111 0bff F6        		.byte	-10
 4112 0c00 F5        		.byte	-11
 4113 0c01 F5        		.byte	-11
 4114 0c02 F5        		.byte	-11
 4115 0c03 F5        		.byte	-11
 4116 0c04 F6        		.byte	-10
 4117 0c05 F8        		.byte	-8
 4118 0c06 F8        		.byte	-8
 4119 0c07 F5        		.byte	-11
 4120 0c08 F4        		.byte	-12
 4121 0c09 F4        		.byte	-12
 4122 0c0a F2        		.byte	-14
 4123 0c0b F2        		.byte	-14
 4124 0c0c F5        		.byte	-11
 4125 0c0d F8        		.byte	-8
 4126 0c0e FA        		.byte	-6
 4127 0c0f FA        		.byte	-6
 4128 0c10 FB        		.byte	-5
 4129 0c11 FD        		.byte	-3
 4130 0c12 FD        		.byte	-3
 4131 0c13 FC        		.byte	-4
 4132 0c14 FE        		.byte	-2
 4133 0c15 00        		.byte	0
 4134 0c16 01        		.byte	1
 4135 0c17 03        		.byte	3
 4136 0c18 06        		.byte	6
 4137 0c19 09        		.byte	9
 4138 0c1a 0B        		.byte	11
 4139 0c1b 0C        		.byte	12
 4140 0c1c 0E        		.byte	14
 4141 0c1d 10        		.byte	16
 4142 0c1e 12        		.byte	18
 4143 0c1f 15        		.byte	21
 4144 0c20 18        		.byte	24
 4145 0c21 1C        		.byte	28
 4146 0c22 1D        		.byte	29
 4147 0c23 1E        		.byte	30
 4148 0c24 1F        		.byte	31
 4149 0c25 21        		.byte	33
 4150 0c26 22        		.byte	34
 4151 0c27 22        		.byte	34
 4152 0c28 21        		.byte	33
 4153 0c29 23        		.byte	35
 4154 0c2a 27        		.byte	39
 4155 0c2b 29        		.byte	41
 4156 0c2c 2C        		.byte	44
 4157 0c2d 34        		.byte	52
 4158 0c2e 33        		.byte	51
 4159 0c2f 18        		.byte	24
 4160 0c30 EF        		.byte	-17
 4161 0c31 DC        		.byte	-36
 4162 0c32 DD        		.byte	-35
 4163 0c33 DB        		.byte	-37
 4164 0c34 E5        		.byte	-27
 4165 0c35 FB        		.byte	-5
 4166 0c36 FF        		.byte	-1
GAS LISTING /tmp/ccLsnRQw.s 			page 76


 4167 0c37 F6        		.byte	-10
 4168 0c38 F9        		.byte	-7
 4169 0c39 FA        		.byte	-6
 4170 0c3a F3        		.byte	-13
 4171 0c3b F9        		.byte	-7
 4172 0c3c 03        		.byte	3
 4173 0c3d 05        		.byte	5
 4174 0c3e 0C        		.byte	12
 4175 0c3f 16        		.byte	22
 4176 0c40 15        		.byte	21
 4177 0c41 1A        		.byte	26
 4178 0c42 23        		.byte	35
 4179 0c43 1E        		.byte	30
 4180 0c44 0C        		.byte	12
 4181 0c45 FE        		.byte	-2
 4182 0c46 F1        		.byte	-15
 4183 0c47 E6        		.byte	-26
 4184 0c48 E4        		.byte	-28
 4185 0c49 E4        		.byte	-28
 4186 0c4a E6        		.byte	-26
 4187 0c4b EE        		.byte	-18
 4188 0c4c F4        		.byte	-12
 4189 0c4d EF        		.byte	-17
 4190 0c4e EB        		.byte	-21
 4191 0c4f ED        		.byte	-19
 4192 0c50 EE        		.byte	-18
 4193 0c51 EE        		.byte	-18
 4194 0c52 F5        		.byte	-11
 4195 0c53 FD        		.byte	-3
 4196 0c54 05        		.byte	5
 4197 0c55 10        		.byte	16
 4198 0c56 18        		.byte	24
 4199 0c57 19        		.byte	25
 4200 0c58 19        		.byte	25
 4201 0c59 16        		.byte	22
 4202 0c5a 0B        		.byte	11
 4203 0c5b 01        		.byte	1
 4204 0c5c FC        		.byte	-4
 4205 0c5d F6        		.byte	-10
 4206 0c5e F1        		.byte	-15
 4207 0c5f F2        		.byte	-14
 4208 0c60 F4        		.byte	-12
 4209 0c61 F3        		.byte	-13
 4210 0c62 F1        		.byte	-15
 4211 0c63 EF        		.byte	-17
 4212 0c64 EB        		.byte	-21
 4213 0c65 EA        		.byte	-22
 4214 0c66 EB        		.byte	-21
 4215 0c67 EB        		.byte	-21
 4216 0c68 F0        		.byte	-16
 4217 0c69 F9        		.byte	-7
 4218 0c6a FF        		.byte	-1
 4219 0c6b 03        		.byte	3
 4220 0c6c 09        		.byte	9
 4221 0c6d 0B        		.byte	11
 4222 0c6e 08        		.byte	8
 4223 0c6f 04        		.byte	4
GAS LISTING /tmp/ccLsnRQw.s 			page 77


 4224 0c70 01        		.byte	1
 4225 0c71 FE        		.byte	-2
 4226 0c72 FD        		.byte	-3
 4227 0c73 FC        		.byte	-4
 4228 0c74 FA        		.byte	-6
 4229 0c75 FA        		.byte	-6
 4230 0c76 F7        		.byte	-9
 4231 0c77 F3        		.byte	-13
 4232 0c78 F0        		.byte	-16
 4233 0c79 EF        		.byte	-17
 4234 0c7a ED        		.byte	-19
 4235 0c7b EC        		.byte	-20
 4236 0c7c ED        		.byte	-19
 4237 0c7d EE        		.byte	-18
 4238 0c7e EF        		.byte	-17
 4239 0c7f F2        		.byte	-14
 4240 0c80 F5        		.byte	-11
 4241 0c81 F8        		.byte	-8
 4242 0c82 F8        		.byte	-8
 4243 0c83 F7        		.byte	-9
 4244 0c84 F8        		.byte	-8
 4245 0c85 F8        		.byte	-8
 4246 0c86 F7        		.byte	-9
 4247 0c87 F7        		.byte	-9
 4248 0c88 F7        		.byte	-9
 4249 0c89 F7        		.byte	-9
 4250 0c8a F7        		.byte	-9
 4251 0c8b F6        		.byte	-10
 4252 0c8c F5        		.byte	-11
 4253 0c8d F5        		.byte	-11
 4254 0c8e F6        		.byte	-10
 4255 0c8f F6        		.byte	-10
 4256 0c90 F7        		.byte	-9
 4257 0c91 F7        		.byte	-9
 4258 0c92 F8        		.byte	-8
 4259 0c93 F8        		.byte	-8
 4260 0c94 F9        		.byte	-7
 4261 0c95 FB        		.byte	-5
 4262 0c96 FD        		.byte	-3
 4263 0c97 FE        		.byte	-2
 4264 0c98 00        		.byte	0
 4265 0c99 02        		.byte	2
 4266 0c9a 04        		.byte	4
 4267 0c9b 05        		.byte	5
 4268 0c9c 07        		.byte	7
 4269 0c9d 09        		.byte	9
 4270 0c9e 0C        		.byte	12
 4271 0c9f 0D        		.byte	13
 4272 0ca0 10        		.byte	16
 4273 0ca1 12        		.byte	18
 4274 0ca2 15        		.byte	21
 4275 0ca3 16        		.byte	22
 4276 0ca4 19        		.byte	25
 4277 0ca5 1C        		.byte	28
 4278 0ca6 1D        		.byte	29
 4279 0ca7 1D        		.byte	29
 4280 0ca8 1F        		.byte	31
GAS LISTING /tmp/ccLsnRQw.s 			page 78


 4281 0ca9 1F        		.byte	31
 4282 0caa 1E        		.byte	30
 4283 0cab 21        		.byte	33
 4284 0cac 24        		.byte	36
 4285 0cad 25        		.byte	37
 4286 0cae 27        		.byte	39
 4287 0caf 2B        		.byte	43
 4288 0cb0 2D        		.byte	45
 4289 0cb1 32        		.byte	50
 4290 0cb2 2B        		.byte	43
 4291 0cb3 06        		.byte	6
 4292 0cb4 E1        		.byte	-31
 4293 0cb5 DD        		.byte	-35
 4294 0cb6 DF        		.byte	-33
 4295 0cb7 DD        		.byte	-35
 4296 0cb8 F0        		.byte	-16
 4297 0cb9 03        		.byte	3
 4298 0cba FA        		.byte	-6
 4299 0cbb F5        		.byte	-11
 4300 0cbc FB        		.byte	-5
 4301 0cbd F4        		.byte	-12
 4302 0cbe EF        		.byte	-17
 4303 0cbf FD        		.byte	-3
 4304 0cc0 04        		.byte	4
 4305 0cc1 06        		.byte	6
 4306 0cc2 12        		.byte	18
 4307 0cc3 18        		.byte	24
 4308 0cc4 15        		.byte	21
 4309 0cc5 1D        		.byte	29
 4310 0cc6 23        		.byte	35
 4311 0cc7 15        		.byte	21
 4312 0cc8 03        		.byte	3
 4313 0cc9 F8        		.byte	-8
 4314 0cca EC        		.byte	-20
 4315 0ccb E4        		.byte	-28
 4316 0ccc E6        		.byte	-26
 4317 0ccd E7        		.byte	-25
 4318 0cce EA        		.byte	-22
 4319 0ccf F2        		.byte	-14
 4320 0cd0 F4        		.byte	-12
 4321 0cd1 EB        		.byte	-21
 4322 0cd2 E8        		.byte	-24
 4323 0cd3 EC        		.byte	-20
 4324 0cd4 EB        		.byte	-21
 4325 0cd5 EE        		.byte	-18
 4326 0cd6 F9        		.byte	-7
 4327 0cd7 01        		.byte	1
 4328 0cd8 09        		.byte	9
 4329 0cd9 14        		.byte	20
 4330 0cda 1A        		.byte	26
 4331 0cdb 18        		.byte	24
 4332 0cdc 17        		.byte	23
 4333 0cdd 11        		.byte	17
 4334 0cde 05        		.byte	5
 4335 0cdf FE        		.byte	-2
 4336 0ce0 FC        		.byte	-4
 4337 0ce1 F6        		.byte	-10
GAS LISTING /tmp/ccLsnRQw.s 			page 79


 4338 0ce2 F3        		.byte	-13
 4339 0ce3 F6        		.byte	-10
 4340 0ce4 F6        		.byte	-10
 4341 0ce5 F3        		.byte	-13
 4342 0ce6 F0        		.byte	-16
 4343 0ce7 EC        		.byte	-20
 4344 0ce8 E8        		.byte	-24
 4345 0ce9 E9        		.byte	-23
 4346 0cea EA        		.byte	-22
 4347 0ceb EC        		.byte	-20
 4348 0cec F5        		.byte	-11
 4349 0ced FF        		.byte	-1
 4350 0cee 04        		.byte	4
 4351 0cef 07        		.byte	7
 4352 0cf0 0A        		.byte	10
 4353 0cf1 0A        		.byte	10
 4354 0cf2 05        		.byte	5
 4355 0cf3 FF        		.byte	-1
 4356 0cf4 FD        		.byte	-3
 4357 0cf5 FE        		.byte	-2
 4358 0cf6 FC        		.byte	-4
 4359 0cf7 FB        		.byte	-5
 4360 0cf8 FD        		.byte	-3
 4361 0cf9 FD        		.byte	-3
 4362 0cfa F7        		.byte	-9
 4363 0cfb F2        		.byte	-14
 4364 0cfc EF        		.byte	-17
 4365 0cfd EB        		.byte	-21
 4366 0cfe E9        		.byte	-23
 4367 0cff E9        		.byte	-23
 4368 0d00 EC        		.byte	-20
 4369 0d01 F1        		.byte	-15
 4370 0d02 F4        		.byte	-12
 4371 0d03 F6        		.byte	-10
 4372 0d04 F9        		.byte	-7
 4373 0d05 FB        		.byte	-5
 4374 0d06 F8        		.byte	-8
 4375 0d07 F5        		.byte	-11
 4376 0d08 F5        		.byte	-11
 4377 0d09 F5        		.byte	-11
 4378 0d0a F5        		.byte	-11
 4379 0d0b F6        		.byte	-10
 4380 0d0c F7        		.byte	-9
 4381 0d0d F8        		.byte	-8
 4382 0d0e F7        		.byte	-9
 4383 0d0f F5        		.byte	-11
 4384 0d10 F5        		.byte	-11
 4385 0d11 F5        		.byte	-11
 4386 0d12 F4        		.byte	-12
 4387 0d13 F4        		.byte	-12
 4388 0d14 F6        		.byte	-10
 4389 0d15 F8        		.byte	-8
 4390 0d16 F9        		.byte	-7
 4391 0d17 FB        		.byte	-5
 4392 0d18 FD        		.byte	-3
 4393 0d19 FE        		.byte	-2
 4394 0d1a FE        		.byte	-2
GAS LISTING /tmp/ccLsnRQw.s 			page 80


 4395 0d1b FE        		.byte	-2
 4396 0d1c FF        		.byte	-1
 4397 0d1d 00        		.byte	0
 4398 0d1e 01        		.byte	1
 4399 0d1f 03        		.byte	3
 4400 0d20 06        		.byte	6
 4401 0d21 08        		.byte	8
 4402 0d22 0A        		.byte	10
 4403 0d23 0C        		.byte	12
 4404 0d24 0D        		.byte	13
 4405 0d25 10        		.byte	16
 4406 0d26 12        		.byte	18
 4407 0d27 15        		.byte	21
 4408 0d28 18        		.byte	24
 4409 0d29 1A        		.byte	26
 4410 0d2a 1A        		.byte	26
 4411 0d2b 1C        		.byte	28
 4412 0d2c 1F        		.byte	31
 4413 0d2d 20        		.byte	32
 4414 0d2e 21        		.byte	33
 4415 0d2f 21        		.byte	33
 4416 0d30 22        		.byte	34
 4417 0d31 24        		.byte	36
 4418 0d32 25        		.byte	37
 4419 0d33 27        		.byte	39
 4420 0d34 2B        		.byte	43
 4421 0d35 2E        		.byte	46
 4422 0d36 2E        		.byte	46
 4423 0d37 1C        		.byte	28
 4424 0d38 F7        		.byte	-9
 4425 0d39 DD        		.byte	-35
 4426 0d3a DD        		.byte	-35
 4427 0d3b DF        		.byte	-33
 4428 0d3c E5        		.byte	-27
 4429 0d3d F8        		.byte	-8
 4430 0d3e 00        		.byte	0
 4431 0d3f F7        		.byte	-9
 4432 0d40 F6        		.byte	-10
 4433 0d41 F8        		.byte	-8
 4434 0d42 F1        		.byte	-15
 4435 0d43 F4        		.byte	-12
 4436 0d44 00        		.byte	0
 4437 0d45 06        		.byte	6
 4438 0d46 0C        		.byte	12
 4439 0d47 15        		.byte	21
 4440 0d48 17        		.byte	23
 4441 0d49 18        		.byte	24
 4442 0d4a 1F        		.byte	31
 4443 0d4b 1D        		.byte	29
 4444 0d4c 0D        		.byte	13
 4445 0d4d FE        		.byte	-2
 4446 0d4e F4        		.byte	-12
 4447 0d4f EA        		.byte	-22
 4448 0d50 E5        		.byte	-27
 4449 0d51 E8        		.byte	-24
 4450 0d52 E9        		.byte	-23
 4451 0d53 ED        		.byte	-19
GAS LISTING /tmp/ccLsnRQw.s 			page 81


 4452 0d54 F3        		.byte	-13
 4453 0d55 F0        		.byte	-16
 4454 0d56 E8        		.byte	-24
 4455 0d57 E7        		.byte	-25
 4456 0d58 EB        		.byte	-21
 4457 0d59 EC        		.byte	-20
 4458 0d5a F2        		.byte	-14
 4459 0d5b FE        		.byte	-2
 4460 0d5c 06        		.byte	6
 4461 0d5d 0E        		.byte	14
 4462 0d5e 17        		.byte	23
 4463 0d5f 1A        		.byte	26
 4464 0d60 17        		.byte	23
 4465 0d61 14        		.byte	20
 4466 0d62 0C        		.byte	12
 4467 0d63 03        		.byte	3
 4468 0d64 FE        		.byte	-2
 4469 0d65 FB        		.byte	-5
 4470 0d66 F6        		.byte	-10
 4471 0d67 F6        		.byte	-10
 4472 0d68 F8        		.byte	-8
 4473 0d69 F6        		.byte	-10
 4474 0d6a F1        		.byte	-15
 4475 0d6b ED        		.byte	-19
 4476 0d6c E9        		.byte	-23
 4477 0d6d E7        		.byte	-25
 4478 0d6e E8        		.byte	-24
 4479 0d6f EB        		.byte	-21
 4480 0d70 F0        		.byte	-16
 4481 0d71 FA        		.byte	-6
 4482 0d72 03        		.byte	3
 4483 0d73 07        		.byte	7
 4484 0d74 0B        		.byte	11
 4485 0d75 0C        		.byte	12
 4486 0d76 09        		.byte	9
 4487 0d77 05        		.byte	5
 4488 0d78 01        		.byte	1
 4489 0d79 FE        		.byte	-2
 4490 0d7a FD        		.byte	-3
 4491 0d7b FD        		.byte	-3
 4492 0d7c FC        		.byte	-4
 4493 0d7d FD        		.byte	-3
 4494 0d7e FC        		.byte	-4
 4495 0d7f F6        		.byte	-10
 4496 0d80 F0        		.byte	-16
 4497 0d81 ED        		.byte	-19
 4498 0d82 E9        		.byte	-23
 4499 0d83 E7        		.byte	-25
 4500 0d84 E9        		.byte	-23
 4501 0d85 EC        		.byte	-20
 4502 0d86 F1        		.byte	-15
 4503 0d87 F5        		.byte	-11
 4504 0d88 F7        		.byte	-9
 4505 0d89 F9        		.byte	-7
 4506 0d8a FA        		.byte	-6
 4507 0d8b F8        		.byte	-8
 4508 0d8c F7        		.byte	-9
GAS LISTING /tmp/ccLsnRQw.s 			page 82


 4509 0d8d F7        		.byte	-9
 4510 0d8e F6        		.byte	-10
 4511 0d8f F6        		.byte	-10
 4512 0d90 F8        		.byte	-8
 4513 0d91 F9        		.byte	-7
 4514 0d92 FA        		.byte	-6
 4515 0d93 FA        		.byte	-6
 4516 0d94 F7        		.byte	-9
 4517 0d95 F5        		.byte	-11
 4518 0d96 F3        		.byte	-13
 4519 0d97 F0        		.byte	-16
 4520 0d98 F0        		.byte	-16
 4521 0d99 F3        		.byte	-13
 4522 0d9a F6        		.byte	-10
 4523 0d9b FA        		.byte	-6
 4524 0d9c FC        		.byte	-4
 4525 0d9d FD        		.byte	-3
 4526 0d9e FC        		.byte	-4
 4527 0d9f FB        		.byte	-5
 4528 0da0 FB        		.byte	-5
 4529 0da1 FD        		.byte	-3
 4530 0da2 FF        		.byte	-1
 4531 0da3 01        		.byte	1
 4532 0da4 04        		.byte	4
 4533 0da5 06        		.byte	6
 4534 0da6 08        		.byte	8
 4535 0da7 0A        		.byte	10
 4536 0da8 0B        		.byte	11
 4537 0da9 0C        		.byte	12
 4538 0daa 0D        		.byte	13
 4539 0dab 0F        		.byte	15
 4540 0dac 11        		.byte	17
 4541 0dad 14        		.byte	20
 4542 0dae 16        		.byte	22
 4543 0daf 18        		.byte	24
 4544 0db0 19        		.byte	25
 4545 0db1 1A        		.byte	26
 4546 0db2 1C        		.byte	28
 4547 0db3 1C        		.byte	28
 4548 0db4 1D        		.byte	29
 4549 0db5 1F        		.byte	31
 4550 0db6 20        		.byte	32
 4551 0db7 21        		.byte	33
 4552 0db8 24        		.byte	36
 4553 0db9 27        		.byte	39
 4554 0dba 28        		.byte	40
 4555 0dbb 2B        		.byte	43
 4556 0dbc 31        		.byte	49
 4557 0dbd 2D        		.byte	45
 4558 0dbe 11        		.byte	17
 4559 0dbf EC        		.byte	-20
 4560 0dc0 DD        		.byte	-35
 4561 0dc1 DE        		.byte	-34
 4562 0dc2 E1        		.byte	-31
 4563 0dc3 ED        		.byte	-19
 4564 0dc4 FE        		.byte	-2
 4565 0dc5 FE        		.byte	-2
GAS LISTING /tmp/ccLsnRQw.s 			page 83


 4566 0dc6 F5        		.byte	-11
 4567 0dc7 F5        		.byte	-11
 4568 0dc8 F2        		.byte	-14
 4569 0dc9 ED        		.byte	-19
 4570 0dca F5        		.byte	-11
 4571 0dcb 00        		.byte	0
 4572 0dcc 08        		.byte	8
 4573 0dcd 11        		.byte	17
 4574 0dce 16        		.byte	22
 4575 0dcf 17        		.byte	23
 4576 0dd0 1C        		.byte	28
 4577 0dd1 20        		.byte	32
 4578 0dd2 18        		.byte	24
 4579 0dd3 09        		.byte	9
 4580 0dd4 FC        		.byte	-4
 4581 0dd5 F2        		.byte	-14
 4582 0dd6 EB        		.byte	-21
 4583 0dd7 EA        		.byte	-22
 4584 0dd8 EC        		.byte	-20
 4585 0dd9 ED        		.byte	-19
 4586 0dda F2        		.byte	-14
 4587 0ddb F4        		.byte	-12
 4588 0ddc EC        		.byte	-20
 4589 0ddd E4        		.byte	-28
 4590 0dde E5        		.byte	-27
 4591 0ddf E8        		.byte	-24
 4592 0de0 EB        		.byte	-21
 4593 0de1 F5        		.byte	-11
 4594 0de2 00        		.byte	0
 4595 0de3 09        		.byte	9
 4596 0de4 12        		.byte	18
 4597 0de5 18        		.byte	24
 4598 0de6 18        		.byte	24
 4599 0de7 15        		.byte	21
 4600 0de8 11        		.byte	17
 4601 0de9 09        		.byte	9
 4602 0dea 03        		.byte	3
 4603 0deb 00        		.byte	0
 4604 0dec FE        		.byte	-2
 4605 0ded FB        		.byte	-5
 4606 0dee FB        		.byte	-5
 4607 0def FB        		.byte	-5
 4608 0df0 F7        		.byte	-9
 4609 0df1 F0        		.byte	-16
 4610 0df2 EA        		.byte	-22
 4611 0df3 E6        		.byte	-26
 4612 0df4 E5        		.byte	-27
 4613 0df5 E7        		.byte	-25
 4614 0df6 EA        		.byte	-22
 4615 0df7 F2        		.byte	-14
 4616 0df8 FC        		.byte	-4
 4617 0df9 04        		.byte	4
 4618 0dfa 08        		.byte	8
 4619 0dfb 0C        		.byte	12
 4620 0dfc 0D        		.byte	13
 4621 0dfd 09        		.byte	9
 4622 0dfe 06        		.byte	6
GAS LISTING /tmp/ccLsnRQw.s 			page 84


 4623 0dff 06        		.byte	6
 4624 0e00 04        		.byte	4
 4625 0e01 02        		.byte	2
 4626 0e02 FE        		.byte	-2
 4627 0e03 F9        		.byte	-7
 4628 0e04 F7        		.byte	-9
 4629 0e05 F7        		.byte	-9
 4630 0e06 F4        		.byte	-12
 4631 0e07 F1        		.byte	-15
 4632 0e08 F0        		.byte	-16
 4633 0e09 EA        		.byte	-22
 4634 0e0a E4        		.byte	-28
 4635 0e0b E5        		.byte	-27
 4636 0e0c E9        		.byte	-23
 4637 0e0d EC        		.byte	-20
 4638 0e0e F3        		.byte	-13
 4639 0e0f F8        		.byte	-8
 4640 0e10 FC        		.byte	-4
 4641 0e11 FC        		.byte	-4
 4642 0e12 F8        		.byte	-8
 4643 0e13 F7        		.byte	-9
 4644 0e14 F8        		.byte	-8
 4645 0e15 F7        		.byte	-9
 4646 0e16 F6        		.byte	-10
 4647 0e17 F8        		.byte	-8
 4648 0e18 F9        		.byte	-7
 4649 0e19 F8        		.byte	-8
 4650 0e1a F7        		.byte	-9
 4651 0e1b F7        		.byte	-9
 4652 0e1c F6        		.byte	-10
 4653 0e1d F4        		.byte	-12
 4654 0e1e F2        		.byte	-14
 4655 0e1f F2        		.byte	-14
 4656 0e20 F3        		.byte	-13
 4657 0e21 F3        		.byte	-13
 4658 0e22 F7        		.byte	-9
 4659 0e23 FB        		.byte	-5
 4660 0e24 FD        		.byte	-3
 4661 0e25 FE        		.byte	-2
 4662 0e26 FE        		.byte	-2
 4663 0e27 FE        		.byte	-2
 4664 0e28 FE        		.byte	-2
 4665 0e29 FE        		.byte	-2
 4666 0e2a FF        		.byte	-1
 4667 0e2b 02        		.byte	2
 4668 0e2c 04        		.byte	4
 4669 0e2d 06        		.byte	6
 4670 0e2e 08        		.byte	8
 4671 0e2f 0A        		.byte	10
 4672 0e30 0B        		.byte	11
 4673 0e31 0C        		.byte	12
 4674 0e32 0E        		.byte	14
 4675 0e33 0F        		.byte	15
 4676 0e34 11        		.byte	17
 4677 0e35 13        		.byte	19
 4678 0e36 15        		.byte	21
 4679 0e37 18        		.byte	24
GAS LISTING /tmp/ccLsnRQw.s 			page 85


 4680 0e38 19        		.byte	25
 4681 0e39 1B        		.byte	27
 4682 0e3a 1B        		.byte	27
 4683 0e3b 1C        		.byte	28
 4684 0e3c 1D        		.byte	29
 4685 0e3d 1D        		.byte	29
 4686 0e3e 1F        		.byte	31
 4687 0e3f 21        		.byte	33
 4688 0e40 23        		.byte	35
 4689 0e41 25        		.byte	37
 4690 0e42 29        		.byte	41
 4691 0e43 2B        		.byte	43
 4692 0e44 30        		.byte	48
 4693 0e45 2C        		.byte	44
 4694 0e46 0F        		.byte	15
 4695 0e47 EB        		.byte	-21
 4696 0e48 DD        		.byte	-35
 4697 0e49 DE        		.byte	-34
 4698 0e4a E2        		.byte	-30
 4699 0e4b F0        		.byte	-16
 4700 0e4c FF        		.byte	-1
 4701 0e4d FD        		.byte	-3
 4702 0e4e F5        		.byte	-11
 4703 0e4f F2        		.byte	-14
 4704 0e50 EE        		.byte	-18
 4705 0e51 EB        		.byte	-21
 4706 0e52 F2        		.byte	-14
 4707 0e53 FE        		.byte	-2
 4708 0e54 08        		.byte	8
 4709 0e55 11        		.byte	17
 4710 0e56 15        		.byte	21
 4711 0e57 18        		.byte	24
 4712 0e58 1D        		.byte	29
 4713 0e59 1F        		.byte	31
 4714 0e5a 17        		.byte	23
 4715 0e5b 09        		.byte	9
 4716 0e5c FC        		.byte	-4
 4717 0e5d F3        		.byte	-13
 4718 0e5e EE        		.byte	-18
 4719 0e5f ED        		.byte	-19
 4720 0e60 EF        		.byte	-17
 4721 0e61 F1        		.byte	-15
 4722 0e62 F5        		.byte	-11
 4723 0e63 F3        		.byte	-13
 4724 0e64 EA        		.byte	-22
 4725 0e65 E3        		.byte	-29
 4726 0e66 E2        		.byte	-30
 4727 0e67 E5        		.byte	-27
 4728 0e68 EA        		.byte	-22
 4729 0e69 F4        		.byte	-12
 4730 0e6a 00        		.byte	0
 4731 0e6b 09        		.byte	9
 4732 0e6c 11        		.byte	17
 4733 0e6d 17        		.byte	23
 4734 0e6e 17        		.byte	23
 4735 0e6f 14        		.byte	20
 4736 0e70 0F        		.byte	15
GAS LISTING /tmp/ccLsnRQw.s 			page 86


 4737 0e71 0A        		.byte	10
 4738 0e72 05        		.byte	5
 4739 0e73 03        		.byte	3
 4740 0e74 01        		.byte	1
 4741 0e75 00        		.byte	0
 4742 0e76 00        		.byte	0
 4743 0e77 FE        		.byte	-2
 4744 0e78 F8        		.byte	-8
 4745 0e79 F0        		.byte	-16
 4746 0e7a E9        		.byte	-23
 4747 0e7b E5        		.byte	-27
 4748 0e7c E4        		.byte	-28
 4749 0e7d E5        		.byte	-27
 4750 0e7e E8        		.byte	-24
 4751 0e7f F1        		.byte	-15
 4752 0e80 FA        		.byte	-6
 4753 0e81 01        		.byte	1
 4754 0e82 05        		.byte	5
 4755 0e83 08        		.byte	8
 4756 0e84 09        		.byte	9
 4757 0e85 07        		.byte	7
 4758 0e86 05        		.byte	5
 4759 0e87 06        		.byte	6
 4760 0e88 08        		.byte	8
 4761 0e89 09        		.byte	9
 4762 0e8a 0A        		.byte	10
 4763 0e8b 0A        		.byte	10
 4764 0e8c 03        		.byte	3
 4765 0e8d F5        		.byte	-11
 4766 0e8e EB        		.byte	-21
 4767 0e8f E8        		.byte	-24
 4768 0e90 E7        		.byte	-25
 4769 0e91 E9        		.byte	-23
 4770 0e92 EC        		.byte	-20
 4771 0e93 ED        		.byte	-19
 4772 0e94 EB        		.byte	-21
 4773 0e95 EA        		.byte	-22
 4774 0e96 EA        		.byte	-22
 4775 0e97 EE        		.byte	-18
 4776 0e98 F2        		.byte	-14
 4777 0e99 F6        		.byte	-10
 4778 0e9a FB        		.byte	-5
 4779 0e9b FC        		.byte	-4
 4780 0e9c FB        		.byte	-5
 4781 0e9d FC        		.byte	-4
 4782 0e9e FE        		.byte	-2
 4783 0e9f FE        		.byte	-2
 4784 0ea0 FE        		.byte	-2
 4785 0ea1 FB        		.byte	-5
 4786 0ea2 F7        		.byte	-9
 4787 0ea3 F4        		.byte	-12
 4788 0ea4 F2        		.byte	-14
 4789 0ea5 F2        		.byte	-14
 4790 0ea6 F4        		.byte	-12
 4791 0ea7 F5        		.byte	-11
 4792 0ea8 F5        		.byte	-11
 4793 0ea9 F5        		.byte	-11
GAS LISTING /tmp/ccLsnRQw.s 			page 87


 4794 0eaa F4        		.byte	-12
 4795 0eab F3        		.byte	-13
 4796 0eac F5        		.byte	-11
 4797 0ead F8        		.byte	-8
 4798 0eae FC        		.byte	-4
 4799 0eaf FF        		.byte	-1
 4800 0eb0 00        		.byte	0
 4801 0eb1 01        		.byte	1
 4802 0eb2 02        		.byte	2
 4803 0eb3 02        		.byte	2
 4804 0eb4 03        		.byte	3
 4805 0eb5 04        		.byte	4
 4806 0eb6 05        		.byte	5
 4807 0eb7 06        		.byte	6
 4808 0eb8 08        		.byte	8
 4809 0eb9 09        		.byte	9
 4810 0eba 0B        		.byte	11
 4811 0ebb 0D        		.byte	13
 4812 0ebc 0D        		.byte	13
 4813 0ebd 0F        		.byte	15
 4814 0ebe 10        		.byte	16
 4815 0ebf 10        		.byte	16
 4816 0ec0 11        		.byte	17
 4817 0ec1 13        		.byte	19
 4818 0ec2 15        		.byte	21
 4819 0ec3 17        		.byte	23
 4820 0ec4 19        		.byte	25
 4821 0ec5 1C        		.byte	28
 4822 0ec6 1D        		.byte	29
 4823 0ec7 1C        		.byte	28
 4824 0ec8 1C        		.byte	28
 4825 0ec9 1E        		.byte	30
 4826 0eca 20        		.byte	32
 4827 0ecb 22        		.byte	34
 4828 0ecc 25        		.byte	37
 4829 0ecd 28        		.byte	40
 4830 0ece 2C        		.byte	44
 4831 0ecf 2F        		.byte	47
 4832 0ed0 23        		.byte	35
 4833 0ed1 00        		.byte	0
 4834 0ed2 E3        		.byte	-29
 4835 0ed3 DE        		.byte	-34
 4836 0ed4 E2        		.byte	-30
 4837 0ed5 E8        		.byte	-24
 4838 0ed6 F7        		.byte	-9
 4839 0ed7 FF        		.byte	-1
 4840 0ed8 F8        		.byte	-8
 4841 0ed9 F1        		.byte	-15
 4842 0eda F0        		.byte	-16
 4843 0edb EC        		.byte	-20
 4844 0edc EB        		.byte	-21
 4845 0edd F4        		.byte	-12
 4846 0ede 02        		.byte	2
 4847 0edf 0B        		.byte	11
 4848 0ee0 10        		.byte	16
 4849 0ee1 15        		.byte	21
 4850 0ee2 19        		.byte	25
GAS LISTING /tmp/ccLsnRQw.s 			page 88


 4851 0ee3 1D        		.byte	29
 4852 0ee4 1D        		.byte	29
 4853 0ee5 14        		.byte	20
 4854 0ee6 05        		.byte	5
 4855 0ee7 FB        		.byte	-5
 4856 0ee8 F5        		.byte	-11
 4857 0ee9 F2        		.byte	-14
 4858 0eea F1        		.byte	-15
 4859 0eeb F3        		.byte	-13
 4860 0eec F6        		.byte	-10
 4861 0eed F6        		.byte	-10
 4862 0eee F1        		.byte	-15
 4863 0eef E6        		.byte	-26
 4864 0ef0 E0        		.byte	-32
 4865 0ef1 E1        		.byte	-31
 4866 0ef2 E5        		.byte	-27
 4867 0ef3 EB        		.byte	-21
 4868 0ef4 F6        		.byte	-10
 4869 0ef5 02        		.byte	2
 4870 0ef6 0A        		.byte	10
 4871 0ef7 10        		.byte	16
 4872 0ef8 14        		.byte	20
 4873 0ef9 13        		.byte	19
 4874 0efa 0F        		.byte	15
 4875 0efb 0D        		.byte	13
 4876 0efc 0A        		.byte	10
 4877 0efd 07        		.byte	7
 4878 0efe 06        		.byte	6
 4879 0eff 05        		.byte	5
 4880 0f00 05        		.byte	5
 4881 0f01 04        		.byte	4
 4882 0f02 00        		.byte	0
 4883 0f03 F7        		.byte	-9
 4884 0f04 ED        		.byte	-19
 4885 0f05 E8        		.byte	-24
 4886 0f06 E4        		.byte	-28
 4887 0f07 E3        		.byte	-29
 4888 0f08 E5        		.byte	-27
 4889 0f09 EA        		.byte	-22
 4890 0f0a F2        		.byte	-14
 4891 0f0b F9        		.byte	-7
 4892 0f0c FD        		.byte	-3
 4893 0f0d 00        		.byte	0
 4894 0f0e 02        		.byte	2
 4895 0f0f 03        		.byte	3
 4896 0f10 04        		.byte	4
 4897 0f11 05        		.byte	5
 4898 0f12 07        		.byte	7
 4899 0f13 08        		.byte	8
 4900 0f14 09        		.byte	9
 4901 0f15 0B        		.byte	11
 4902 0f16 0A        		.byte	10
 4903 0f17 06        		.byte	6
 4904 0f18 FE        		.byte	-2
 4905 0f19 F4        		.byte	-12
 4906 0f1a EC        		.byte	-20
 4907 0f1b E9        		.byte	-23
GAS LISTING /tmp/ccLsnRQw.s 			page 89


 4908 0f1c E8        		.byte	-24
 4909 0f1d E8        		.byte	-24
 4910 0f1e ED        		.byte	-19
 4911 0f1f F0        		.byte	-16
 4912 0f20 EF        		.byte	-17
 4913 0f21 EC        		.byte	-20
 4914 0f22 EB        		.byte	-21
 4915 0f23 EC        		.byte	-20
 4916 0f24 EE        		.byte	-18
 4917 0f25 F1        		.byte	-15
 4918 0f26 F8        		.byte	-8
 4919 0f27 FE        		.byte	-2
 4920 0f28 FF        		.byte	-1
 4921 0f29 00        		.byte	0
 4922 0f2a 01        		.byte	1
 4923 0f2b FF        		.byte	-1
 4924 0f2c FC        		.byte	-4
 4925 0f2d FB        		.byte	-5
 4926 0f2e FA        		.byte	-6
 4927 0f2f F8        		.byte	-8
 4928 0f30 F6        		.byte	-10
 4929 0f31 F5        		.byte	-11
 4930 0f32 F5        		.byte	-11
 4931 0f33 F5        		.byte	-11
 4932 0f34 F3        		.byte	-13
 4933 0f35 F3        		.byte	-13
 4934 0f36 F5        		.byte	-11
 4935 0f37 F4        		.byte	-12
 4936 0f38 F4        		.byte	-12
 4937 0f39 F6        		.byte	-10
 4938 0f3a F9        		.byte	-7
 4939 0f3b FB        		.byte	-5
 4940 0f3c FE        		.byte	-2
 4941 0f3d 01        		.byte	1
 4942 0f3e 03        		.byte	3
 4943 0f3f 03        		.byte	3
 4944 0f40 03        		.byte	3
 4945 0f41 03        		.byte	3
 4946 0f42 04        		.byte	4
 4947 0f43 05        		.byte	5
 4948 0f44 07        		.byte	7
 4949 0f45 09        		.byte	9
 4950 0f46 09        		.byte	9
 4951 0f47 0A        		.byte	10
 4952 0f48 0B        		.byte	11
 4953 0f49 0B        		.byte	11
 4954 0f4a 0C        		.byte	12
 4955 0f4b 0C        		.byte	12
 4956 0f4c 0E        		.byte	14
 4957 0f4d 0F        		.byte	15
 4958 0f4e 11        		.byte	17
 4959 0f4f 12        		.byte	18
 4960 0f50 14        		.byte	20
 4961 0f51 16        		.byte	22
 4962 0f52 17        		.byte	23
 4963 0f53 17        		.byte	23
 4964 0f54 18        		.byte	24
GAS LISTING /tmp/ccLsnRQw.s 			page 90


 4965 0f55 19        		.byte	25
 4966 0f56 1C        		.byte	28
 4967 0f57 20        		.byte	32
 4968 0f58 22        		.byte	34
 4969 0f59 24        		.byte	36
 4970 0f5a 27        		.byte	39
 4971 0f5b 2A        		.byte	42
 4972 0f5c 2E        		.byte	46
 4973 0f5d 2D        		.byte	45
 4974 0f5e 18        		.byte	24
 4975 0f5f F5        		.byte	-11
 4976 0f60 E0        		.byte	-32
 4977 0f61 E0        		.byte	-32
 4978 0f62 E6        		.byte	-26
 4979 0f63 F1        		.byte	-15
 4980 0f64 FE        		.byte	-2
 4981 0f65 FF        		.byte	-1
 4982 0f66 F4        		.byte	-12
 4983 0f67 EC        		.byte	-20
 4984 0f68 E9        		.byte	-23
 4985 0f69 E4        		.byte	-28
 4986 0f6a E7        		.byte	-25
 4987 0f6b F7        		.byte	-9
 4988 0f6c 07        		.byte	7
 4989 0f6d 0E        		.byte	14
 4990 0f6e 13        		.byte	19
 4991 0f6f 18        		.byte	24
 4992 0f70 1B        		.byte	27
 4993 0f71 1D        		.byte	29
 4994 0f72 1B        		.byte	27
 4995 0f73 10        		.byte	16
 4996 0f74 04        		.byte	4
 4997 0f75 FE        		.byte	-2
 4998 0f76 FB        		.byte	-5
 4999 0f77 F8        		.byte	-8
 5000 0f78 FA        		.byte	-6
 5001 0f79 FC        		.byte	-4
 5002 0f7a FB        		.byte	-5
 5003 0f7b F6        		.byte	-10
 5004 0f7c ED        		.byte	-19
 5005 0f7d E0        		.byte	-32
 5006 0f7e DB        		.byte	-37
 5007 0f7f DE        		.byte	-34
 5008 0f80 E3        		.byte	-29
 5009 0f81 EC        		.byte	-20
 5010 0f82 F9        		.byte	-7
 5011 0f83 02        		.byte	2
 5012 0f84 07        		.byte	7
 5013 0f85 0C        		.byte	12
 5014 0f86 0E        		.byte	14
 5015 0f87 0C        		.byte	12
 5016 0f88 0A        		.byte	10
 5017 0f89 0B        		.byte	11
 5018 0f8a 0B        		.byte	11
 5019 0f8b 0C        		.byte	12
 5020 0f8c 0D        		.byte	13
 5021 0f8d 0D        		.byte	13
GAS LISTING /tmp/ccLsnRQw.s 			page 91


 5022 0f8e 0B        		.byte	11
 5023 0f8f 08        		.byte	8
 5024 0f90 00        		.byte	0
 5025 0f91 F5        		.byte	-11
 5026 0f92 ED        		.byte	-19
 5027 0f93 E8        		.byte	-24
 5028 0f94 E4        		.byte	-28
 5029 0f95 E3        		.byte	-29
 5030 0f96 E6        		.byte	-26
 5031 0f97 EB        		.byte	-21
 5032 0f98 F0        		.byte	-16
 5033 0f99 F5        		.byte	-11
 5034 0f9a F7        		.byte	-9
 5035 0f9b F7        		.byte	-9
 5036 0f9c F9        		.byte	-7
 5037 0f9d FB        		.byte	-5
 5038 0f9e FE        		.byte	-2
 5039 0f9f 03        		.byte	3
 5040 0fa0 09        		.byte	9
 5041 0fa1 0D        		.byte	13
 5042 0fa2 0F        		.byte	15
 5043 0fa3 11        		.byte	17
 5044 0fa4 0F        		.byte	15
 5045 0fa5 0A        		.byte	10
 5046 0fa6 04        		.byte	4
 5047 0fa7 FF        		.byte	-1
 5048 0fa8 F9        		.byte	-7
 5049 0fa9 F1        		.byte	-15
 5050 0faa EC        		.byte	-20
 5051 0fab EC        		.byte	-20
 5052 0fac EC        		.byte	-20
 5053 0fad E9        		.byte	-23
 5054 0fae E9        		.byte	-23
 5055 0faf EB        		.byte	-21
 5056 0fb0 EB        		.byte	-21
 5057 0fb1 EA        		.byte	-22
 5058 0fb2 EC        		.byte	-20
 5059 0fb3 EE        		.byte	-18
 5060 0fb4 EF        		.byte	-17
 5061 0fb5 F2        		.byte	-14
 5062 0fb6 FB        		.byte	-5
 5063 0fb7 02        		.byte	2
 5064 0fb8 03        		.byte	3
 5065 0fb9 03        		.byte	3
 5066 0fba 03        		.byte	3
 5067 0fbb 00        		.byte	0
 5068 0fbc FA        		.byte	-6
 5069 0fbd F8        		.byte	-8
 5070 0fbe F8        		.byte	-8
 5071 0fbf F8        		.byte	-8
 5072 0fc0 F8        		.byte	-8
 5073 0fc1 F8        		.byte	-8
 5074 0fc2 F8        		.byte	-8
 5075 0fc3 F5        		.byte	-11
 5076 0fc4 F1        		.byte	-15
 5077 0fc5 F1        		.byte	-15
 5078 0fc6 F2        		.byte	-14
GAS LISTING /tmp/ccLsnRQw.s 			page 92


 5079 0fc7 F2        		.byte	-14
 5080 0fc8 F3        		.byte	-13
 5081 0fc9 F7        		.byte	-9
 5082 0fca FB        		.byte	-5
 5083 0fcb FD        		.byte	-3
 5084 0fcc FF        		.byte	-1
 5085 0fcd 01        		.byte	1
 5086 0fce 02        		.byte	2
 5087 0fcf 02        		.byte	2
 5088 0fd0 02        		.byte	2
 5089 0fd1 03        		.byte	3
 5090 0fd2 04        		.byte	4
 5091 0fd3 05        		.byte	5
 5092 0fd4 07        		.byte	7
 5093 0fd5 09        		.byte	9
 5094 0fd6 09        		.byte	9
 5095 0fd7 08        		.byte	8
 5096 0fd8 09        		.byte	9
 5097 0fd9 0A        		.byte	10
 5098 0fda 0A        		.byte	10
 5099 0fdb 0B        		.byte	11
 5100 0fdc 0D        		.byte	13
 5101 0fdd 0F        		.byte	15
 5102 0fde 11        		.byte	17
 5103 0fdf 12        		.byte	18
 5104 0fe0 14        		.byte	20
 5105 0fe1 16        		.byte	22
 5106 0fe2 16        		.byte	22
 5107 0fe3 16        		.byte	22
 5108 0fe4 17        		.byte	23
 5109 0fe5 19        		.byte	25
 5110 0fe6 1C        		.byte	28
 5111 0fe7 1F        		.byte	31
 5112 0fe8 22        		.byte	34
 5113 0fe9 23        		.byte	35
 5114 0fea 25        		.byte	37
 5115 0feb 29        		.byte	41
 5116 0fec 2F        		.byte	47
 5117 0fed 30        		.byte	48
 5118 0fee 1E        		.byte	30
 5119 0fef FB        		.byte	-5
 5120 0ff0 E1        		.byte	-31
 5121 0ff1 DF        		.byte	-33
 5122 0ff2 E8        		.byte	-24
 5123 0ff3 F3        		.byte	-13
 5124 0ff4 01        		.byte	1
 5125 0ff5 03        		.byte	3
 5126 0ff6 F6        		.byte	-10
 5127 0ff7 EB        		.byte	-21
 5128 0ff8 E6        		.byte	-26
 5129 0ff9 E0        		.byte	-32
 5130 0ffa E1        		.byte	-31
 5131 0ffb F2        		.byte	-14
 5132 0ffc 05        		.byte	5
 5133 0ffd 0D        		.byte	13
 5134 0ffe 12        		.byte	18
 5135 0fff 16        		.byte	22
GAS LISTING /tmp/ccLsnRQw.s 			page 93


 5136 1000 17        		.byte	23
 5137 1001 19        		.byte	25
 5138 1002 1A        		.byte	26
 5139 1003 11        		.byte	17
 5140 1004 07        		.byte	7
 5141 1005 03        		.byte	3
 5142 1006 01        		.byte	1
 5143 1007 FF        		.byte	-1
 5144 1008 00        		.byte	0
 5145 1009 02        		.byte	2
 5146 100a 00        		.byte	0
 5147 100b F9        		.byte	-7
 5148 100c EF        		.byte	-17
 5149 100d E2        		.byte	-30
 5150 100e D9        		.byte	-39
 5151 100f DB        		.byte	-37
 5152 1010 E1        		.byte	-31
 5153 1011 E8        		.byte	-24
 5154 1012 F4        		.byte	-12
 5155 1013 FD        		.byte	-3
 5156 1014 01        		.byte	1
 5157 1015 04        		.byte	4
 5158 1016 05        		.byte	5
 5159 1017 04        		.byte	4
 5160 1018 03        		.byte	3
 5161 1019 07        		.byte	7
 5162 101a 0B        		.byte	11
 5163 101b 0D        		.byte	13
 5164 101c 10        		.byte	16
 5165 101d 12        		.byte	18
 5166 101e 11        		.byte	17
 5167 101f 0E        		.byte	14
 5168 1020 06        		.byte	6
 5169 1021 FB        		.byte	-5
 5170 1022 F2        		.byte	-14
 5171 1023 ED        		.byte	-19
 5172 1024 E9        		.byte	-23
 5173 1025 E7        		.byte	-25
 5174 1026 EA        		.byte	-22
 5175 1027 EE        		.byte	-18
 5176 1028 F0        		.byte	-16
 5177 1029 F1        		.byte	-15
 5178 102a F0        		.byte	-16
 5179 102b EE        		.byte	-18
 5180 102c EF        		.byte	-17
 5181 102d F1        		.byte	-15
 5182 102e F7        		.byte	-9
 5183 102f FE        		.byte	-2
 5184 1030 05        		.byte	5
 5185 1031 0A        		.byte	10
 5186 1032 0E        		.byte	14
 5187 1033 11        		.byte	17
 5188 1034 10        		.byte	16
 5189 1035 0B        		.byte	11
 5190 1036 07        		.byte	7
 5191 1037 05        		.byte	5
 5192 1038 03        		.byte	3
GAS LISTING /tmp/ccLsnRQw.s 			page 94


 5193 1039 00        		.byte	0
 5194 103a FE        		.byte	-2
 5195 103b FC        		.byte	-4
 5196 103c FB        		.byte	-5
 5197 103d F7        		.byte	-9
 5198 103e F2        		.byte	-14
 5199 103f EC        		.byte	-20
 5200 1040 E5        		.byte	-27
 5201 1041 E3        		.byte	-29
 5202 1042 E6        		.byte	-26
 5203 1043 E8        		.byte	-24
 5204 1044 EC        		.byte	-20
 5205 1045 F2        		.byte	-14
 5206 1046 F5        		.byte	-11
 5207 1047 F7        		.byte	-9
 5208 1048 F9        		.byte	-7
 5209 1049 FB        		.byte	-5
 5210 104a FC        		.byte	-4
 5211 104b FC        		.byte	-4
 5212 104c FE        		.byte	-2
 5213 104d 01        		.byte	1
 5214 104e 02        		.byte	2
 5215 104f 02        		.byte	2
 5216 1050 02        		.byte	2
 5217 1051 00        		.byte	0
 5218 1052 FB        		.byte	-5
 5219 1053 F7        		.byte	-9
 5220 1054 F3        		.byte	-13
 5221 1055 F1        		.byte	-15
 5222 1056 EF        		.byte	-17
 5223 1057 EF        		.byte	-17
 5224 1058 F1        		.byte	-15
 5225 1059 F3        		.byte	-13
 5226 105a F4        		.byte	-12
 5227 105b F5        		.byte	-11
 5228 105c F6        		.byte	-10
 5229 105d F6        		.byte	-10
 5230 105e F6        		.byte	-10
 5231 105f F9        		.byte	-7
 5232 1060 FD        		.byte	-3
 5233 1061 00        		.byte	0
 5234 1062 02        		.byte	2
 5235 1063 05        		.byte	5
 5236 1064 06        		.byte	6
 5237 1065 05        		.byte	5
 5238 1066 04        		.byte	4
 5239 1067 04        		.byte	4
 5240 1068 05        		.byte	5
 5241 1069 05        		.byte	5
 5242 106a 06        		.byte	6
 5243 106b 07        		.byte	7
 5244 106c 08        		.byte	8
 5245 106d 09        		.byte	9
 5246 106e 0A        		.byte	10
 5247 106f 0C        		.byte	12
 5248 1070 0C        		.byte	12
 5249 1071 0B        		.byte	11
GAS LISTING /tmp/ccLsnRQw.s 			page 95


 5250 1072 0C        		.byte	12
 5251 1073 0F        		.byte	15
 5252 1074 11        		.byte	17
 5253 1075 12        		.byte	18
 5254 1076 15        		.byte	21
 5255 1077 17        		.byte	23
 5256 1078 19        		.byte	25
 5257 1079 1B        		.byte	27
 5258 107a 1C        		.byte	28
 5259 107b 1D        		.byte	29
 5260 107c 1F        		.byte	31
 5261 107d 22        		.byte	34
 5262 107e 25        		.byte	37
 5263 107f 29        		.byte	41
 5264 1080 2D        		.byte	45
 5265 1081 33        		.byte	51
 5266 1082 2E        		.byte	46
 5267 1083 10        		.byte	16
 5268 1084 EC        		.byte	-20
 5269 1085 E0        		.byte	-32
 5270 1086 E7        		.byte	-25
 5271 1087 F1        		.byte	-15
 5272 1088 FD        		.byte	-3
 5273 1089 05        		.byte	5
 5274 108a FD        		.byte	-3
 5275 108b ED        		.byte	-19
 5276 108c E5        		.byte	-27
 5277 108d E0        		.byte	-32
 5278 108e DC        		.byte	-36
 5279 108f E5        		.byte	-27
 5280 1090 FB        		.byte	-5
 5281 1091 08        		.byte	8
 5282 1092 0C        		.byte	12
 5283 1093 11        		.byte	17
 5284 1094 12        		.byte	18
 5285 1095 13        		.byte	19
 5286 1096 18        		.byte	24
 5287 1097 16        		.byte	22
 5288 1098 0D        		.byte	13
 5289 1099 07        		.byte	7
 5290 109a 07        		.byte	7
 5291 109b 04        		.byte	4
 5292 109c 03        		.byte	3
 5293 109d 07        		.byte	7
 5294 109e 07        		.byte	7
 5295 109f FF        		.byte	-1
 5296 10a0 F6        		.byte	-10
 5297 10a1 EA        		.byte	-22
 5298 10a2 DC        		.byte	-36
 5299 10a3 D8        		.byte	-40
 5300 10a4 DC        		.byte	-36
 5301 10a5 E2        		.byte	-30
 5302 10a6 EB        		.byte	-21
 5303 10a7 F5        		.byte	-11
 5304 10a8 F9        		.byte	-7
 5305 10a9 F9        		.byte	-7
 5306 10aa FB        		.byte	-5
GAS LISTING /tmp/ccLsnRQw.s 			page 96


 5307 10ab FB        		.byte	-5
 5308 10ac FB        		.byte	-5
 5309 10ad FF        		.byte	-1
 5310 10ae 06        		.byte	6
 5311 10af 0C        		.byte	12
 5312 10b0 10        		.byte	16
 5313 10b1 14        		.byte	20
 5314 10b2 15        		.byte	21
 5315 10b3 13        		.byte	19
 5316 10b4 0F        		.byte	15
 5317 10b5 06        		.byte	6
 5318 10b6 FD        		.byte	-3
 5319 10b7 F8        		.byte	-8
 5320 10b8 F4        		.byte	-12
 5321 10b9 F0        		.byte	-16
 5322 10ba F0        		.byte	-16
 5323 10bb F2        		.byte	-14
 5324 10bc F3        		.byte	-13
 5325 10bd F1        		.byte	-15
 5326 10be EE        		.byte	-18
 5327 10bf EA        		.byte	-22
 5328 10c0 E7        		.byte	-25
 5329 10c1 E8        		.byte	-24
 5330 10c2 EC        		.byte	-20
 5331 10c3 F3        		.byte	-13
 5332 10c4 FC        		.byte	-4
 5333 10c5 04        		.byte	4
 5334 10c6 09        		.byte	9
 5335 10c7 0C        		.byte	12
 5336 10c8 0C        		.byte	12
 5337 10c9 0A        		.byte	10
 5338 10ca 08        		.byte	8
 5339 10cb 09        		.byte	9
 5340 10cc 09        		.byte	9
 5341 10cd 09        		.byte	9
 5342 10ce 0A        		.byte	10
 5343 10cf 0A        		.byte	10
 5344 10d0 08        		.byte	8
 5345 10d1 04        		.byte	4
 5346 10d2 FF        		.byte	-1
 5347 10d3 F7        		.byte	-9
 5348 10d4 F2        		.byte	-14
 5349 10d5 EE        		.byte	-18
 5350 10d6 EC        		.byte	-20
 5351 10d7 ED        		.byte	-19
 5352 10d8 EF        		.byte	-17
 5353 10d9 F2        		.byte	-14
 5354 10da F4        		.byte	-12
 5355 10db F6        		.byte	-10
 5356 10dc F6        		.byte	-10
 5357 10dd F4        		.byte	-12
 5358 10de F4        		.byte	-12
 5359 10df F7        		.byte	-9
 5360 10e0 F8        		.byte	-8
 5361 10e1 F8        		.byte	-8
 5362 10e2 FA        		.byte	-6
 5363 10e3 FD        		.byte	-3
GAS LISTING /tmp/ccLsnRQw.s 			page 97


 5364 10e4 FF        		.byte	-1
 5365 10e5 02        		.byte	2
 5366 10e6 01        		.byte	1
 5367 10e7 FD        		.byte	-3
 5368 10e8 F8        		.byte	-8
 5369 10e9 F5        		.byte	-11
 5370 10ea F4        		.byte	-12
 5371 10eb F3        		.byte	-13
 5372 10ec F5        		.byte	-11
 5373 10ed F7        		.byte	-9
 5374 10ee F9        		.byte	-7
 5375 10ef F7        		.byte	-9
 5376 10f0 F4        		.byte	-12
 5377 10f1 F2        		.byte	-14
 5378 10f2 EF        		.byte	-17
 5379 10f3 EF        		.byte	-17
 5380 10f4 F2        		.byte	-14
 5381 10f5 F5        		.byte	-11
 5382 10f6 F8        		.byte	-8
 5383 10f7 FA        		.byte	-6
 5384 10f8 FB        		.byte	-5
 5385 10f9 FC        		.byte	-4
 5386 10fa FC        		.byte	-4
 5387 10fb FB        		.byte	-5
 5388 10fc FC        		.byte	-4
 5389 10fd FD        		.byte	-3
 5390 10fe FE        		.byte	-2
 5391 10ff FF        		.byte	-1
 5392 1100 01        		.byte	1
 5393 1101 02        		.byte	2
 5394 1102 03        		.byte	3
 5395 1103 02        		.byte	2
 5396 1104 02        		.byte	2
 5397 1105 01        		.byte	1
 5398 1106 01        		.byte	1
 5399 1107 02        		.byte	2
 5400 1108 03        		.byte	3
 5401 1109 05        		.byte	5
 5402 110a 06        		.byte	6
 5403 110b 08        		.byte	8
 5404 110c 09        		.byte	9
 5405 110d 0A        		.byte	10
 5406 110e 0A        		.byte	10
 5407 110f 0A        		.byte	10
 5408 1110 0B        		.byte	11
 5409 1111 0D        		.byte	13
 5410 1112 0F        		.byte	15
 5411 1113 11        		.byte	17
 5412 1114 13        		.byte	19
 5413 1115 15        		.byte	21
 5414 1116 17        		.byte	23
 5415 1117 18        		.byte	24
 5416 1118 1B        		.byte	27
 5417 1119 1E        		.byte	30
 5418 111a 1E        		.byte	30
 5419 111b 1F        		.byte	31
 5420 111c 20        		.byte	32
GAS LISTING /tmp/ccLsnRQw.s 			page 98


 5421 111d 22        		.byte	34
 5422 111e 26        		.byte	38
 5423 111f 2C        		.byte	44
 5424 1120 31        		.byte	49
 5425 1121 34        		.byte	52
 5426 1122 27        		.byte	39
 5427 1123 06        		.byte	6
 5428 1124 E8        		.byte	-24
 5429 1125 E2        		.byte	-30
 5430 1126 EB        		.byte	-21
 5431 1127 F6        		.byte	-10
 5432 1128 01        		.byte	1
 5433 1129 05        		.byte	5
 5434 112a F7        		.byte	-9
 5435 112b E7        		.byte	-25
 5436 112c DF        		.byte	-33
 5437 112d D9        		.byte	-39
 5438 112e D8        		.byte	-40
 5439 112f E7        		.byte	-25
 5440 1130 FB        		.byte	-5
 5441 1131 05        		.byte	5
 5442 1132 0A        		.byte	10
 5443 1133 0F        		.byte	15
 5444 1134 0E        		.byte	14
 5445 1135 10        		.byte	16
 5446 1136 13        		.byte	19
 5447 1137 12        		.byte	18
 5448 1138 0C        		.byte	12
 5449 1139 0A        		.byte	10
 5450 113a 0A        		.byte	10
 5451 113b 09        		.byte	9
 5452 113c 0C        		.byte	12
 5453 113d 0E        		.byte	14
 5454 113e 0A        		.byte	10
 5455 113f 01        		.byte	1
 5456 1140 F7        		.byte	-9
 5457 1141 E9        		.byte	-23
 5458 1142 DC        		.byte	-36
 5459 1143 DB        		.byte	-37
 5460 1144 E0        		.byte	-32
 5461 1145 E6        		.byte	-26
 5462 1146 EE        		.byte	-18
 5463 1147 F4        		.byte	-12
 5464 1148 F4        		.byte	-12
 5465 1149 F2        		.byte	-14
 5466 114a F1        		.byte	-15
 5467 114b F1        		.byte	-15
 5468 114c F4        		.byte	-12
 5469 114d FC        		.byte	-4
 5470 114e 04        		.byte	4
 5471 114f 0C        		.byte	12
 5472 1150 12        		.byte	18
 5473 1151 16        		.byte	22
 5474 1152 16        		.byte	22
 5475 1153 13        		.byte	19
 5476 1154 0E        		.byte	14
 5477 1155 07        		.byte	7
GAS LISTING /tmp/ccLsnRQw.s 			page 99


 5478 1156 02        		.byte	2
 5479 1157 FF        		.byte	-1
 5480 1158 FB        		.byte	-5
 5481 1159 FA        		.byte	-6
 5482 115a FA        		.byte	-6
 5483 115b FA        		.byte	-6
 5484 115c F6        		.byte	-10
 5485 115d F1        		.byte	-15
 5486 115e EC        		.byte	-20
 5487 115f E6        		.byte	-26
 5488 1160 E4        		.byte	-28
 5489 1161 E6        		.byte	-26
 5490 1162 EB        		.byte	-21
 5491 1163 F1        		.byte	-15
 5492 1164 F9        		.byte	-7
 5493 1165 FF        		.byte	-1
 5494 1166 03        		.byte	3
 5495 1167 04        		.byte	4
 5496 1168 04        		.byte	4
 5497 1169 04        		.byte	4
 5498 116a 05        		.byte	5
 5499 116b 08        		.byte	8
 5500 116c 0A        		.byte	10
 5501 116d 0D        		.byte	13
 5502 116e 10        		.byte	16
 5503 116f 10        		.byte	16
 5504 1170 0D        		.byte	13
 5505 1171 08        		.byte	8
 5506 1172 02        		.byte	2
 5507 1173 FC        		.byte	-4
 5508 1174 F7        		.byte	-9
 5509 1175 F4        		.byte	-12
 5510 1176 F2        		.byte	-14
 5511 1177 F2        		.byte	-14
 5512 1178 F2        		.byte	-14
 5513 1179 F2        		.byte	-14
 5514 117a F2        		.byte	-14
 5515 117b F2        		.byte	-14
 5516 117c F0        		.byte	-16
 5517 117d EF        		.byte	-17
 5518 117e F0        		.byte	-16
 5519 117f F3        		.byte	-13
 5520 1180 F8        		.byte	-8
 5521 1181 FE        		.byte	-2
 5522 1182 03        		.byte	3
 5523 1183 07        		.byte	7
 5524 1184 09        		.byte	9
 5525 1185 08        		.byte	8
 5526 1186 04        		.byte	4
 5527 1187 FF        		.byte	-1
 5528 1188 FD        		.byte	-3
 5529 1189 FD        		.byte	-3
 5530 118a FF        		.byte	-1
 5531 118b 02        		.byte	2
 5532 118c 04        		.byte	4
 5533 118d 01        		.byte	1
 5534 118e FB        		.byte	-5
GAS LISTING /tmp/ccLsnRQw.s 			page 100


 5535 118f F3        		.byte	-13
 5536 1190 EC        		.byte	-20
 5537 1191 E8        		.byte	-24
 5538 1192 E9        		.byte	-23
 5539 1193 ED        		.byte	-19
 5540 1194 F2        		.byte	-14
 5541 1195 F5        		.byte	-11
 5542 1196 F6        		.byte	-10
 5543 1197 F5        		.byte	-11
 5544 1198 F2        		.byte	-14
 5545 1199 F1        		.byte	-15
 5546 119a F2        		.byte	-14
 5547 119b F5        		.byte	-11
 5548 119c F9        		.byte	-7
 5549 119d FD        		.byte	-3
 5550 119e 00        		.byte	0
 5551 119f 02        		.byte	2
 5552 11a0 02        		.byte	2
 5553 11a1 00        		.byte	0
 5554 11a2 FF        		.byte	-1
 5555 11a3 FC        		.byte	-4
 5556 11a4 FA        		.byte	-6
 5557 11a5 FA        		.byte	-6
 5558 11a6 FB        		.byte	-5
 5559 11a7 FD        		.byte	-3
 5560 11a8 FE        		.byte	-2
 5561 11a9 FF        		.byte	-1
 5562 11aa FF        		.byte	-1
 5563 11ab FD        		.byte	-3
 5564 11ac FA        		.byte	-6
 5565 11ad FA        		.byte	-6
 5566 11ae FB        		.byte	-5
 5567 11af FD        		.byte	-3
 5568 11b0 FF        		.byte	-1
 5569 11b1 02        		.byte	2
 5570 11b2 05        		.byte	5
 5571 11b3 07        		.byte	7
 5572 11b4 07        		.byte	7
 5573 11b5 06        		.byte	6
 5574 11b6 06        		.byte	6
 5575 11b7 07        		.byte	7
 5576 11b8 0A        		.byte	10
 5577 11b9 0D        		.byte	13
 5578 11ba 0F        		.byte	15
 5579 11bb 10        		.byte	16
 5580 11bc 11        		.byte	17
 5581 11bd 12        		.byte	18
 5582 11be 12        		.byte	18
 5583 11bf 13        		.byte	19
 5584 11c0 13        		.byte	19
 5585 11c1 15        		.byte	21
 5586 11c2 16        		.byte	22
 5587 11c3 18        		.byte	24
 5588 11c4 1A        		.byte	26
 5589 11c5 1B        		.byte	27
 5590 11c6 1B        		.byte	27
 5591 11c7 1C        		.byte	28
GAS LISTING /tmp/ccLsnRQw.s 			page 101


 5592 11c8 1E        		.byte	30
 5593 11c9 20        		.byte	32
 5594 11ca 23        		.byte	35
 5595 11cb 26        		.byte	38
 5596 11cc 29        		.byte	41
 5597 11cd 2C        		.byte	44
 5598 11ce 29        		.byte	41
 5599 11cf 12        		.byte	18
 5600 11d0 F3        		.byte	-13
 5601 11d1 E6        		.byte	-26
 5602 11d2 ED        		.byte	-19
 5603 11d3 F9        		.byte	-7
 5604 11d4 02        		.byte	2
 5605 11d5 07        		.byte	7
 5606 11d6 FE        		.byte	-2
 5607 11d7 ED        		.byte	-19
 5608 11d8 E2        		.byte	-30
 5609 11d9 DC        		.byte	-36
 5610 11da DA        		.byte	-38
 5611 11db E3        		.byte	-29
 5612 11dc F7        		.byte	-9
 5613 11dd 04        		.byte	4
 5614 11de 07        		.byte	7
 5615 11df 0A        		.byte	10
 5616 11e0 08        		.byte	8
 5617 11e1 06        		.byte	6
 5618 11e2 0A        		.byte	10
 5619 11e3 0D        		.byte	13
 5620 11e4 0B        		.byte	11
 5621 11e5 09        		.byte	9
 5622 11e6 0C        		.byte	12
 5623 11e7 0C        		.byte	12
 5624 11e8 0D        		.byte	13
 5625 11e9 10        		.byte	16
 5626 11ea 0D        		.byte	13
 5627 11eb 04        		.byte	4
 5628 11ec FB        		.byte	-5
 5629 11ed F0        		.byte	-16
 5630 11ee E5        		.byte	-27
 5631 11ef E2        		.byte	-30
 5632 11f0 E6        		.byte	-26
 5633 11f1 EA        		.byte	-22
 5634 11f2 EF        		.byte	-17
 5635 11f3 F4        		.byte	-12
 5636 11f4 F3        		.byte	-13
 5637 11f5 EC        		.byte	-20
 5638 11f6 EA        		.byte	-22
 5639 11f7 EB        		.byte	-21
 5640 11f8 EE        		.byte	-18
 5641 11f9 F5        		.byte	-11
 5642 11fa FF        		.byte	-1
 5643 11fb 06        		.byte	6
 5644 11fc 0C        		.byte	12
 5645 11fd 10        		.byte	16
 5646 11fe 0F        		.byte	15
 5647 11ff 0C        		.byte	12
 5648 1200 0A        		.byte	10
GAS LISTING /tmp/ccLsnRQw.s 			page 102


 5649 1201 08        		.byte	8
 5650 1202 06        		.byte	6
 5651 1203 05        		.byte	5
 5652 1204 05        		.byte	5
 5653 1205 04        		.byte	4
 5654 1206 03        		.byte	3
 5655 1207 02        		.byte	2
 5656 1208 FD        		.byte	-3
 5657 1209 F6        		.byte	-10
 5658 120a F0        		.byte	-16
 5659 120b EB        		.byte	-21
 5660 120c E8        		.byte	-24
 5661 120d E9        		.byte	-23
 5662 120e EC        		.byte	-20
 5663 120f F0        		.byte	-16
 5664 1210 F6        		.byte	-10
 5665 1211 F9        		.byte	-7
 5666 1212 F8        		.byte	-8
 5667 1213 F8        		.byte	-8
 5668 1214 F9        		.byte	-7
 5669 1215 FA        		.byte	-6
 5670 1216 FD        		.byte	-3
 5671 1217 02        		.byte	2
 5672 1218 07        		.byte	7
 5673 1219 0C        		.byte	12
 5674 121a 0F        		.byte	15
 5675 121b 10        		.byte	16
 5676 121c 0D        		.byte	13
 5677 121d 0A        		.byte	10
 5678 121e 06        		.byte	6
 5679 121f 03        		.byte	3
 5680 1220 00        		.byte	0
 5681 1221 00        		.byte	0
 5682 1222 FF        		.byte	-1
 5683 1223 FE        		.byte	-2
 5684 1224 FD        		.byte	-3
 5685 1225 FA        		.byte	-6
 5686 1226 F6        		.byte	-10
 5687 1227 F3        		.byte	-13
 5688 1228 F0        		.byte	-16
 5689 1229 EE        		.byte	-18
 5690 122a EF        		.byte	-17
 5691 122b F1        		.byte	-15
 5692 122c F5        		.byte	-11
 5693 122d F9        		.byte	-7
 5694 122e FC        		.byte	-4
 5695 122f FE        		.byte	-2
 5696 1230 FE        		.byte	-2
 5697 1231 FF        		.byte	-1
 5698 1232 00        		.byte	0
 5699 1233 02        		.byte	2
 5700 1234 03        		.byte	3
 5701 1235 03        		.byte	3
 5702 1236 03        		.byte	3
 5703 1237 05        		.byte	5
 5704 1238 07        		.byte	7
 5705 1239 07        		.byte	7
GAS LISTING /tmp/ccLsnRQw.s 			page 103


 5706 123a 06        		.byte	6
 5707 123b 02        		.byte	2
 5708 123c FC        		.byte	-4
 5709 123d F8        		.byte	-8
 5710 123e F7        		.byte	-9
 5711 123f F6        		.byte	-10
 5712 1240 F5        		.byte	-11
 5713 1241 F6        		.byte	-10
 5714 1242 F7        		.byte	-9
 5715 1243 F6        		.byte	-10
 5716 1244 F2        		.byte	-14
 5717 1245 F0        		.byte	-16
 5718 1246 EE        		.byte	-18
 5719 1247 ED        		.byte	-19
 5720 1248 F0        		.byte	-16
 5721 1249 F4        		.byte	-12
 5722 124a F8        		.byte	-8
 5723 124b FA        		.byte	-6
 5724 124c FB        		.byte	-5
 5725 124d FB        		.byte	-5
 5726 124e FA        		.byte	-6
 5727 124f F9        		.byte	-7
 5728 1250 FA        		.byte	-6
 5729 1251 FC        		.byte	-4
 5730 1252 FD        		.byte	-3
 5731 1253 FE        		.byte	-2
 5732 1254 FF        		.byte	-1
 5733 1255 FE        		.byte	-2
 5734 1256 FC        		.byte	-4
 5735 1257 FB        		.byte	-5
 5736 1258 FB        		.byte	-5
 5737 1259 FA        		.byte	-6
 5738 125a F8        		.byte	-8
 5739 125b F7        		.byte	-9
 5740 125c F8        		.byte	-8
 5741 125d F9        		.byte	-7
 5742 125e FA        		.byte	-6
 5743 125f FB        		.byte	-5
 5744 1260 FB        		.byte	-5
 5745 1261 FA        		.byte	-6
 5746 1262 FA        		.byte	-6
 5747 1263 FA        		.byte	-6
 5748 1264 FB        		.byte	-5
 5749 1265 FE        		.byte	-2
 5750 1266 00        		.byte	0
 5751 1267 02        		.byte	2
 5752 1268 04        		.byte	4
 5753 1269 04        		.byte	4
 5754 126a 05        		.byte	5
 5755 126b 06        		.byte	6
 5756 126c 06        		.byte	6
 5757 126d 07        		.byte	7
 5758 126e 09        		.byte	9
 5759 126f 0B        		.byte	11
 5760 1270 0C        		.byte	12
 5761 1271 0D        		.byte	13
 5762 1272 0D        		.byte	13
GAS LISTING /tmp/ccLsnRQw.s 			page 104


 5763 1273 0C        		.byte	12
 5764 1274 0B        		.byte	11
 5765 1275 0B        		.byte	11
 5766 1276 0C        		.byte	12
 5767 1277 0D        		.byte	13
 5768 1278 0E        		.byte	14
 5769 1279 0F        		.byte	15
 5770 127a 10        		.byte	16
 5771 127b 10        		.byte	16
 5772 127c 11        		.byte	17
 5773 127d 12        		.byte	18
 5774 127e 13        		.byte	19
 5775 127f 15        		.byte	21
 5776 1280 17        		.byte	23
 5777 1281 19        		.byte	25
 5778 1282 1D        		.byte	29
 5779 1283 1F        		.byte	31
 5780 1284 21        		.byte	33
 5781 1285 23        		.byte	35
 5782 1286 25        		.byte	37
 5783 1287 27        		.byte	39
 5784 1288 2A        		.byte	42
 5785 1289 2B        		.byte	43
 5786 128a 21        		.byte	33
 5787 128b 0A        		.byte	10
 5788 128c F3        		.byte	-13
 5789 128d ED        		.byte	-19
 5790 128e F7        		.byte	-9
 5791 128f 01        		.byte	1
 5792 1290 06        		.byte	6
 5793 1291 02        		.byte	2
 5794 1292 F4        		.byte	-12
 5795 1293 E3        		.byte	-29
 5796 1294 DA        		.byte	-38
 5797 1295 D6        		.byte	-42
 5798 1296 DB        		.byte	-37
 5799 1297 E8        		.byte	-24
 5800 1298 F7        		.byte	-9
 5801 1299 00        		.byte	0
 5802 129a 01        		.byte	1
 5803 129b 00        		.byte	0
 5804 129c FE        		.byte	-2
 5805 129d FE        		.byte	-2
 5806 129e 04        		.byte	4
 5807 129f 09        		.byte	9
 5808 12a0 0B        		.byte	11
 5809 12a1 0D        		.byte	13
 5810 12a2 10        		.byte	16
 5811 12a3 12        		.byte	18
 5812 12a4 13        		.byte	19
 5813 12a5 12        		.byte	18
 5814 12a6 0C        		.byte	12
 5815 12a7 04        		.byte	4
 5816 12a8 FC        		.byte	-4
 5817 12a9 F4        		.byte	-12
 5818 12aa EE        		.byte	-18
 5819 12ab ED        		.byte	-19
GAS LISTING /tmp/ccLsnRQw.s 			page 105


 5820 12ac EF        		.byte	-17
 5821 12ad F1        		.byte	-15
 5822 12ae F3        		.byte	-13
 5823 12af F1        		.byte	-15
 5824 12b0 E9        		.byte	-23
 5825 12b1 E3        		.byte	-29
 5826 12b2 E1        		.byte	-31
 5827 12b3 E4        		.byte	-28
 5828 12b4 EA        		.byte	-22
 5829 12b5 F3        		.byte	-13
 5830 12b6 FC        		.byte	-4
 5831 12b7 01        		.byte	1
 5832 12b8 05        		.byte	5
 5833 12b9 06        		.byte	6
 5834 12ba 05        		.byte	5
 5835 12bb 04        		.byte	4
 5836 12bc 05        		.byte	5
 5837 12bd 07        		.byte	7
 5838 12be 0B        		.byte	11
 5839 12bf 0E        		.byte	14
 5840 12c0 0E        		.byte	14
 5841 12c1 0D        		.byte	13
 5842 12c2 0B        		.byte	11
 5843 12c3 07        		.byte	7
 5844 12c4 00        		.byte	0
 5845 12c5 FB        		.byte	-5
 5846 12c6 F6        		.byte	-10
 5847 12c7 F3        		.byte	-13
 5848 12c8 F1        		.byte	-15
 5849 12c9 F1        		.byte	-15
 5850 12ca F2        		.byte	-14
 5851 12cb F2        		.byte	-14
 5852 12cc F2        		.byte	-14
 5853 12cd F0        		.byte	-16
 5854 12ce EE        		.byte	-18
 5855 12cf ED        		.byte	-19
 5856 12d0 EE        		.byte	-18
 5857 12d1 F1        		.byte	-15
 5858 12d2 F7        		.byte	-9
 5859 12d3 FD        		.byte	-3
 5860 12d4 02        		.byte	2
 5861 12d5 06        		.byte	6
 5862 12d6 07        		.byte	7
 5863 12d7 07        		.byte	7
 5864 12d8 07        		.byte	7
 5865 12d9 07        		.byte	7
 5866 12da 07        		.byte	7
 5867 12db 08        		.byte	8
 5868 12dc 0A        		.byte	10
 5869 12dd 0B        		.byte	11
 5870 12de 0A        		.byte	10
 5871 12df 08        		.byte	8
 5872 12e0 05        		.byte	5
 5873 12e1 00        		.byte	0
 5874 12e2 FB        		.byte	-5
 5875 12e3 F7        		.byte	-9
 5876 12e4 F5        		.byte	-11
GAS LISTING /tmp/ccLsnRQw.s 			page 106


 5877 12e5 F4        		.byte	-12
 5878 12e6 F4        		.byte	-12
 5879 12e7 F4        		.byte	-12
 5880 12e8 F4        		.byte	-12
 5881 12e9 F4        		.byte	-12
 5882 12ea F3        		.byte	-13
 5883 12eb F2        		.byte	-14
 5884 12ec F3        		.byte	-13
 5885 12ed F3        		.byte	-13
 5886 12ee F5        		.byte	-11
 5887 12ef F8        		.byte	-8
 5888 12f0 FD        		.byte	-3
 5889 12f1 00        		.byte	0
 5890 12f2 03        		.byte	3
 5891 12f3 04        		.byte	4
 5892 12f4 04        		.byte	4
 5893 12f5 04        		.byte	4
 5894 12f6 04        		.byte	4
 5895 12f7 04        		.byte	4
 5896 12f8 05        		.byte	5
 5897 12f9 06        		.byte	6
 5898 12fa 05        		.byte	5
 5899 12fb 04        		.byte	4
 5900 12fc 03        		.byte	3
 5901 12fd 01        		.byte	1
 5902 12fe FE        		.byte	-2
 5903 12ff FC        		.byte	-4
 5904 1300 F9        		.byte	-7
 5905 1301 F7        		.byte	-9
 5906 1302 F6        		.byte	-10
 5907 1303 F6        		.byte	-10
 5908 1304 F5        		.byte	-11
 5909 1305 F5        		.byte	-11
 5910 1306 F5        		.byte	-11
 5911 1307 F3        		.byte	-13
 5912 1308 F1        		.byte	-15
 5913 1309 F0        		.byte	-16
 5914 130a F1        		.byte	-15
 5915 130b F3        		.byte	-13
 5916 130c F6        		.byte	-10
 5917 130d F8        		.byte	-8
 5918 130e FA        		.byte	-6
 5919 130f FA        		.byte	-6
 5920 1310 FA        		.byte	-6
 5921 1311 FB        		.byte	-5
 5922 1312 FA        		.byte	-6
 5923 1313 FB        		.byte	-5
 5924 1314 FC        		.byte	-4
 5925 1315 FE        		.byte	-2
 5926 1316 FF        		.byte	-1
 5927 1317 FF        		.byte	-1
 5928 1318 FE        		.byte	-2
 5929 1319 FC        		.byte	-4
 5930 131a FA        		.byte	-6
 5931 131b FA        		.byte	-6
 5932 131c F9        		.byte	-7
 5933 131d F9        		.byte	-7
GAS LISTING /tmp/ccLsnRQw.s 			page 107


 5934 131e FA        		.byte	-6
 5935 131f FA        		.byte	-6
 5936 1320 FA        		.byte	-6
 5937 1321 FA        		.byte	-6
 5938 1322 FA        		.byte	-6
 5939 1323 FB        		.byte	-5
 5940 1324 FB        		.byte	-5
 5941 1325 FC        		.byte	-4
 5942 1326 FD        		.byte	-3
 5943 1327 FF        		.byte	-1
 5944 1328 01        		.byte	1
 5945 1329 03        		.byte	3
 5946 132a 05        		.byte	5
 5947 132b 06        		.byte	6
 5948 132c 07        		.byte	7
 5949 132d 07        		.byte	7
 5950 132e 08        		.byte	8
 5951 132f 09        		.byte	9
 5952 1330 0B        		.byte	11
 5953 1331 0C        		.byte	12
 5954 1332 0D        		.byte	13
 5955 1333 0E        		.byte	14
 5956 1334 0E        		.byte	14
 5957 1335 0E        		.byte	14
 5958 1336 0E        		.byte	14
 5959 1337 0D        		.byte	13
 5960 1338 0D        		.byte	13
 5961 1339 0E        		.byte	14
 5962 133a 10        		.byte	16
 5963 133b 11        		.byte	17
 5964 133c 13        		.byte	19
 5965 133d 14        		.byte	20
 5966 133e 14        		.byte	20
 5967 133f 15        		.byte	21
 5968 1340 17        		.byte	23
 5969 1341 19        		.byte	25
 5970 1342 1C        		.byte	28
 5971 1343 1E        		.byte	30
 5972 1344 21        		.byte	33
 5973 1345 24        		.byte	36
 5974 1346 27        		.byte	39
 5975 1347 29        		.byte	41
 5976 1348 28        		.byte	40
 5977 1349 25        		.byte	37
 5978 134a 1B        		.byte	27
 5979 134b 07        		.byte	7
 5980 134c F8        		.byte	-8
 5981 134d F7        		.byte	-9
 5982 134e FF        		.byte	-1
 5983 134f 06        		.byte	6
 5984 1350 08        		.byte	8
 5985 1351 01        		.byte	1
 5986 1352 F1        		.byte	-15
 5987 1353 E2        		.byte	-30
 5988 1354 DA        		.byte	-38
 5989 1355 D9        		.byte	-39
 5990 1356 DF        		.byte	-33
GAS LISTING /tmp/ccLsnRQw.s 			page 108


 5991 1357 EB        		.byte	-21
 5992 1358 F6        		.byte	-10
 5993 1359 FB        		.byte	-5
 5994 135a FB        		.byte	-5
 5995 135b F8        		.byte	-8
 5996 135c F4        		.byte	-12
 5997 135d F6        		.byte	-10
 5998 135e FD        		.byte	-3
 5999 135f 04        		.byte	4
 6000 1360 08        		.byte	8
 6001 1361 0D        		.byte	13
 6002 1362 10        		.byte	16
 6003 1363 11        		.byte	17
 6004 1364 12        		.byte	18
 6005 1365 11        		.byte	17
 6006 1366 0B        		.byte	11
 6007 1367 05        		.byte	5
 6008 1368 00        		.byte	0
 6009 1369 FB        		.byte	-5
 6010 136a F9        		.byte	-7
 6011 136b F9        		.byte	-7
 6012 136c F9        		.byte	-7
 6013 136d F9        		.byte	-7
 6014 136e F7        		.byte	-9
 6015 136f F1        		.byte	-15
 6016 1370 E9        		.byte	-23
 6017 1371 E3        		.byte	-29
 6018 1372 E2        		.byte	-30
 6019 1373 E4        		.byte	-28
 6020 1374 EB        		.byte	-21
 6021 1375 F2        		.byte	-14
 6022 1376 F7        		.byte	-9
 6023 1377 F9        		.byte	-7
 6024 1378 F9        		.byte	-7
 6025 1379 F9        		.byte	-7
 6026 137a F8        		.byte	-8
 6027 137b FB        		.byte	-5
 6028 137c FF        		.byte	-1
 6029 137d 04        		.byte	4
 6030 137e 0A        		.byte	10
 6031 137f 0E        		.byte	14
 6032 1380 0F        		.byte	15
 6033 1381 0E        		.byte	14
 6034 1382 0C        		.byte	12
 6035 1383 09        		.byte	9
 6036 1384 05        		.byte	5
 6037 1385 03        		.byte	3
 6038 1386 01        		.byte	1
 6039 1387 FF        		.byte	-1
 6040 1388 FF        		.byte	-1
 6041 1389 FF        		.byte	-1
 6042 138a FD        		.byte	-3
 6043 138b FA        		.byte	-6
 6044 138c F6        		.byte	-10
 6045 138d F1        		.byte	-15
 6046 138e EE        		.byte	-18
 6047 138f ED        		.byte	-19
GAS LISTING /tmp/ccLsnRQw.s 			page 109


 6048 1390 ED        		.byte	-19
 6049 1391 F0        		.byte	-16
 6050 1392 F4        		.byte	-12
 6051 1393 F7        		.byte	-9
 6052 1394 F9        		.byte	-7
 6053 1395 FA        		.byte	-6
 6054 1396 F9        		.byte	-7
 6055 1397 F9        		.byte	-7
 6056 1398 FA        		.byte	-6
 6057 1399 FD        		.byte	-3
 6058 139a 01        		.byte	1
 6059 139b 05        		.byte	5
 6060 139c 08        		.byte	8
 6061 139d 0A        		.byte	10
 6062 139e 09        		.byte	9
 6063 139f 07        		.byte	7
 6064 13a0 05        		.byte	5
 6065 13a1 04        		.byte	4
 6066 13a2 02        		.byte	2
 6067 13a3 01        		.byte	1
 6068 13a4 00        		.byte	0
 6069 13a5 00        		.byte	0
 6070 13a6 00        		.byte	0
 6071 13a7 FE        		.byte	-2
 6072 13a8 FB        		.byte	-5
 6073 13a9 F8        		.byte	-8
 6074 13aa F5        		.byte	-11
 6075 13ab F2        		.byte	-14
 6076 13ac F2        		.byte	-14
 6077 13ad F2        		.byte	-14
 6078 13ae F4        		.byte	-12
 6079 13af F6        		.byte	-10
 6080 13b0 F7        		.byte	-9
 6081 13b1 F7        		.byte	-9
 6082 13b2 F8        		.byte	-8
 6083 13b3 F8        		.byte	-8
 6084 13b4 F9        		.byte	-7
 6085 13b5 FA        		.byte	-6
 6086 13b6 FC        		.byte	-4
 6087 13b7 FF        		.byte	-1
 6088 13b8 02        		.byte	2
 6089 13b9 04        		.byte	4
 6090 13ba 05        		.byte	5
 6091 13bb 05        		.byte	5
 6092 13bc 04        		.byte	4
 6093 13bd 03        		.byte	3
 6094 13be 03        		.byte	3
 6095 13bf 03        		.byte	3
 6096 13c0 03        		.byte	3
 6097 13c1 03        		.byte	3
 6098 13c2 03        		.byte	3
 6099 13c3 01        		.byte	1
 6100 13c4 FF        		.byte	-1
 6101 13c5 FD        		.byte	-3
 6102 13c6 F9        		.byte	-7
 6103 13c7 F5        		.byte	-11
 6104 13c8 F3        		.byte	-13
GAS LISTING /tmp/ccLsnRQw.s 			page 110


 6105 13c9 F3        		.byte	-13
 6106 13ca F3        		.byte	-13
 6107 13cb F4        		.byte	-12
 6108 13cc F5        		.byte	-11
 6109 13cd F3        		.byte	-13
 6110 13ce F0        		.byte	-16
 6111 13cf EF        		.byte	-17
 6112 13d0 F0        		.byte	-16
 6113 13d1 F1        		.byte	-15
 6114 13d2 F4        		.byte	-12
 6115 13d3 F8        		.byte	-8
 6116 13d4 FA        		.byte	-6
 6117 13d5 FB        		.byte	-5
 6118 13d6 FC        		.byte	-4
 6119 13d7 FB        		.byte	-5
 6120 13d8 FB        		.byte	-5
 6121 13d9 FC        		.byte	-4
 6122 13da FE        		.byte	-2
 6123 13db FF        		.byte	-1
 6124 13dc 00        		.byte	0
 6125 13dd 01        		.byte	1
 6126 13de 01        		.byte	1
 6127 13df 00        		.byte	0
 6128 13e0 FE        		.byte	-2
 6129 13e1 FD        		.byte	-3
 6130 13e2 FD        		.byte	-3
 6131 13e3 FD        		.byte	-3
 6132 13e4 FD        		.byte	-3
 6133 13e5 FE        		.byte	-2
 6134 13e6 FF        		.byte	-1
 6135 13e7 FF        		.byte	-1
 6136 13e8 00        		.byte	0
 6137 13e9 00        		.byte	0
 6138 13ea 00        		.byte	0
 6139 13eb 00        		.byte	0
 6140 13ec 01        		.byte	1
 6141 13ed 03        		.byte	3
 6142 13ee 05        		.byte	5
 6143 13ef 08        		.byte	8
 6144 13f0 0A        		.byte	10
 6145 13f1 0A        		.byte	10
 6146 13f2 0B        		.byte	11
 6147 13f3 0B        		.byte	11
 6148 13f4 0B        		.byte	11
 6149 13f5 0C        		.byte	12
 6150 13f6 0E        		.byte	14
 6151 13f7 10        		.byte	16
 6152 13f8 12        		.byte	18
 6153 13f9 13        		.byte	19
 6154 13fa 14        		.byte	20
 6155 13fb 15        		.byte	21
 6156 13fc 15        		.byte	21
 6157 13fd 15        		.byte	21
 6158 13fe 17        		.byte	23
 6159 13ff 19        		.byte	25
 6160 1400 1A        		.byte	26
 6161 1401 1C        		.byte	28
GAS LISTING /tmp/ccLsnRQw.s 			page 111


 6162 1402 1E        		.byte	30
 6163 1403 20        		.byte	32
 6164 1404 22        		.byte	34
 6165 1405 24        		.byte	36
 6166 1406 26        		.byte	38
 6167 1407 28        		.byte	40
 6168 1408 26        		.byte	38
 6169 1409 20        		.byte	32
 6170 140a 11        		.byte	17
 6171 140b FF        		.byte	-1
 6172 140c F8        		.byte	-8
 6173 140d FD        		.byte	-3
 6174 140e 08        		.byte	8
 6175 140f 0B        		.byte	11
 6176 1410 07        		.byte	7
 6177 1411 F9        		.byte	-7
 6178 1412 E7        		.byte	-25
 6179 1413 DC        		.byte	-36
 6180 1414 DA        		.byte	-38
 6181 1415 DE        		.byte	-34
 6182 1416 E7        		.byte	-25
 6183 1417 F2        		.byte	-14
 6184 1418 F8        		.byte	-8
 6185 1419 F7        		.byte	-9
 6186 141a F3        		.byte	-13
 6187 141b EE        		.byte	-18
 6188 141c EC        		.byte	-20
 6189 141d F3        		.byte	-13
 6190 141e FC        		.byte	-4
 6191 141f 03        		.byte	3
 6192 1420 09        		.byte	9
 6193 1421 0D        		.byte	13
 6194 1422 0E        		.byte	14
 6195 1423 0F        		.byte	15
 6196 1424 10        		.byte	16
 6197 1425 0D        		.byte	13
 6198 1426 08        		.byte	8
 6199 1427 06        		.byte	6
 6200 1428 05        		.byte	5
 6201 1429 04        		.byte	4
 6202 142a 04        		.byte	4
 6203 142b 04        		.byte	4
 6204 142c 02        		.byte	2
 6205 142d FF        		.byte	-1
 6206 142e FA        		.byte	-6
 6207 142f F1        		.byte	-15
 6208 1430 EA        		.byte	-22
 6209 1431 E7        		.byte	-25
 6210 1432 E7        		.byte	-25
 6211 1433 EB        		.byte	-21
 6212 1434 F1        		.byte	-15
 6213 1435 F3        		.byte	-13
 6214 1436 F2        		.byte	-14
 6215 1437 EF        		.byte	-17
 6216 1438 ED        		.byte	-19
 6217 1439 EC        		.byte	-20
 6218 143a EF        		.byte	-17
GAS LISTING /tmp/ccLsnRQw.s 			page 112


 6219 143b F3        		.byte	-13
 6220 143c F9        		.byte	-7
 6221 143d 00        		.byte	0
 6222 143e 06        		.byte	6
 6223 143f 07        		.byte	7
 6224 1440 07        		.byte	7
 6225 1441 07        		.byte	7
 6226 1442 06        		.byte	6
 6227 1443 05        		.byte	5
 6228 1444 07        		.byte	7
 6229 1445 09        		.byte	9
 6230 1446 0A        		.byte	10
 6231 1447 0B        		.byte	11
 6232 1448 0B        		.byte	11
 6233 1449 09        		.byte	9
 6234 144a 05        		.byte	5
 6235 144b 00        		.byte	0
 6236 144c FB        		.byte	-5
 6237 144d F9        		.byte	-7
 6238 144e F8        		.byte	-8
 6239 144f F7        		.byte	-9
 6240 1450 F7        		.byte	-9
 6241 1451 F7        		.byte	-9
 6242 1452 F6        		.byte	-10
 6243 1453 F4        		.byte	-12
 6244 1454 F2        		.byte	-14
 6245 1455 EF        		.byte	-17
 6246 1456 EE        		.byte	-18
 6247 1457 EF        		.byte	-17
 6248 1458 F2        		.byte	-14
 6249 1459 F5        		.byte	-11
 6250 145a F9        		.byte	-7
 6251 145b FC        		.byte	-4
 6252 145c FD        		.byte	-3
 6253 145d FD        		.byte	-3
 6254 145e FD        		.byte	-3
 6255 145f FD        		.byte	-3
 6256 1460 FE        		.byte	-2
 6257 1461 01        		.byte	1
 6258 1462 04        		.byte	4
 6259 1463 06        		.byte	6
 6260 1464 08        		.byte	8
 6261 1465 08        		.byte	8
 6262 1466 06        		.byte	6
 6263 1467 04        		.byte	4
 6264 1468 02        		.byte	2
 6265 1469 01        		.byte	1
 6266 146a 00        		.byte	0
 6267 146b 00        		.byte	0
 6268 146c 00        		.byte	0
 6269 146d 00        		.byte	0
 6270 146e FE        		.byte	-2
 6271 146f FC        		.byte	-4
 6272 1470 F9        		.byte	-7
 6273 1471 F7        		.byte	-9
 6274 1472 F5        		.byte	-11
 6275 1473 F5        		.byte	-11
GAS LISTING /tmp/ccLsnRQw.s 			page 113


 6276 1474 F5        		.byte	-11
 6277 1475 F6        		.byte	-10
 6278 1476 F8        		.byte	-8
 6279 1477 F9        		.byte	-7
 6280 1478 F9        		.byte	-7
 6281 1479 F9        		.byte	-7
 6282 147a F9        		.byte	-7
 6283 147b F9        		.byte	-7
 6284 147c FA        		.byte	-6
 6285 147d FC        		.byte	-4
 6286 147e FE        		.byte	-2
 6287 147f FF        		.byte	-1
 6288 1480 FF        		.byte	-1
 6289 1481 FF        		.byte	-1
 6290 1482 FF        		.byte	-1
 6291 1483 FF        		.byte	-1
 6292 1484 FF        		.byte	-1
 6293 1485 FF        		.byte	-1
 6294 1486 FE        		.byte	-2
 6295 1487 FD        		.byte	-3
 6296 1488 FD        		.byte	-3
 6297 1489 FD        		.byte	-3
 6298 148a FC        		.byte	-4
 6299 148b FB        		.byte	-5
 6300 148c F9        		.byte	-7
 6301 148d F7        		.byte	-9
 6302 148e F6        		.byte	-10
 6303 148f F6        		.byte	-10
 6304 1490 F7        		.byte	-9
 6305 1491 F8        		.byte	-8
 6306 1492 F7        		.byte	-9
 6307 1493 F6        		.byte	-10
 6308 1494 F6        		.byte	-10
 6309 1495 F6        		.byte	-10
 6310 1496 F7        		.byte	-9
 6311 1497 F8        		.byte	-8
 6312 1498 F9        		.byte	-7
 6313 1499 FA        		.byte	-6
 6314 149a FB        		.byte	-5
 6315 149b FC        		.byte	-4
 6316 149c FC        		.byte	-4
 6317 149d FD        		.byte	-3
 6318 149e FE        		.byte	-2
 6319 149f FF        		.byte	-1
 6320 14a0 00        		.byte	0
 6321 14a1 01        		.byte	1
 6322 14a2 02        		.byte	2
 6323 14a3 03        		.byte	3
 6324 14a4 03        		.byte	3
 6325 14a5 04        		.byte	4
 6326 14a6 05        		.byte	5
 6327 14a7 05        		.byte	5
 6328 14a8 05        		.byte	5
 6329 14a9 06        		.byte	6
 6330 14aa 06        		.byte	6
 6331 14ab 07        		.byte	7
 6332 14ac 07        		.byte	7
GAS LISTING /tmp/ccLsnRQw.s 			page 114


 6333 14ad 08        		.byte	8
 6334 14ae 08        		.byte	8
 6335 14af 08        		.byte	8
 6336 14b0 08        		.byte	8
 6337 14b1 08        		.byte	8
 6338 14b2 09        		.byte	9
 6339 14b3 0A        		.byte	10
 6340 14b4 0A        		.byte	10
 6341 14b5 0B        		.byte	11
 6342 14b6 0C        		.byte	12
 6343 14b7 0C        		.byte	12
 6344 14b8 0D        		.byte	13
 6345 14b9 0E        		.byte	14
 6346 14ba 0F        		.byte	15
 6347 14bb 11        		.byte	17
 6348 14bc 12        		.byte	18
 6349 14bd 14        		.byte	20
 6350 14be 15        		.byte	21
 6351 14bf 17        		.byte	23
 6352 14c0 18        		.byte	24
 6353 14c1 1A        		.byte	26
 6354 14c2 1D        		.byte	29
 6355 14c3 1F        		.byte	31
 6356 14c4 21        		.byte	33
 6357 14c5 24        		.byte	36
 6358 14c6 27        		.byte	39
 6359 14c7 27        		.byte	39
 6360 14c8 23        		.byte	35
 6361 14c9 1A        		.byte	26
 6362 14ca 0C        		.byte	12
 6363 14cb 03        		.byte	3
 6364 14cc 03        		.byte	3
 6365 14cd 0A        		.byte	10
 6366 14ce 0F        		.byte	15
 6367 14cf 0D        		.byte	13
 6368 14d0 03        		.byte	3
 6369 14d1 F3        		.byte	-13
 6370 14d2 E6        		.byte	-26
 6371 14d3 E0        		.byte	-32
 6372 14d4 E1        		.byte	-31
 6373 14d5 E6        		.byte	-26
 6374 14d6 ED        		.byte	-19
 6375 14d7 F2        		.byte	-14
 6376 14d8 F1        		.byte	-15
 6377 14d9 ED        		.byte	-19
 6378 14da E7        		.byte	-25
 6379 14db E3        		.byte	-29
 6380 14dc E5        		.byte	-27
 6381 14dd EC        		.byte	-20
 6382 14de F5        		.byte	-11
 6383 14df FD        		.byte	-3
 6384 14e0 01        		.byte	1
 6385 14e1 03        		.byte	3
 6386 14e2 04        		.byte	4
 6387 14e3 05        		.byte	5
 6388 14e4 05        		.byte	5
 6389 14e5 05        		.byte	5
GAS LISTING /tmp/ccLsnRQw.s 			page 115


 6390 14e6 06        		.byte	6
 6391 14e7 08        		.byte	8
 6392 14e8 0B        		.byte	11
 6393 14e9 0E        		.byte	14
 6394 14ea 0F        		.byte	15
 6395 14eb 0D        		.byte	13
 6396 14ec 0A        		.byte	10
 6397 14ed 06        		.byte	6
 6398 14ee 00        		.byte	0
 6399 14ef FC        		.byte	-4
 6400 14f0 F9        		.byte	-7
 6401 14f1 F8        		.byte	-8
 6402 14f2 F9        		.byte	-7
 6403 14f3 FB        		.byte	-5
 6404 14f4 F9        		.byte	-7
 6405 14f5 F5        		.byte	-11
 6406 14f6 F0        		.byte	-16
 6407 14f7 EB        		.byte	-21
 6408 14f8 E8        		.byte	-24
 6409 14f9 E8        		.byte	-24
 6410 14fa EC        		.byte	-20
 6411 14fb EF        		.byte	-17
 6412 14fc F3        		.byte	-13
 6413 14fd F5        		.byte	-11
 6414 14fe F5        		.byte	-11
 6415 14ff F5        		.byte	-11
 6416 1500 F4        		.byte	-12
 6417 1501 F4        		.byte	-12
 6418 1502 F7        		.byte	-9
 6419 1503 FC        		.byte	-4
 6420 1504 01        		.byte	1
 6421 1505 05        		.byte	5
 6422 1506 08        		.byte	8
 6423 1507 09        		.byte	9
 6424 1508 08        		.byte	8
 6425 1509 07        		.byte	7
 6426 150a 07        		.byte	7
 6427 150b 06        		.byte	6
 6428 150c 07        		.byte	7
 6429 150d 09        		.byte	9
 6430 150e 0A        		.byte	10
 6431 150f 0A        		.byte	10
 6432 1510 08        		.byte	8
 6433 1511 05        		.byte	5
 6434 1512 01        		.byte	1
 6435 1513 FD        		.byte	-3
 6436 1514 FB        		.byte	-5
 6437 1515 F9        		.byte	-7
 6438 1516 F9        		.byte	-7
 6439 1517 F8        		.byte	-8
 6440 1518 F8        		.byte	-8
 6441 1519 F7        		.byte	-9
 6442 151a F5        		.byte	-11
 6443 151b F2        		.byte	-14
 6444 151c F0        		.byte	-16
 6445 151d EF        		.byte	-17
 6446 151e F0        		.byte	-16
GAS LISTING /tmp/ccLsnRQw.s 			page 116


 6447 151f F2        		.byte	-14
 6448 1520 F4        		.byte	-12
 6449 1521 F6        		.byte	-10
 6450 1522 F8        		.byte	-8
 6451 1523 F9        		.byte	-7
 6452 1524 F9        		.byte	-7
 6453 1525 F9        		.byte	-7
 6454 1526 FA        		.byte	-6
 6455 1527 FC        		.byte	-4
 6456 1528 FE        		.byte	-2
 6457 1529 01        		.byte	1
 6458 152a 04        		.byte	4
 6459 152b 06        		.byte	6
 6460 152c 06        		.byte	6
 6461 152d 05        		.byte	5
 6462 152e 04        		.byte	4
 6463 152f 04        		.byte	4
 6464 1530 04        		.byte	4
 6465 1531 04        		.byte	4
 6466 1532 05        		.byte	5
 6467 1533 05        		.byte	5
 6468 1534 04        		.byte	4
 6469 1535 02        		.byte	2
 6470 1536 00        		.byte	0
 6471 1537 FE        		.byte	-2
 6472 1538 FB        		.byte	-5
 6473 1539 F9        		.byte	-7
 6474 153a F9        		.byte	-7
 6475 153b F9        		.byte	-7
 6476 153c FA        		.byte	-6
 6477 153d F9        		.byte	-7
 6478 153e F7        		.byte	-9
 6479 153f F5        		.byte	-11
 6480 1540 F2        		.byte	-14
 6481 1541 F0        		.byte	-16
 6482 1542 F0        		.byte	-16
 6483 1543 F2        		.byte	-14
 6484 1544 F5        		.byte	-11
 6485 1545 F8        		.byte	-8
 6486 1546 F9        		.byte	-7
 6487 1547 F7        		.byte	-9
 6488 1548 F5        		.byte	-11
 6489 1549 F4        		.byte	-12
 6490 154a F6        		.byte	-10
 6491 154b F8        		.byte	-8
 6492 154c FC        		.byte	-4
 6493 154d FF        		.byte	-1
 6494 154e FF        		.byte	-1
 6495 154f FF        		.byte	-1
 6496 1550 FD        		.byte	-3
 6497 1551 FC        		.byte	-4
 6498 1552 FC        		.byte	-4
 6499 1553 FD        		.byte	-3
 6500 1554 FF        		.byte	-1
 6501 1555 00        		.byte	0
 6502 1556 01        		.byte	1
 6503 1557 00        		.byte	0
GAS LISTING /tmp/ccLsnRQw.s 			page 117


 6504 1558 FF        		.byte	-1
 6505 1559 FD        		.byte	-3
 6506 155a FD        		.byte	-3
 6507 155b FD        		.byte	-3
 6508 155c FD        		.byte	-3
 6509 155d FE        		.byte	-2
 6510 155e FF        		.byte	-1
 6511 155f FF        		.byte	-1
 6512 1560 FF        		.byte	-1
 6513 1561 FF        		.byte	-1
 6514 1562 00        		.byte	0
 6515 1563 FF        		.byte	-1
 6516 1564 00        		.byte	0
 6517 1565 01        		.byte	1
 6518 1566 03        		.byte	3
 6519 1567 05        		.byte	5
 6520 1568 06        		.byte	6
 6521 1569 07        		.byte	7
 6522 156a 08        		.byte	8
 6523 156b 08        		.byte	8
 6524 156c 0A        		.byte	10
 6525 156d 0B        		.byte	11
 6526 156e 0C        		.byte	12
 6527 156f 0D        		.byte	13
 6528 1570 0F        		.byte	15
 6529 1571 10        		.byte	16
 6530 1572 11        		.byte	17
 6531 1573 12        		.byte	18
 6532 1574 12        		.byte	18
 6533 1575 12        		.byte	18
 6534 1576 14        		.byte	20
 6535 1577 16        		.byte	22
 6536 1578 17        		.byte	23
 6537 1579 18        		.byte	24
 6538 157a 1A        		.byte	26
 6539 157b 1B        		.byte	27
 6540 157c 1C        		.byte	28
 6541 157d 1E        		.byte	30
 6542 157e 1F        		.byte	31
 6543 157f 21        		.byte	33
 6544 1580 23        		.byte	35
 6545 1581 24        		.byte	36
 6546 1582 20        		.byte	32
 6547 1583 15        		.byte	21
 6548 1584 0B        		.byte	11
 6549 1585 08        		.byte	8
 6550 1586 0B        		.byte	11
 6551 1587 11        		.byte	17
 6552 1588 14        		.byte	20
 6553 1589 0E        		.byte	14
 6554 158a 01        		.byte	1
 6555 158b F4        		.byte	-12
 6556 158c ED        		.byte	-19
 6557 158d EA        		.byte	-22
 6558 158e EC        		.byte	-20
 6559 158f F1        		.byte	-15
 6560 1590 F4        		.byte	-12
GAS LISTING /tmp/ccLsnRQw.s 			page 118


 6561 1591 F4        		.byte	-12
 6562 1592 F0        		.byte	-16
 6563 1593 E8        		.byte	-24
 6564 1594 E1        		.byte	-31
 6565 1595 DF        		.byte	-33
 6566 1596 E4        		.byte	-28
 6567 1597 EB        		.byte	-21
 6568 1598 F3        		.byte	-13
 6569 1599 F7        		.byte	-9
 6570 159a F7        		.byte	-9
 6571 159b F5        		.byte	-11
 6572 159c F4        		.byte	-12
 6573 159d F6        		.byte	-10
 6574 159e F8        		.byte	-8
 6575 159f FC        		.byte	-4
 6576 15a0 00        		.byte	0
 6577 15a1 05        		.byte	5
 6578 15a2 09        		.byte	9
 6579 15a3 0B        		.byte	11
 6580 15a4 0A        		.byte	10
 6581 15a5 08        		.byte	8
 6582 15a6 06        		.byte	6
 6583 15a7 06        		.byte	6
 6584 15a8 07        		.byte	7
 6585 15a9 08        		.byte	8
 6586 15aa 09        		.byte	9
 6587 15ab 09        		.byte	9
 6588 15ac 08        		.byte	8
 6589 15ad 07        		.byte	7
 6590 15ae 03        		.byte	3
 6591 15af FE        		.byte	-2
 6592 15b0 F9        		.byte	-7
 6593 15b1 F8        		.byte	-8
 6594 15b2 F8        		.byte	-8
 6595 15b3 F9        		.byte	-7
 6596 15b4 F9        		.byte	-7
 6597 15b5 F8        		.byte	-8
 6598 15b6 F5        		.byte	-11
 6599 15b7 F1        		.byte	-15
 6600 15b8 EE        		.byte	-18
 6601 15b9 ED        		.byte	-19
 6602 15ba EC        		.byte	-20
 6603 15bb EE        		.byte	-18
 6604 15bc F1        		.byte	-15
 6605 15bd F4        		.byte	-12
 6606 15be F6        		.byte	-10
 6607 15bf F5        		.byte	-11
 6608 15c0 F3        		.byte	-13
 6609 15c1 F2        		.byte	-14
 6610 15c2 F3        		.byte	-13
 6611 15c3 F6        		.byte	-10
 6612 15c4 FB        		.byte	-5
 6613 15c5 FE        		.byte	-2
 6614 15c6 01        		.byte	1
 6615 15c7 02        		.byte	2
 6616 15c8 03        		.byte	3
 6617 15c9 02        		.byte	2
GAS LISTING /tmp/ccLsnRQw.s 			page 119


 6618 15ca 01        		.byte	1
 6619 15cb 02        		.byte	2
 6620 15cc 03        		.byte	3
 6621 15cd 06        		.byte	6
 6622 15ce 08        		.byte	8
 6623 15cf 09        		.byte	9
 6624 15d0 08        		.byte	8
 6625 15d1 06        		.byte	6
 6626 15d2 04        		.byte	4
 6627 15d3 02        		.byte	2
 6628 15d4 01        		.byte	1
 6629 15d5 01        		.byte	1
 6630 15d6 01        		.byte	1
 6631 15d7 01        		.byte	1
 6632 15d8 01        		.byte	1
 6633 15d9 FF        		.byte	-1
 6634 15da FD        		.byte	-3
 6635 15db FA        		.byte	-6
 6636 15dc F7        		.byte	-9
 6637 15dd F6        		.byte	-10
 6638 15de F7        		.byte	-9
 6639 15df F7        		.byte	-9
 6640 15e0 F8        		.byte	-8
 6641 15e1 F8        		.byte	-8
 6642 15e2 F7        		.byte	-9
 6643 15e3 F6        		.byte	-10
 6644 15e4 F5        		.byte	-11
 6645 15e5 F4        		.byte	-12
 6646 15e6 F5        		.byte	-11
 6647 15e7 F6        		.byte	-10
 6648 15e8 F8        		.byte	-8
 6649 15e9 FA        		.byte	-6
 6650 15ea FB        		.byte	-5
 6651 15eb FB        		.byte	-5
 6652 15ec FB        		.byte	-5
 6653 15ed FB        		.byte	-5
 6654 15ee FC        		.byte	-4
 6655 15ef FD        		.byte	-3
 6656 15f0 FF        		.byte	-1
 6657 15f1 00        		.byte	0
 6658 15f2 02        		.byte	2
 6659 15f3 02        		.byte	2
 6660 15f4 02        		.byte	2
 6661 15f5 00        		.byte	0
 6662 15f6 FE        		.byte	-2
 6663 15f7 FE        		.byte	-2
 6664 15f8 FE        		.byte	-2
 6665 15f9 FF        		.byte	-1
 6666 15fa 00        		.byte	0
 6667 15fb 00        		.byte	0
 6668 15fc FE        		.byte	-2
 6669 15fd FA        		.byte	-6
 6670 15fe F8        		.byte	-8
 6671 15ff F7        		.byte	-9
 6672 1600 F7        		.byte	-9
 6673 1601 F8        		.byte	-8
 6674 1602 F9        		.byte	-7
GAS LISTING /tmp/ccLsnRQw.s 			page 120


 6675 1603 F9        		.byte	-7
 6676 1604 F8        		.byte	-8
 6677 1605 F6        		.byte	-10
 6678 1606 F4        		.byte	-12
 6679 1607 F3        		.byte	-13
 6680 1608 F5        		.byte	-11
 6681 1609 F7        		.byte	-9
 6682 160a F8        		.byte	-8
 6683 160b FA        		.byte	-6
 6684 160c FB        		.byte	-5
 6685 160d FA        		.byte	-6
 6686 160e F9        		.byte	-7
 6687 160f F9        		.byte	-7
 6688 1610 FA        		.byte	-6
 6689 1611 FC        		.byte	-4
 6690 1612 FF        		.byte	-1
 6691 1613 01        		.byte	1
 6692 1614 01        		.byte	1
 6693 1615 01        		.byte	1
 6694 1616 02        		.byte	2
 6695 1617 02        		.byte	2
 6696 1618 02        		.byte	2
 6697 1619 04        		.byte	4
 6698 161a 06        		.byte	6
 6699 161b 07        		.byte	7
 6700 161c 08        		.byte	8
 6701 161d 09        		.byte	9
 6702 161e 08        		.byte	8
 6703 161f 08        		.byte	8
 6704 1620 08        		.byte	8
 6705 1621 09        		.byte	9
 6706 1622 09        		.byte	9
 6707 1623 0B        		.byte	11
 6708 1624 0B        		.byte	11
 6709 1625 0B        		.byte	11
 6710 1626 0B        		.byte	11
 6711 1627 0B        		.byte	11
 6712 1628 0B        		.byte	11
 6713 1629 0B        		.byte	11
 6714 162a 0B        		.byte	11
 6715 162b 0C        		.byte	12
 6716 162c 0D        		.byte	13
 6717 162d 0E        		.byte	14
 6718 162e 0F        		.byte	15
 6719 162f 0F        		.byte	15
 6720 1630 10        		.byte	16
 6721 1631 10        		.byte	16
 6722 1632 12        		.byte	18
 6723 1633 13        		.byte	19
 6724 1634 14        		.byte	20
 6725 1635 16        		.byte	22
 6726 1636 18        		.byte	24
 6727 1637 1A        		.byte	26
 6728 1638 1C        		.byte	28
 6729 1639 1E        		.byte	30
 6730 163a 1B        		.byte	27
 6731 163b 14        		.byte	20
GAS LISTING /tmp/ccLsnRQw.s 			page 121


 6732 163c 0E        		.byte	14
 6733 163d 0D        		.byte	13
 6734 163e 12        		.byte	18
 6735 163f 16        		.byte	22
 6736 1640 19        		.byte	25
 6737 1641 16        		.byte	22
 6738 1642 0B        		.byte	11
 6739 1643 01        		.byte	1
 6740 1644 FC        		.byte	-4
 6741 1645 FA        		.byte	-6
 6742 1646 FB        		.byte	-5
 6743 1647 FF        		.byte	-1
 6744 1648 02        		.byte	2
 6745 1649 FF        		.byte	-1
 6746 164a F8        		.byte	-8
 6747 164b F1        		.byte	-15
 6748 164c E9        		.byte	-23
 6749 164d E5        		.byte	-27
 6750 164e E8        		.byte	-24
 6751 164f EF        		.byte	-17
 6752 1650 F3        		.byte	-13
 6753 1651 F4        		.byte	-12
 6754 1652 F1        		.byte	-15
 6755 1653 EB        		.byte	-21
 6756 1654 E7        		.byte	-25
 6757 1655 E6        		.byte	-26
 6758 1656 E9        		.byte	-23
 6759 1657 EE        		.byte	-18
 6760 1658 F4        		.byte	-12
 6761 1659 F8        		.byte	-8
 6762 165a FA        		.byte	-6
 6763 165b F8        		.byte	-8
 6764 165c F6        		.byte	-10
 6765 165d F4        		.byte	-12
 6766 165e F5        		.byte	-11
 6767 165f FA        		.byte	-6
 6768 1660 00        		.byte	0
 6769 1661 04        		.byte	4
 6770 1662 06        		.byte	6
 6771 1663 06        		.byte	6
 6772 1664 03        		.byte	3
 6773 1665 03        		.byte	3
 6774 1666 03        		.byte	3
 6775 1667 03        		.byte	3
 6776 1668 05        		.byte	5
 6777 1669 08        		.byte	8
 6778 166a 0A        		.byte	10
 6779 166b 0B        		.byte	11
 6780 166c 09        		.byte	9
 6781 166d 06        		.byte	6
 6782 166e 02        		.byte	2
 6783 166f 00        		.byte	0
 6784 1670 01        		.byte	1
 6785 1671 02        		.byte	2
 6786 1672 02        		.byte	2
 6787 1673 02        		.byte	2
 6788 1674 01        		.byte	1
GAS LISTING /tmp/ccLsnRQw.s 			page 122


 6789 1675 FE        		.byte	-2
 6790 1676 FB        		.byte	-5
 6791 1677 F8        		.byte	-8
 6792 1678 F6        		.byte	-10
 6793 1679 F6        		.byte	-10
 6794 167a F7        		.byte	-9
 6795 167b F8        		.byte	-8
 6796 167c F9        		.byte	-7
 6797 167d F7        		.byte	-9
 6798 167e F5        		.byte	-11
 6799 167f F2        		.byte	-14
 6800 1680 F1        		.byte	-15
 6801 1681 F1        		.byte	-15
 6802 1682 F3        		.byte	-13
 6803 1683 F5        		.byte	-11
 6804 1684 F6        		.byte	-10
 6805 1685 F7        		.byte	-9
 6806 1686 F7        		.byte	-9
 6807 1687 F7        		.byte	-9
 6808 1688 F5        		.byte	-11
 6809 1689 F5        		.byte	-11
 6810 168a F7        		.byte	-9
 6811 168b FA        		.byte	-6
 6812 168c FC        		.byte	-4
 6813 168d FE        		.byte	-2
 6814 168e FF        		.byte	-1
 6815 168f FE        		.byte	-2
 6816 1690 FE        		.byte	-2
 6817 1691 FD        		.byte	-3
 6818 1692 FE        		.byte	-2
 6819 1693 00        		.byte	0
 6820 1694 02        		.byte	2
 6821 1695 03        		.byte	3
 6822 1696 04        		.byte	4
 6823 1697 04        		.byte	4
 6824 1698 03        		.byte	3
 6825 1699 01        		.byte	1
 6826 169a 01        		.byte	1
 6827 169b 02        		.byte	2
 6828 169c 03        		.byte	3
 6829 169d 04        		.byte	4
 6830 169e 04        		.byte	4
 6831 169f 03        		.byte	3
 6832 16a0 02        		.byte	2
 6833 16a1 00        		.byte	0
 6834 16a2 FF        		.byte	-1
 6835 16a3 FF        		.byte	-1
 6836 16a4 FF        		.byte	-1
 6837 16a5 FF        		.byte	-1
 6838 16a6 00        		.byte	0
 6839 16a7 FF        		.byte	-1
 6840 16a8 FE        		.byte	-2
 6841 16a9 FC        		.byte	-4
 6842 16aa FB        		.byte	-5
 6843 16ab FA        		.byte	-6
 6844 16ac FA        		.byte	-6
 6845 16ad FB        		.byte	-5
GAS LISTING /tmp/ccLsnRQw.s 			page 123


 6846 16ae FC        		.byte	-4
 6847 16af FB        		.byte	-5
 6848 16b0 FB        		.byte	-5
 6849 16b1 FA        		.byte	-6
 6850 16b2 FA        		.byte	-6
 6851 16b3 F9        		.byte	-7
 6852 16b4 F9        		.byte	-7
 6853 16b5 F9        		.byte	-7
 6854 16b6 FB        		.byte	-5
 6855 16b7 FB        		.byte	-5
 6856 16b8 FB        		.byte	-5
 6857 16b9 FB        		.byte	-5
 6858 16ba FB        		.byte	-5
 6859 16bb FA        		.byte	-6
 6860 16bc FA        		.byte	-6
 6861 16bd FB        		.byte	-5
 6862 16be FC        		.byte	-4
 6863 16bf FD        		.byte	-3
 6864 16c0 FD        		.byte	-3
 6865 16c1 FD        		.byte	-3
 6866 16c2 FE        		.byte	-2
 6867 16c3 FD        		.byte	-3
 6868 16c4 FD        		.byte	-3
 6869 16c5 FD        		.byte	-3
 6870 16c6 FF        		.byte	-1
 6871 16c7 00        		.byte	0
 6872 16c8 00        		.byte	0
 6873 16c9 00        		.byte	0
 6874 16ca 00        		.byte	0
 6875 16cb 00        		.byte	0
 6876 16cc 00        		.byte	0
 6877 16cd 00        		.byte	0
 6878 16ce 01        		.byte	1
 6879 16cf 01        		.byte	1
 6880 16d0 02        		.byte	2
 6881 16d1 02        		.byte	2
 6882 16d2 02        		.byte	2
 6883 16d3 02        		.byte	2
 6884 16d4 02        		.byte	2
 6885 16d5 03        		.byte	3
 6886 16d6 03        		.byte	3
 6887 16d7 04        		.byte	4
 6888 16d8 04        		.byte	4
 6889 16d9 05        		.byte	5
 6890 16da 05        		.byte	5
 6891 16db 05        		.byte	5
 6892 16dc 05        		.byte	5
 6893 16dd 05        		.byte	5
 6894 16de 05        		.byte	5
 6895 16df 06        		.byte	6
 6896 16e0 07        		.byte	7
 6897 16e1 07        		.byte	7
 6898 16e2 07        		.byte	7
 6899 16e3 07        		.byte	7
 6900 16e4 07        		.byte	7
 6901 16e5 07        		.byte	7
 6902 16e6 08        		.byte	8
GAS LISTING /tmp/ccLsnRQw.s 			page 124


 6903 16e7 08        		.byte	8
 6904 16e8 09        		.byte	9
 6905 16e9 09        		.byte	9
 6906 16ea 09        		.byte	9
 6907 16eb 09        		.byte	9
 6908 16ec 09        		.byte	9
 6909 16ed 09        		.byte	9
 6910 16ee 0A        		.byte	10
 6911 16ef 0B        		.byte	11
 6912 16f0 0B        		.byte	11
 6913 16f1 0C        		.byte	12
 6914 16f2 0C        		.byte	12
 6915 16f3 0C        		.byte	12
 6916 16f4 0D        		.byte	13
 6917 16f5 0D        		.byte	13
 6918 16f6 0C        		.byte	12
 6919 16f7 0C        		.byte	12
 6920 16f8 0C        		.byte	12
 6921 16f9 0D        		.byte	13
 6922 16fa 0D        		.byte	13
 6923 16fb 0C        		.byte	12
 6924 16fc 0B        		.byte	11
 6925 16fd 0A        		.byte	10
 6926 16fe 09        		.byte	9
 6927 16ff 08        		.byte	8
 6928 1700 07        		.byte	7
 6929 1701 06        		.byte	6
 6930 1702 05        		.byte	5
 6931 1703 04        		.byte	4
 6932 1704 03        		.byte	3
 6933 1705 01        		.byte	1
 6934 1706 00        		.byte	0
 6935 1707 FE        		.byte	-2
 6936 1708 FC        		.byte	-4
 6937 1709 FB        		.byte	-5
 6938 170a FB        		.byte	-5
 6939 170b FA        		.byte	-6
 6940 170c F9        		.byte	-7
 6941 170d F8        		.byte	-8
 6942 170e F7        		.byte	-9
 6943 170f F6        		.byte	-10
 6944 1710 F5        		.byte	-11
 6945 1711 F5        		.byte	-11
 6946 1712 F5        		.byte	-11
 6947 1713 F5        		.byte	-11
 6948 1714 F5        		.byte	-11
 6949 1715 F5        		.byte	-11
 6950 1716 F4        		.byte	-12
 6951 1717 F4        		.byte	-12
 6952 1718 F4        		.byte	-12
 6953 1719 F4        		.byte	-12
 6954 171a F5        		.byte	-11
 6955 171b F5        		.byte	-11
 6956 171c F6        		.byte	-10
 6957 171d F6        		.byte	-10
 6958 171e F7        		.byte	-9
 6959 171f F7        		.byte	-9
GAS LISTING /tmp/ccLsnRQw.s 			page 125


 6960 1720 F7        		.byte	-9
 6961 1721 F8        		.byte	-8
 6962 1722 F9        		.byte	-7
 6963 1723 F9        		.byte	-7
 6964 1724 FA        		.byte	-6
 6965 1725 FB        		.byte	-5
 6966 1726 FC        		.byte	-4
 6967 1727 FC        		.byte	-4
 6968 1728 FC        		.byte	-4
 6969 1729 FD        		.byte	-3
 6970 172a FD        		.byte	-3
 6971 172b FE        		.byte	-2
 6972 172c FF        		.byte	-1
 6973 172d FF        		.byte	-1
 6974 172e FF        		.byte	-1
 6975 172f FF        		.byte	-1
 6976 1730 00        		.byte	0
 6977 1731 00        		.byte	0
 6978 1732 00        		.byte	0
 6979 1733 00        		.byte	0
 6980 1734 00        		.byte	0
 6981 1735 01        		.byte	1
 6982 1736 01        		.byte	1
 6983 1737 01        		.byte	1
 6984 1738 01        		.byte	1
 6985 1739 00        		.byte	0
 6986 173a 00        		.byte	0
 6987 173b 00        		.byte	0
 6988 173c 00        		.byte	0
 6989 173d 00        		.byte	0
 6990 173e 00        		.byte	0
 6991 173f 00        		.byte	0
 6992 1740 FF        		.byte	-1
 6993 1741 FF        		.byte	-1
 6994 1742 FF        		.byte	-1
 6995 1743 FE        		.byte	-2
 6996 1744 FE        		.byte	-2
 6997 1745 FE        		.byte	-2
 6998 1746 FE        		.byte	-2
 6999 1747 FE        		.byte	-2
 7000 1748 FD        		.byte	-3
 7001 1749 FD        		.byte	-3
 7002 174a FD        		.byte	-3
 7003 174b FD        		.byte	-3
 7004 174c FD        		.byte	-3
 7005 174d FD        		.byte	-3
 7006 174e FD        		.byte	-3
 7007 174f FD        		.byte	-3
 7008 1750 FD        		.byte	-3
 7009 1751 FC        		.byte	-4
 7010 1752 FC        		.byte	-4
 7011 1753 FD        		.byte	-3
 7012 1754 FD        		.byte	-3
 7013 1755 FD        		.byte	-3
 7014 1756 FD        		.byte	-3
 7015 1757 FD        		.byte	-3
 7016 1758 FD        		.byte	-3
GAS LISTING /tmp/ccLsnRQw.s 			page 126


 7017 1759 FD        		.byte	-3
 7018 175a FD        		.byte	-3
 7019 175b FE        		.byte	-2
 7020 175c FE        		.byte	-2
 7021 175d FE        		.byte	-2
 7022 175e FE        		.byte	-2
 7023 175f FE        		.byte	-2
 7024 1760 FE        		.byte	-2
 7025 1761 FE        		.byte	-2
 7026 1762 FE        		.byte	-2
 7027 1763 FF        		.byte	-1
 7028 1764 FF        		.byte	-1
 7029 1765 FF        		.byte	-1
 7030 1766 FF        		.byte	-1
 7031 1767 FF        		.byte	-1
 7032 1768 FF        		.byte	-1
 7033 1769 FF        		.byte	-1
 7034 176a FF        		.byte	-1
 7035 176b FF        		.byte	-1
 7036 176c FF        		.byte	-1
 7037 176d 00        		.byte	0
 7038 176e 00        		.byte	0
 7039 176f 00        		.byte	0
 7040 1770 00        		.byte	0
 7041 1771 00        		.byte	0
 7042 1772 00        		.byte	0
 7043 1773 00        		.byte	0
 7044 1774 00        		.byte	0
 7045 1775 00        		.byte	0
 7046 1776 00        		.byte	0
 7047 1777 00        		.byte	0
 7048 1778 00        		.byte	0
 7049 1779 00        		.byte	0
 7050 177a 00        		.byte	0
 7051 177b 00        		.byte	0
 7052 177c 00        		.byte	0
 7053 177d 00        		.byte	0
 7054 177e 00        		.byte	0
 7055 177f 00        		.byte	0
 7056 1780 00        		.byte	0
 7057 1781 00        		.byte	0
 7058 1782 00        		.byte	0
 7059 1783 00        		.byte	0
 7060 1784 00        		.byte	0
 7061 1785 00        		.byte	0
 7062 1786 00        		.byte	0
 7063 1787 00        		.byte	0
 7064 1788 01        		.byte	1
 7065 1789 01        		.byte	1
 7066 178a 01        		.byte	1
 7067 178b 01        		.byte	1
 7068 178c 00        		.byte	0
 7069 178d 01        		.byte	1
 7070 178e 01        		.byte	1
 7071 178f 01        		.byte	1
 7072 1790 01        		.byte	1
 7073 1791 01        		.byte	1
GAS LISTING /tmp/ccLsnRQw.s 			page 127


 7074 1792 01        		.byte	1
 7075 1793 01        		.byte	1
 7076 1794 01        		.byte	1
 7077 1795 01        		.byte	1
 7078 1796 01        		.byte	1
 7079 1797 01        		.byte	1
 7080 1798 01        		.byte	1
 7081 1799 01        		.byte	1
 7082 179a 01        		.byte	1
 7083 179b 01        		.byte	1
 7084 179c 02        		.byte	2
 7085 179d 02        		.byte	2
 7086 179e 02        		.byte	2
 7087 179f 02        		.byte	2
 7088 17a0 02        		.byte	2
 7089 17a1 02        		.byte	2
 7090 17a2 02        		.byte	2
 7091 17a3 02        		.byte	2
 7092 17a4 02        		.byte	2
 7093 17a5 02        		.byte	2
 7094 17a6 02        		.byte	2
 7095 17a7 03        		.byte	3
 7096 17a8 03        		.byte	3
 7097 17a9 03        		.byte	3
 7098 17aa 03        		.byte	3
 7099 17ab 03        		.byte	3
 7100 17ac 03        		.byte	3
 7101 17ad 03        		.byte	3
 7102 17ae 03        		.byte	3
 7103 17af 03        		.byte	3
 7104 17b0 03        		.byte	3
 7105 17b1 03        		.byte	3
 7106 17b2 03        		.byte	3
 7107 17b3 03        		.byte	3
 7108 17b4 03        		.byte	3
 7109 17b5 03        		.byte	3
 7110 17b6 03        		.byte	3
 7111 17b7 03        		.byte	3
 7112 17b8 03        		.byte	3
 7113 17b9 03        		.byte	3
 7114 17ba 02        		.byte	2
 7115 17bb 02        		.byte	2
 7116 17bc 02        		.byte	2
 7117 17bd 02        		.byte	2
 7118 17be 02        		.byte	2
 7119 17bf 02        		.byte	2
 7120 17c0 01        		.byte	1
 7121 17c1 01        		.byte	1
 7122 17c2 01        		.byte	1
 7123 17c3 00        		.byte	0
 7124 17c4 00        		.byte	0
 7125 17c5 00        		.byte	0
 7126 17c6 00        		.byte	0
 7127 17c7 FF        		.byte	-1
 7128 17c8 FF        		.byte	-1
 7129 17c9 FE        		.byte	-2
 7130 17ca FE        		.byte	-2
GAS LISTING /tmp/ccLsnRQw.s 			page 128


 7131 17cb FE        		.byte	-2
 7132 17cc FE        		.byte	-2
 7133 17cd FE        		.byte	-2
 7134 17ce FD        		.byte	-3
 7135 17cf FD        		.byte	-3
 7136 17d0 FD        		.byte	-3
 7137 17d1 FC        		.byte	-4
 7138 17d2 FC        		.byte	-4
 7139 17d3 FC        		.byte	-4
 7140 17d4 FC        		.byte	-4
 7141 17d5 FC        		.byte	-4
 7142 17d6 FC        		.byte	-4
 7143 17d7 FC        		.byte	-4
 7144 17d8 FB        		.byte	-5
 7145 17d9 FB        		.byte	-5
 7146 17da FB        		.byte	-5
 7147 17db FB        		.byte	-5
 7148 17dc FB        		.byte	-5
 7149 17dd FB        		.byte	-5
 7150 17de FB        		.byte	-5
 7151 17df FB        		.byte	-5
 7152 17e0 FB        		.byte	-5
 7153 17e1 FC        		.byte	-4
 7154 17e2 FB        		.byte	-5
 7155 17e3 FC        		.byte	-4
 7156 17e4 FC        		.byte	-4
 7157 17e5 FC        		.byte	-4
 7158 17e6 FC        		.byte	-4
 7159 17e7 FC        		.byte	-4
 7160 17e8 FD        		.byte	-3
 7161 17e9 FD        		.byte	-3
 7162 17ea FD        		.byte	-3
 7163 17eb FD        		.byte	-3
 7164 17ec FD        		.byte	-3
 7165 17ed FD        		.byte	-3
 7166 17ee FD        		.byte	-3
 7167 17ef FE        		.byte	-2
 7168 17f0 FE        		.byte	-2
 7169 17f1 FE        		.byte	-2
 7170 17f2 FE        		.byte	-2
 7171 17f3 FE        		.byte	-2
 7172 17f4 FF        		.byte	-1
 7173 17f5 FF        		.byte	-1
 7174 17f6 FF        		.byte	-1
 7175 17f7 FF        		.byte	-1
 7176 17f8 FF        		.byte	-1
 7177 17f9 FF        		.byte	-1
 7178 17fa FF        		.byte	-1
 7179 17fb FF        		.byte	-1
 7180 17fc 00        		.byte	0
 7181 17fd 00        		.byte	0
 7182 17fe 00        		.byte	0
 7183 17ff 00        		.byte	0
 7184 1800 00        		.byte	0
 7185 1801 00        		.byte	0
 7186 1802 00        		.byte	0
 7187 1803 00        		.byte	0
GAS LISTING /tmp/ccLsnRQw.s 			page 129


 7188 1804 00        		.byte	0
 7189 1805 00        		.byte	0
 7190 1806 00        		.byte	0
 7191 1807 00        		.byte	0
 7192 1808 00        		.byte	0
 7193 1809 00        		.byte	0
 7194 180a 00        		.byte	0
 7195 180b 00        		.byte	0
 7196 180c 00        		.byte	0
 7197 180d 00        		.byte	0
 7198 180e 00        		.byte	0
 7199 180f 00        		.byte	0
 7200 1810 00        		.byte	0
 7201 1811 00        		.byte	0
 7202 1812 00        		.byte	0
 7203 1813 00        		.byte	0
 7204 1814 00        		.byte	0
 7205 1815 00        		.byte	0
 7206 1816 FF        		.byte	-1
 7207 1817 FF        		.byte	-1
 7208 1818 FF        		.byte	-1
 7209 1819 FF        		.byte	-1
 7210 181a FF        		.byte	-1
 7211 181b FF        		.byte	-1
 7212 181c FF        		.byte	-1
 7213 181d FF        		.byte	-1
 7214 181e FF        		.byte	-1
 7215 181f FE        		.byte	-2
 7216 1820 FE        		.byte	-2
 7218               	.global	lfsr
 7219               		.data
 7222               	lfsr:
 7223 0000 E1AC      		.word	-21279
 7225               		.comm	fade_out_mode,1,1
 7227               		.comm	fade_in_mode,1,1
 7229               		.comm	fade_out,2,1
 7231               		.comm	fade_in,2,1
 7233               		.comm	mode_button,1,1
 7235               		.comm	mode,1,1
 7237               		.comm	frametimer,2,1
 7239               		.comm	volume1,1,1
 7241               		.comm	volume,1,1
 7243               		.comm	speed_rec1,1,1
 7245               		.comm	speed1,1,1
 7247               		.comm	speed_rec,1,1
 7249               		.comm	speed,1,1
 7251               		.comm	voiceptr,2,1
 7253               		.comm	wave,1,1
 7255               	.global	freq_rs
 7258               	freq_rs:
 7259 0002 77        		.byte	119
 7260 0003 71        		.byte	113
 7261 0004 6A        		.byte	106
 7262 0005 64        		.byte	100
 7263 0006 5F        		.byte	95
 7264 0007 59        		.byte	89
 7265 0008 7F        		.byte	127
GAS LISTING /tmp/ccLsnRQw.s 			page 130


 7266 0009 50        		.byte	80
 7267 000a 71        		.byte	113
 7268 000b 47        		.byte	71
 7269 000c 43        		.byte	67
 7270 000d 5F        		.byte	95
 7271 000e 77        		.byte	119
 7272 000f 71        		.byte	113
 7273 0010 50        		.byte	80
 7274 0011 7E        		.byte	126
 7275 0012 47        		.byte	71
 7276 0013 70        		.byte	112
 7277 0014 7F        		.byte	127
 7278 0015 50        		.byte	80
 7279 0016 5E        		.byte	94
 7280 0017 47        		.byte	71
 7281 0018 43        		.byte	67
 7282 0019 5F        		.byte	95
 7283 001a 77        		.byte	119
 7284 001b 7F        		.byte	127
 7285 001c 5D        		.byte	93
 7286 001d 71        		.byte	113
 7287 001e 53        		.byte	83
 7288 001f 7B        		.byte	123
 7289 0020 5F        		.byte	95
 7290 0021 46        		.byte	70
 7291 0022 5E        		.byte	94
 7292 0023 47        		.byte	71
 7293 0024 43        		.byte	67
 7294 0025 57        		.byte	87
 7295 0026 70        		.byte	112
 7296 0027 7F        		.byte	127
 7297 0028 71        		.byte	113
 7298 0029 71        		.byte	113
 7299 002a 4D        		.byte	77
 7300 002b 7B        		.byte	123
 7301 002c 5F        		.byte	95
 7302 002d 41        		.byte	65
 7303 002e 7F        		.byte	127
 7304 002f 6F        		.byte	111
 7305 0030 58        		.byte	88
 7306 0031 57        		.byte	87
 7307 0032 70        		.byte	112
 7308 0033 4A        		.byte	74
 7309 0034 7B        		.byte	123
 7310 0035 71        		.byte	113
 7311 0036 50        		.byte	80
 7312 0037 7B        		.byte	123
 7313 0038 5F        		.byte	95
 7314 0039 7F        		.byte	127
 7315 003a 57        		.byte	87
 7316 003b 5B        		.byte	91
 7317 003c 58        		.byte	88
 7318 003d 57        		.byte	87
 7319 003e 54        		.byte	84
 7320 003f 4A        		.byte	74
 7321 0040 80        		.byte	-128
 7322 0041 71        		.byte	113
GAS LISTING /tmp/ccLsnRQw.s 			page 131


 7323 0042 50        		.byte	80
 7324 0043 7B        		.byte	123
 7325 0044 80        		.byte	-128
 7326 0045 47        		.byte	71
 7327 0046 57        		.byte	87
 7328 0047 5B        		.byte	91
 7329 0048 42        		.byte	66
 7330 0049 80        		.byte	-128
 7331 004a 80        		.byte	-128
 7332 004b 80        		.byte	-128
 7333 004c 80        		.byte	-128
 7334 004d 80        		.byte	-128
 7335 004e 80        		.byte	-128
 7336 004f 80        		.byte	-128
 7337 0050 80        		.byte	-128
 7338 0051 80        		.byte	-128
 7339 0052 80        		.byte	-128
 7340 0053 80        		.byte	-128
 7341 0054 80        		.byte	-128
 7342 0055 80        		.byte	-128
 7343 0056 80        		.byte	-128
 7345               	.global	freq_s
 7348               	freq_s:
 7349 0057 02        		.byte	2
 7350 0058 02        		.byte	2
 7351 0059 02        		.byte	2
 7352 005a 02        		.byte	2
 7353 005b 02        		.byte	2
 7354 005c 02        		.byte	2
 7355 005d 03        		.byte	3
 7356 005e 02        		.byte	2
 7357 005f 03        		.byte	3
 7358 0060 02        		.byte	2
 7359 0061 02        		.byte	2
 7360 0062 03        		.byte	3
 7361 0063 04        		.byte	4
 7362 0064 04        		.byte	4
 7363 0065 03        		.byte	3
 7364 0066 05        		.byte	5
 7365 0067 03        		.byte	3
 7366 0068 05        		.byte	5
 7367 0069 06        		.byte	6
 7368 006a 04        		.byte	4
 7369 006b 05        		.byte	5
 7370 006c 04        		.byte	4
 7371 006d 04        		.byte	4
 7372 006e 06        		.byte	6
 7373 006f 08        		.byte	8
 7374 0070 09        		.byte	9
 7375 0071 07        		.byte	7
 7376 0072 09        		.byte	9
 7377 0073 07        		.byte	7
 7378 0074 0B        		.byte	11
 7379 0075 09        		.byte	9
 7380 0076 07        		.byte	7
 7381 0077 0A        		.byte	10
 7382 0078 08        		.byte	8
GAS LISTING /tmp/ccLsnRQw.s 			page 132


 7383 0079 08        		.byte	8
 7384 007a 0B        		.byte	11
 7385 007b 0F        		.byte	15
 7386 007c 12        		.byte	18
 7387 007d 11        		.byte	17
 7388 007e 12        		.byte	18
 7389 007f 0D        		.byte	13
 7390 0080 16        		.byte	22
 7391 0081 12        		.byte	18
 7392 0082 0D        		.byte	13
 7393 0083 1B        		.byte	27
 7394 0084 19        		.byte	25
 7395 0085 15        		.byte	21
 7396 0086 16        		.byte	22
 7397 0087 1E        		.byte	30
 7398 0088 15        		.byte	21
 7399 0089 25        		.byte	37
 7400 008a 24        		.byte	36
 7401 008b 1B        		.byte	27
 7402 008c 2C        		.byte	44
 7403 008d 24        		.byte	36
 7404 008e 33        		.byte	51
 7405 008f 25        		.byte	37
 7406 0090 29        		.byte	41
 7407 0091 2A        		.byte	42
 7408 0092 2C        		.byte	44
 7409 0093 2D        		.byte	45
 7410 0094 2A        		.byte	42
 7411 0095 4D        		.byte	77
 7412 0096 48        		.byte	72
 7413 0097 36        		.byte	54
 7414 0098 58        		.byte	88
 7415 0099 61        		.byte	97
 7416 009a 39        		.byte	57
 7417 009b 4A        		.byte	74
 7418 009c 52        		.byte	82
 7419 009d 3F        		.byte	63
 7420 009e 7E        		.byte	126
 7421 009f 7E        		.byte	126
 7422 00a0 7E        		.byte	126
 7423 00a1 7E        		.byte	126
 7424 00a2 7E        		.byte	126
 7425 00a3 7E        		.byte	126
 7426 00a4 7E        		.byte	126
 7427 00a5 7E        		.byte	126
 7428 00a6 7E        		.byte	126
 7429 00a7 7E        		.byte	126
 7430 00a8 7E        		.byte	126
 7431 00a9 7E        		.byte	126
 7432 00aa 7E        		.byte	126
 7433 00ab 7E        		.byte	126
 7435               		.text
 7437               	.Letext0:
 7438               		.ident	"GCC: (Fedora 6.3.0-1.fc26) 6.3.0"
 7439               	.global __do_copy_data
 7440               	.global __do_clear_bss
GAS LISTING /tmp/ccLsnRQw.s 			page 133


DEFINED SYMBOLS
                            *ABS*:0000000000000000 util.c
     /tmp/ccLsnRQw.s:2      *ABS*:000000000000003e __SP_H__
     /tmp/ccLsnRQw.s:3      *ABS*:000000000000003d __SP_L__
     /tmp/ccLsnRQw.s:4      *ABS*:000000000000003f __SREG__
     /tmp/ccLsnRQw.s:5      *ABS*:0000000000000000 __tmp_reg__
     /tmp/ccLsnRQw.s:6      *ABS*:0000000000000001 __zero_reg__
     /tmp/ccLsnRQw.s:114    .text:0000000000000000 voiceQuicklySleep
     /tmp/ccLsnRQw.s:134    .text:0000000000000004 GetFrametimer
                            *COM*:0000000000000002 frametimer
     /tmp/ccLsnRQw.s:174    .text:0000000000000012 GetRandom
     /tmp/ccLsnRQw.s:7222   .data:0000000000000000 lfsr
     /tmp/ccLsnRQw.s:233    .text:0000000000000060 __vector_14
     /tmp/ccLsnRQw.s:259    .text:0000000000000062 __vector_16
     /tmp/ccLsnRQw.s:283    .text:0000000000000074 intcont
     /tmp/ccLsnRQw.s:280    .text:0000000000000070 make_zero
                            *COM*:0000000000000002 voiceptr
                            *COM*:0000000000000001 wave
     /tmp/ccLsnRQw.s:426    .text:0000000000000118 voicePlayWave
     /tmp/ccLsnRQw.s:1032   .bss:0000000000000000 sampleCount
     /tmp/ccLsnRQw.s:1039   .progmem.data:0000000000000000 auddat
     /tmp/ccLsnRQw.s:485    .text:000000000000015c voiceDoBasicSynth
                            *COM*:0000000000000001 speed
     /tmp/ccLsnRQw.s:1023   .bss:000000000000000a wave1.1885
     /tmp/ccLsnRQw.s:1020   .bss:0000000000000009 wave0.1884
     /tmp/ccLsnRQw.s:1017   .bss:0000000000000008 up.1882
                            *COM*:0000000000000001 speed_rec
                            *COM*:0000000000000001 speed1
     /tmp/ccLsnRQw.s:1014   .bss:0000000000000007 up1.1883
                            *COM*:0000000000000001 speed_rec1
                            *COM*:0000000000000001 volume
     /tmp/ccLsnRQw.s:712    .text:00000000000002be voiceTunedNoise
     /tmp/ccLsnRQw.s:1011   .bss:0000000000000006 mark_s.1888
     /tmp/ccLsnRQw.s:758    .text:00000000000002ec voiceDrums
     /tmp/ccLsnRQw.s:1008   .bss:0000000000000005 drum_s.1892
     /tmp/ccLsnRQw.s:1005   .bss:0000000000000003 ticks.1893
                            *COM*:0000000000000002 fade_out
     /tmp/ccLsnRQw.s:842    .text:000000000000035a voiceNoise
                             .bss:0000000000000002 speedmark.1898
     /tmp/ccLsnRQw.s:888    .text:0000000000000388 ReadButtonMask
                            *COM*:0000000000000001 fade_out_mode
                            *COM*:0000000000000001 fade_in_mode
                            *COM*:0000000000000002 fade_in
                            *COM*:0000000000000001 mode_button
                            *COM*:0000000000000001 mode
                            *COM*:0000000000000001 volume1
     /tmp/ccLsnRQw.s:7258   .data:0000000000000002 freq_rs
     /tmp/ccLsnRQw.s:7348   .data:0000000000000057 freq_s

UNDEFINED SYMBOLS
__do_copy_data
__do_clear_bss
