GAS LISTING /tmp/ccEQRkCa.s 			page 1


   1               		.file	"main.c"
   2               	__SP_H__ = 0x3e
   3               	__SP_L__ = 0x3d
   4               	__SREG__ = 0x3f
   5               	__tmp_reg__ = 0
   6               	__zero_reg__ = 1
   9               		.text
  10               	.Ltext0:
 117               		.section	.init3,"ax",@progbits
 119               	.global	wdt_first
 121               	wdt_first:
 122               		.stabd	46,0,0
   1:main.c        **** #include <avr/io.h>
   2:main.c        **** #include <avr/interrupt.h>
   3:main.c        **** #include <util/delay.h>
   4:main.c        **** #include <avr/pgmspace.h>
   5:main.c        **** #include <avr/eeprom.h>
   6:main.c        **** #include <avr/wdt.h>
   7:main.c        **** #include <avr/power.h>
   8:main.c        **** #include <avr/sleep.h>
   9:main.c        **** #include "util.h"
  10:main.c        **** 
  11:main.c        **** register int8_t wave asm("r2");
  12:main.c        **** 
  13:main.c        **** uint8_t kit0_speed[] = {  23,  22,  21,  20,  19,  18,  17,  16,  15,  14,  13,  12,  11 };
  14:main.c        **** uint16_t kit0_fade[] = {  24,  24,  24,  24,  24,  24,  24,  24,  24,  24,  24,  24,  24 };
  15:main.c        **** uint8_t kit0_drop[] =  {  23,  22,  21,  20,  19,  18,  17,  16,  15,  14,  13,  12,  11 };
  16:main.c        **** 
  17:main.c        **** uint8_t kit1_speed[] = {  14,  13,   16,  11,  10,   9,   8,   7,   6,   5,   4,   2,   2 };
  18:main.c        **** uint16_t kit1_fade[] = { 128, 512,    8, 128, 128, 128, 128, 128, 255, 255, 255, 512,1024 };
  19:main.c        **** uint8_t kit1_drop[] =  {  5,   64,    4,  10,  10,  16,  16,  16,  24,  24,  24,  64, 128 };
  20:main.c        **** 
  21:main.c        **** uint8_t sqfreqs[] =    { 23,  22,  21,  20,  19,  18,  17,  16,  15,  14,  13,  12,  11};
  22:main.c        **** 
  23:main.c        **** void wdt_first(void) __attribute__((naked)) __attribute__((section(".init3")));
  24:main.c        **** 
  25:main.c        **** void wdt_first(void)
  26:main.c        **** {
 124               	.LM0:
 125               	.LFBB1:
 126               	/* prologue: naked */
 127               	/* frame size = 0 */
 128               	/* stack size = 0 */
 129               	.L__stack_usage = 0
  27:main.c        **** 	MCUSR = 0; // clear reset flags
 131               	.LM1:
 132 0000 14BE      		out 0x34,__zero_reg__
 133               	.LBB5:
 134               	.LBB6:
 136               	.Ltext1:
   1:/usr/avr/include/avr/wdt.h **** /* Copyright (c) 2002, 2004 Marek Michalkiewicz
   2:/usr/avr/include/avr/wdt.h ****    Copyright (c) 2005, 2006, 2007 Eric B. Weddington
   3:/usr/avr/include/avr/wdt.h ****    All rights reserved.
   4:/usr/avr/include/avr/wdt.h **** 
   5:/usr/avr/include/avr/wdt.h ****    Redistribution and use in source and binary forms, with or without
   6:/usr/avr/include/avr/wdt.h ****    modification, are permitted provided that the following conditions are met:
   7:/usr/avr/include/avr/wdt.h **** 
GAS LISTING /tmp/ccEQRkCa.s 			page 2


   8:/usr/avr/include/avr/wdt.h ****    * Redistributions of source code must retain the above copyright
   9:/usr/avr/include/avr/wdt.h ****      notice, this list of conditions and the following disclaimer.
  10:/usr/avr/include/avr/wdt.h **** 
  11:/usr/avr/include/avr/wdt.h ****    * Redistributions in binary form must reproduce the above copyright
  12:/usr/avr/include/avr/wdt.h ****      notice, this list of conditions and the following disclaimer in
  13:/usr/avr/include/avr/wdt.h ****      the documentation and/or other materials provided with the
  14:/usr/avr/include/avr/wdt.h ****      distribution.
  15:/usr/avr/include/avr/wdt.h **** 
  16:/usr/avr/include/avr/wdt.h ****    * Neither the name of the copyright holders nor the names of
  17:/usr/avr/include/avr/wdt.h ****      contributors may be used to endorse or promote products derived
  18:/usr/avr/include/avr/wdt.h ****      from this software without specific prior written permission.
  19:/usr/avr/include/avr/wdt.h **** 
  20:/usr/avr/include/avr/wdt.h ****   THIS SOFTWARE IS PROVIDED BY THE COPYRIGHT HOLDERS AND CONTRIBUTORS "AS IS"
  21:/usr/avr/include/avr/wdt.h ****   AND ANY EXPRESS OR IMPLIED WARRANTIES, INCLUDING, BUT NOT LIMITED TO, THE
  22:/usr/avr/include/avr/wdt.h ****   IMPLIED WARRANTIES OF MERCHANTABILITY AND FITNESS FOR A PARTICULAR PURPOSE
  23:/usr/avr/include/avr/wdt.h ****   ARE DISCLAIMED. IN NO EVENT SHALL THE COPYRIGHT OWNER OR CONTRIBUTORS BE
  24:/usr/avr/include/avr/wdt.h ****   LIABLE FOR ANY DIRECT, INDIRECT, INCIDENTAL, SPECIAL, EXEMPLARY, OR
  25:/usr/avr/include/avr/wdt.h ****   CONSEQUENTIAL DAMAGES (INCLUDING, BUT NOT LIMITED TO, PROCUREMENT OF
  26:/usr/avr/include/avr/wdt.h ****   SUBSTITUTE GOODS OR SERVICES; LOSS OF USE, DATA, OR PROFITS; OR BUSINESS
  27:/usr/avr/include/avr/wdt.h ****   INTERRUPTION) HOWEVER CAUSED AND ON ANY THEORY OF LIABILITY, WHETHER IN
  28:/usr/avr/include/avr/wdt.h ****   CONTRACT, STRICT LIABILITY, OR TORT (INCLUDING NEGLIGENCE OR OTHERWISE)
  29:/usr/avr/include/avr/wdt.h ****   ARISING IN ANY WAY OUT OF THE USE OF THIS SOFTWARE, EVEN IF ADVISED OF THE
  30:/usr/avr/include/avr/wdt.h ****   POSSIBILITY OF SUCH DAMAGE. */
  31:/usr/avr/include/avr/wdt.h **** 
  32:/usr/avr/include/avr/wdt.h **** /* $Id$ */
  33:/usr/avr/include/avr/wdt.h **** 
  34:/usr/avr/include/avr/wdt.h **** /*
  35:/usr/avr/include/avr/wdt.h ****    avr/wdt.h - macros for AVR watchdog timer
  36:/usr/avr/include/avr/wdt.h ****  */
  37:/usr/avr/include/avr/wdt.h **** 
  38:/usr/avr/include/avr/wdt.h **** #ifndef _AVR_WDT_H_
  39:/usr/avr/include/avr/wdt.h **** #define _AVR_WDT_H_
  40:/usr/avr/include/avr/wdt.h **** 
  41:/usr/avr/include/avr/wdt.h **** #include <avr/io.h>
  42:/usr/avr/include/avr/wdt.h **** #include <stdint.h>
  43:/usr/avr/include/avr/wdt.h **** 
  44:/usr/avr/include/avr/wdt.h **** /** \file */
  45:/usr/avr/include/avr/wdt.h **** /** \defgroup avr_watchdog <avr/wdt.h>: Watchdog timer handling
  46:/usr/avr/include/avr/wdt.h ****     \code #include <avr/wdt.h> \endcode
  47:/usr/avr/include/avr/wdt.h **** 
  48:/usr/avr/include/avr/wdt.h ****     This header file declares the interface to some inline macros
  49:/usr/avr/include/avr/wdt.h ****     handling the watchdog timer present in many AVR devices.  In order
  50:/usr/avr/include/avr/wdt.h ****     to prevent the watchdog timer configuration from being
  51:/usr/avr/include/avr/wdt.h ****     accidentally altered by a crashing application, a special timed
  52:/usr/avr/include/avr/wdt.h ****     sequence is required in order to change it.  The macros within
  53:/usr/avr/include/avr/wdt.h ****     this header file handle the required sequence automatically
  54:/usr/avr/include/avr/wdt.h ****     before changing any value.  Interrupts will be disabled during
  55:/usr/avr/include/avr/wdt.h ****     the manipulation.
  56:/usr/avr/include/avr/wdt.h **** 
  57:/usr/avr/include/avr/wdt.h ****     \note Depending on the fuse configuration of the particular
  58:/usr/avr/include/avr/wdt.h ****     device, further restrictions might apply, in particular it might
  59:/usr/avr/include/avr/wdt.h ****     be disallowed to turn off the watchdog timer.
  60:/usr/avr/include/avr/wdt.h **** 
  61:/usr/avr/include/avr/wdt.h ****     Note that for newer devices (ATmega88 and newer, effectively any
  62:/usr/avr/include/avr/wdt.h ****     AVR that has the option to also generate interrupts), the watchdog
  63:/usr/avr/include/avr/wdt.h ****     timer remains active even after a system reset (except a power-on
  64:/usr/avr/include/avr/wdt.h ****     condition), using the fastest prescaler value (approximately 15
GAS LISTING /tmp/ccEQRkCa.s 			page 3


  65:/usr/avr/include/avr/wdt.h ****     ms).  It is therefore required to turn off the watchdog early
  66:/usr/avr/include/avr/wdt.h ****     during program startup, the datasheet recommends a sequence like
  67:/usr/avr/include/avr/wdt.h ****     the following:
  68:/usr/avr/include/avr/wdt.h **** 
  69:/usr/avr/include/avr/wdt.h ****     \code
  70:/usr/avr/include/avr/wdt.h ****     #include <stdint.h>
  71:/usr/avr/include/avr/wdt.h ****     #include <avr/wdt.h>
  72:/usr/avr/include/avr/wdt.h **** 
  73:/usr/avr/include/avr/wdt.h ****     uint8_t mcusr_mirror __attribute__ ((section (".noinit")));
  74:/usr/avr/include/avr/wdt.h **** 
  75:/usr/avr/include/avr/wdt.h ****     void get_mcusr(void) \
  76:/usr/avr/include/avr/wdt.h ****       __attribute__((naked)) \
  77:/usr/avr/include/avr/wdt.h ****       __attribute__((section(".init3")));
  78:/usr/avr/include/avr/wdt.h ****     void get_mcusr(void)
  79:/usr/avr/include/avr/wdt.h ****     {
  80:/usr/avr/include/avr/wdt.h ****       mcusr_mirror = MCUSR;
  81:/usr/avr/include/avr/wdt.h ****       MCUSR = 0;
  82:/usr/avr/include/avr/wdt.h ****       wdt_disable();
  83:/usr/avr/include/avr/wdt.h ****     }
  84:/usr/avr/include/avr/wdt.h ****     \endcode
  85:/usr/avr/include/avr/wdt.h **** 
  86:/usr/avr/include/avr/wdt.h ****     Saving the value of MCUSR in \c mcusr_mirror is only needed if the
  87:/usr/avr/include/avr/wdt.h ****     application later wants to examine the reset source, but in particular, 
  88:/usr/avr/include/avr/wdt.h ****     clearing the watchdog reset flag before disabling the
  89:/usr/avr/include/avr/wdt.h ****     watchdog is required, according to the datasheet.
  90:/usr/avr/include/avr/wdt.h **** */
  91:/usr/avr/include/avr/wdt.h **** 
  92:/usr/avr/include/avr/wdt.h **** /**
  93:/usr/avr/include/avr/wdt.h ****    \ingroup avr_watchdog
  94:/usr/avr/include/avr/wdt.h ****    Reset the watchdog timer.  When the watchdog timer is enabled,
  95:/usr/avr/include/avr/wdt.h ****    a call to this instruction is required before the timer expires,
  96:/usr/avr/include/avr/wdt.h ****    otherwise a watchdog-initiated device reset will occur. 
  97:/usr/avr/include/avr/wdt.h **** */
  98:/usr/avr/include/avr/wdt.h **** 
  99:/usr/avr/include/avr/wdt.h **** #define wdt_reset() __asm__ __volatile__ ("wdr")
 100:/usr/avr/include/avr/wdt.h **** 
 101:/usr/avr/include/avr/wdt.h **** #ifndef __DOXYGEN__
 102:/usr/avr/include/avr/wdt.h **** 
 103:/usr/avr/include/avr/wdt.h **** #if defined(WDP3)
 104:/usr/avr/include/avr/wdt.h **** # define _WD_PS3_MASK       _BV(WDP3)
 105:/usr/avr/include/avr/wdt.h **** #else
 106:/usr/avr/include/avr/wdt.h **** # define _WD_PS3_MASK       0x00
 107:/usr/avr/include/avr/wdt.h **** #endif
 108:/usr/avr/include/avr/wdt.h **** 
 109:/usr/avr/include/avr/wdt.h **** #if defined(WDTCSR)
 110:/usr/avr/include/avr/wdt.h **** #  define _WD_CONTROL_REG     WDTCSR
 111:/usr/avr/include/avr/wdt.h **** #elif defined(WDTCR)
 112:/usr/avr/include/avr/wdt.h **** #  define _WD_CONTROL_REG     WDTCR
 113:/usr/avr/include/avr/wdt.h **** #else
 114:/usr/avr/include/avr/wdt.h **** #  define _WD_CONTROL_REG     WDT
 115:/usr/avr/include/avr/wdt.h **** #endif
 116:/usr/avr/include/avr/wdt.h **** 
 117:/usr/avr/include/avr/wdt.h **** #if defined(WDTOE)
 118:/usr/avr/include/avr/wdt.h **** #define _WD_CHANGE_BIT      WDTOE
 119:/usr/avr/include/avr/wdt.h **** #else
 120:/usr/avr/include/avr/wdt.h **** #define _WD_CHANGE_BIT      WDCE
 121:/usr/avr/include/avr/wdt.h **** #endif
GAS LISTING /tmp/ccEQRkCa.s 			page 4


 122:/usr/avr/include/avr/wdt.h **** 
 123:/usr/avr/include/avr/wdt.h **** #endif	/* !__DOXYGEN__ */
 124:/usr/avr/include/avr/wdt.h **** 
 125:/usr/avr/include/avr/wdt.h **** 
 126:/usr/avr/include/avr/wdt.h **** /**
 127:/usr/avr/include/avr/wdt.h ****    \ingroup avr_watchdog
 128:/usr/avr/include/avr/wdt.h ****    Enable the watchdog timer, configuring it for expiry after
 129:/usr/avr/include/avr/wdt.h ****    \c timeout (which is a combination of the \c WDP0 through
 130:/usr/avr/include/avr/wdt.h ****    \c WDP2 bits to write into the \c WDTCR register; For those devices 
 131:/usr/avr/include/avr/wdt.h ****    that have a \c WDTCSR register, it uses the combination of the \c WDP0 
 132:/usr/avr/include/avr/wdt.h ****    through \c WDP3 bits).
 133:/usr/avr/include/avr/wdt.h **** 
 134:/usr/avr/include/avr/wdt.h ****    See also the symbolic constants \c WDTO_15MS et al.
 135:/usr/avr/include/avr/wdt.h **** */
 136:/usr/avr/include/avr/wdt.h **** 
 137:/usr/avr/include/avr/wdt.h **** 
 138:/usr/avr/include/avr/wdt.h **** #if defined(__AVR_XMEGA__)
 139:/usr/avr/include/avr/wdt.h **** 
 140:/usr/avr/include/avr/wdt.h **** #if defined (WDT_CTRLA) && !defined(RAMPD)
 141:/usr/avr/include/avr/wdt.h **** 
 142:/usr/avr/include/avr/wdt.h **** #define wdt_enable(timeout) \
 143:/usr/avr/include/avr/wdt.h **** do { \
 144:/usr/avr/include/avr/wdt.h **** uint8_t temp; \
 145:/usr/avr/include/avr/wdt.h **** __asm__ __volatile__ ( \
 146:/usr/avr/include/avr/wdt.h **** 	"wdr"									"\n\t" \
 147:/usr/avr/include/avr/wdt.h **** 	"out %[ccp_reg], %[ioreg_cen_mask]"		"\n\t" \
 148:/usr/avr/include/avr/wdt.h **** 	"lds %[tmp], %[wdt_reg]"				"\n\t" \
 149:/usr/avr/include/avr/wdt.h **** 	"sbr %[tmp], %[wdt_enable_timeout]"		"\n\t" \
 150:/usr/avr/include/avr/wdt.h **** 	"sts %[wdt_reg], %[tmp]"				"\n\t" \
 151:/usr/avr/include/avr/wdt.h **** 	"1:lds %[tmp], %[wdt_status_reg]"		"\n\t" \
 152:/usr/avr/include/avr/wdt.h **** 	"sbrc %[tmp], %[wdt_syncbusy_bit]"		"\n\t" \
 153:/usr/avr/include/avr/wdt.h **** 	"rjmp 1b"								"\n\t" \
 154:/usr/avr/include/avr/wdt.h **** 	: [tmp]					"=r" (temp) \
 155:/usr/avr/include/avr/wdt.h **** 	: [ccp_reg]				"I"  (_SFR_IO_ADDR(CCP)), \
 156:/usr/avr/include/avr/wdt.h **** 	  [ioreg_cen_mask]		"r"  ((uint8_t)CCP_IOREG_gc), \
 157:/usr/avr/include/avr/wdt.h **** 	  [wdt_reg]				"n"  (_SFR_MEM_ADDR(WDT_CTRLA)), \
 158:/usr/avr/include/avr/wdt.h **** 	  [wdt_enable_timeout]	"M"  (timeout), \
 159:/usr/avr/include/avr/wdt.h **** 	  [wdt_status_reg]		"n"  (_SFR_MEM_ADDR(WDT_STATUS)), \
 160:/usr/avr/include/avr/wdt.h **** 	  [wdt_syncbusy_bit]	"I"  (WDT_SYNCBUSY_bm) \
 161:/usr/avr/include/avr/wdt.h **** ); \
 162:/usr/avr/include/avr/wdt.h **** } while(0)
 163:/usr/avr/include/avr/wdt.h **** 
 164:/usr/avr/include/avr/wdt.h **** #define wdt_disable() \
 165:/usr/avr/include/avr/wdt.h **** do { \
 166:/usr/avr/include/avr/wdt.h **** uint8_t temp; \
 167:/usr/avr/include/avr/wdt.h **** __asm__ __volatile__ (  \
 168:/usr/avr/include/avr/wdt.h **** 	"wdr"								"\n\t" \
 169:/usr/avr/include/avr/wdt.h **** 	"out %[ccp_reg], %[ioreg_cen_mask]" "\n\t" \
 170:/usr/avr/include/avr/wdt.h **** 	"lds %[tmp], %[wdt_reg]"			"\n\t" \
 171:/usr/avr/include/avr/wdt.h **** 	"cbr %[tmp], %[timeout_mask]"       "\n\t" \
 172:/usr/avr/include/avr/wdt.h **** 	"sts %[wdt_reg], %[tmp]"			"\n\t" \
 173:/usr/avr/include/avr/wdt.h ****     : [tmp]            "=r" (temp) \
 174:/usr/avr/include/avr/wdt.h ****     : [ccp_reg]        "I" (_SFR_IO_ADDR(CCP)),       \
 175:/usr/avr/include/avr/wdt.h ****       [ioreg_cen_mask] "r" ((uint8_t)CCP_IOREG_gc),   \
 176:/usr/avr/include/avr/wdt.h ****       [wdt_reg]        "n" (_SFR_MEM_ADDR(WDT_CTRLA)),\
 177:/usr/avr/include/avr/wdt.h ****       [timeout_mask]   "I" (WDT_PERIOD_gm) \
 178:/usr/avr/include/avr/wdt.h **** ); \
GAS LISTING /tmp/ccEQRkCa.s 			page 5


 179:/usr/avr/include/avr/wdt.h **** } while(0)
 180:/usr/avr/include/avr/wdt.h **** 
 181:/usr/avr/include/avr/wdt.h **** #else // defined (WDT_CTRLA) && !defined(RAMPD)
 182:/usr/avr/include/avr/wdt.h **** 
 183:/usr/avr/include/avr/wdt.h **** /*
 184:/usr/avr/include/avr/wdt.h ****    wdt_enable(timeout) for xmega devices
 185:/usr/avr/include/avr/wdt.h **** ** write signature (CCP_IOREG_gc) that enables change of protected I/O
 186:/usr/avr/include/avr/wdt.h ****    registers to the CCP register
 187:/usr/avr/include/avr/wdt.h **** ** At the same time,
 188:/usr/avr/include/avr/wdt.h ****    1) set WDT change enable (WDT_CEN_bm)
 189:/usr/avr/include/avr/wdt.h ****    2) enable WDT (WDT_ENABLE_bm)
 190:/usr/avr/include/avr/wdt.h ****    3) set timeout (timeout)
 191:/usr/avr/include/avr/wdt.h **** ** Synchronization starts when ENABLE bit of WDT is set. So, wait till it
 192:/usr/avr/include/avr/wdt.h ****    finishes (SYNCBUSY of STATUS register is automatically cleared after the
 193:/usr/avr/include/avr/wdt.h ****    sync is finished).
 194:/usr/avr/include/avr/wdt.h **** */
 195:/usr/avr/include/avr/wdt.h **** #define wdt_enable(timeout) \
 196:/usr/avr/include/avr/wdt.h **** do { \
 197:/usr/avr/include/avr/wdt.h **** uint8_t temp; \
 198:/usr/avr/include/avr/wdt.h **** __asm__ __volatile__ (         \
 199:/usr/avr/include/avr/wdt.h ****     "in __tmp_reg__, %[rampd]"              "\n\t" \
 200:/usr/avr/include/avr/wdt.h ****     "out %[rampd], __zero_reg__"            "\n\t" \
 201:/usr/avr/include/avr/wdt.h ****     "out %[ccp_reg], %[ioreg_cen_mask]"     "\n\t" \
 202:/usr/avr/include/avr/wdt.h ****     "sts %[wdt_reg], %[wdt_enable_timeout]" "\n\t" \
 203:/usr/avr/include/avr/wdt.h ****     "1:lds %[tmp], %[wdt_status_reg]"       "\n\t" \
 204:/usr/avr/include/avr/wdt.h ****     "sbrc %[tmp], %[wdt_syncbusy_bit]"      "\n\t" \
 205:/usr/avr/include/avr/wdt.h ****     "rjmp 1b"                               "\n\t" \
 206:/usr/avr/include/avr/wdt.h ****     "out %[rampd], __tmp_reg__"             "\n\t" \
 207:/usr/avr/include/avr/wdt.h ****     : [tmp]                "=r" (temp) \
 208:/usr/avr/include/avr/wdt.h ****     : [rampd]              "I" (_SFR_IO_ADDR(RAMPD)),      \
 209:/usr/avr/include/avr/wdt.h ****       [ccp_reg]            "I" (_SFR_IO_ADDR(CCP)),        \
 210:/usr/avr/include/avr/wdt.h ****       [ioreg_cen_mask]     "r" ((uint8_t)CCP_IOREG_gc),     \
 211:/usr/avr/include/avr/wdt.h ****       [wdt_reg]            "n" (_SFR_MEM_ADDR(WDT_CTRL)),   \
 212:/usr/avr/include/avr/wdt.h ****       [wdt_enable_timeout] "r" ((uint8_t)(WDT_CEN_bm | WDT_ENABLE_bm | timeout)), \
 213:/usr/avr/include/avr/wdt.h ****       [wdt_status_reg]     "n" (_SFR_MEM_ADDR(WDT_STATUS)), \
 214:/usr/avr/include/avr/wdt.h ****       [wdt_syncbusy_bit]   "I" (WDT_SYNCBUSY_bm)            \
 215:/usr/avr/include/avr/wdt.h ****     : "r0" \
 216:/usr/avr/include/avr/wdt.h **** ); \
 217:/usr/avr/include/avr/wdt.h **** } while(0)
 218:/usr/avr/include/avr/wdt.h **** 
 219:/usr/avr/include/avr/wdt.h **** #define wdt_disable() \
 220:/usr/avr/include/avr/wdt.h **** __asm__ __volatile__ (  \
 221:/usr/avr/include/avr/wdt.h ****     "in __tmp_reg__, %[rampd]"          "\n\t" \
 222:/usr/avr/include/avr/wdt.h ****     "out %[rampd], __zero_reg__"        "\n\t" \
 223:/usr/avr/include/avr/wdt.h ****     "out %[ccp_reg], %[ioreg_cen_mask]" "\n\t" \
 224:/usr/avr/include/avr/wdt.h ****     "sts %[wdt_reg], %[disable_mask]"   "\n\t" \
 225:/usr/avr/include/avr/wdt.h ****     "out %[rampd], __tmp_reg__"         "\n\t" \
 226:/usr/avr/include/avr/wdt.h ****     : \
 227:/usr/avr/include/avr/wdt.h ****     : [rampd]             "I" (_SFR_IO_ADDR(RAMPD)),    \
 228:/usr/avr/include/avr/wdt.h ****       [ccp_reg]           "I" (_SFR_IO_ADDR(CCP)),      \
 229:/usr/avr/include/avr/wdt.h ****       [ioreg_cen_mask]    "r" ((uint8_t)CCP_IOREG_gc),   \
 230:/usr/avr/include/avr/wdt.h ****       [wdt_reg]           "n" (_SFR_MEM_ADDR(WDT_CTRL)), \
 231:/usr/avr/include/avr/wdt.h ****       [disable_mask]      "r" ((uint8_t)((~WDT_ENABLE_bm) | WDT_CEN_bm)) \
 232:/usr/avr/include/avr/wdt.h ****     : "r0" \
 233:/usr/avr/include/avr/wdt.h **** );
 234:/usr/avr/include/avr/wdt.h **** 
 235:/usr/avr/include/avr/wdt.h **** #endif // defined (WDT_CTRLA) && !defined(RAMPD)
GAS LISTING /tmp/ccEQRkCa.s 			page 6


 236:/usr/avr/include/avr/wdt.h **** 
 237:/usr/avr/include/avr/wdt.h **** #elif defined(__AVR_TINY__)
 238:/usr/avr/include/avr/wdt.h **** 
 239:/usr/avr/include/avr/wdt.h **** #define wdt_enable(value) \
 240:/usr/avr/include/avr/wdt.h **** __asm__ __volatile__ ( \
 241:/usr/avr/include/avr/wdt.h ****     "in __tmp_reg__,__SREG__" "\n\t"  \
 242:/usr/avr/include/avr/wdt.h ****     "cli" "\n\t"  \
 243:/usr/avr/include/avr/wdt.h ****     "wdr" "\n\t"  \
 244:/usr/avr/include/avr/wdt.h ****     "out %[CCPADDRESS],%[SIGNATURE]" "\n\t"  \
 245:/usr/avr/include/avr/wdt.h ****     "out %[WDTREG],%[WDVALUE]" "\n\t"  \
 246:/usr/avr/include/avr/wdt.h ****     "out __SREG__,__tmp_reg__" "\n\t"  \
 247:/usr/avr/include/avr/wdt.h ****     : /* no outputs */  \
 248:/usr/avr/include/avr/wdt.h ****     : [CCPADDRESS] "I" (_SFR_IO_ADDR(CCP)),  \
 249:/usr/avr/include/avr/wdt.h ****       [SIGNATURE] "r" ((uint8_t)0xD8), \
 250:/usr/avr/include/avr/wdt.h ****       [WDTREG] "I" (_SFR_IO_ADDR(_WD_CONTROL_REG)), \
 251:/usr/avr/include/avr/wdt.h ****       [WDVALUE] "r" ((uint8_t)((value & 0x08 ? _WD_PS3_MASK : 0x00) \
 252:/usr/avr/include/avr/wdt.h ****       | _BV(WDE) | (value & 0x07) )) \
 253:/usr/avr/include/avr/wdt.h ****     : "r16" \
 254:/usr/avr/include/avr/wdt.h **** )
 255:/usr/avr/include/avr/wdt.h **** 
 256:/usr/avr/include/avr/wdt.h **** #define wdt_disable() \
 257:/usr/avr/include/avr/wdt.h **** do { \
 258:/usr/avr/include/avr/wdt.h **** uint8_t temp_wd; \
 259:/usr/avr/include/avr/wdt.h **** __asm__ __volatile__ ( \
 260:/usr/avr/include/avr/wdt.h ****     "in __tmp_reg__,__SREG__" "\n\t"  \
 261:/usr/avr/include/avr/wdt.h ****     "cli" "\n\t"  \
 262:/usr/avr/include/avr/wdt.h ****     "wdr" "\n\t"  \
 263:/usr/avr/include/avr/wdt.h ****     "out %[CCPADDRESS],%[SIGNATURE]" "\n\t"  \
 264:/usr/avr/include/avr/wdt.h ****     "in  %[TEMP_WD],%[WDTREG]" "\n\t" \
 265:/usr/avr/include/avr/wdt.h ****     "cbr %[TEMP_WD],%[WDVALUE]" "\n\t" \
 266:/usr/avr/include/avr/wdt.h ****     "out %[WDTREG],%[TEMP_WD]" "\n\t" \
 267:/usr/avr/include/avr/wdt.h ****     "out __SREG__,__tmp_reg__" "\n\t" \
 268:/usr/avr/include/avr/wdt.h ****     : /*no output */ \
 269:/usr/avr/include/avr/wdt.h ****     : [CCPADDRESS] "I" (_SFR_IO_ADDR(CCP)), \
 270:/usr/avr/include/avr/wdt.h ****       [SIGNATURE] "r" ((uint8_t)0xD8), \
 271:/usr/avr/include/avr/wdt.h ****       [WDTREG] "I" (_SFR_IO_ADDR(_WD_CONTROL_REG)), \
 272:/usr/avr/include/avr/wdt.h ****       [TEMP_WD] "d" (temp_wd), \
 273:/usr/avr/include/avr/wdt.h ****       [WDVALUE] "n" (1 << WDE) \
 274:/usr/avr/include/avr/wdt.h ****     : "r16" \
 275:/usr/avr/include/avr/wdt.h **** ); \
 276:/usr/avr/include/avr/wdt.h **** }while(0)
 277:/usr/avr/include/avr/wdt.h **** 
 278:/usr/avr/include/avr/wdt.h **** #elif defined(CCP)
 279:/usr/avr/include/avr/wdt.h **** 
 280:/usr/avr/include/avr/wdt.h **** static __inline__
 281:/usr/avr/include/avr/wdt.h **** __attribute__ ((__always_inline__))
 282:/usr/avr/include/avr/wdt.h **** void wdt_enable (const uint8_t value)
 283:/usr/avr/include/avr/wdt.h **** {
 284:/usr/avr/include/avr/wdt.h **** 	if (!_SFR_IO_REG_P (CCP) && !_SFR_IO_REG_P (_WD_CONTROL_REG))
 285:/usr/avr/include/avr/wdt.h **** 	{
 286:/usr/avr/include/avr/wdt.h **** 		__asm__ __volatile__ (
 287:/usr/avr/include/avr/wdt.h **** 			"in __tmp_reg__,__SREG__" "\n\t"
 288:/usr/avr/include/avr/wdt.h **** 			"cli" "\n\t"
 289:/usr/avr/include/avr/wdt.h **** 			"wdr" "\n\t"
 290:/usr/avr/include/avr/wdt.h **** 			"sts %[CCPADDRESS],%[SIGNATURE]" "\n\t"
 291:/usr/avr/include/avr/wdt.h **** 			"sts %[WDTREG],%[WDVALUE]" "\n\t"
 292:/usr/avr/include/avr/wdt.h **** 			"out __SREG__,__tmp_reg__" "\n\t"
GAS LISTING /tmp/ccEQRkCa.s 			page 7


 293:/usr/avr/include/avr/wdt.h **** 			: /* no outputs */
 294:/usr/avr/include/avr/wdt.h **** 			: [CCPADDRESS] "n" (_SFR_MEM_ADDR(CCP)),
 295:/usr/avr/include/avr/wdt.h **** 			[SIGNATURE] "r" ((uint8_t)0xD8),
 296:/usr/avr/include/avr/wdt.h **** 			[WDTREG] "n" (_SFR_MEM_ADDR(_WD_CONTROL_REG)),
 297:/usr/avr/include/avr/wdt.h **** 			[WDVALUE] "r" ((uint8_t)((value & 0x08 ? _WD_PS3_MASK : 0x00)
 298:/usr/avr/include/avr/wdt.h **** 				| _BV(WDE) | (value & 0x07) ))
 299:/usr/avr/include/avr/wdt.h **** 			: "r0"
 300:/usr/avr/include/avr/wdt.h **** 			);
 301:/usr/avr/include/avr/wdt.h **** 	}
 302:/usr/avr/include/avr/wdt.h **** 	else if (!_SFR_IO_REG_P (CCP) && _SFR_IO_REG_P (_WD_CONTROL_REG))
 303:/usr/avr/include/avr/wdt.h **** 	{
 304:/usr/avr/include/avr/wdt.h **** 		__asm__ __volatile__ (
 305:/usr/avr/include/avr/wdt.h **** 			"in __tmp_reg__,__SREG__" "\n\t"
 306:/usr/avr/include/avr/wdt.h **** 			"cli" "\n\t"
 307:/usr/avr/include/avr/wdt.h **** 			"wdr" "\n\t"
 308:/usr/avr/include/avr/wdt.h **** 			"sts %[CCPADDRESS],%[SIGNATURE]" "\n\t"
 309:/usr/avr/include/avr/wdt.h **** 			"out %[WDTREG],%[WDVALUE]" "\n\t"
 310:/usr/avr/include/avr/wdt.h **** 			"out __SREG__,__tmp_reg__" "\n\t"
 311:/usr/avr/include/avr/wdt.h **** 			: /* no outputs */
 312:/usr/avr/include/avr/wdt.h **** 			: [CCPADDRESS] "n" (_SFR_MEM_ADDR(CCP)),
 313:/usr/avr/include/avr/wdt.h **** 			[SIGNATURE] "r" ((uint8_t)0xD8),
 314:/usr/avr/include/avr/wdt.h **** 			[WDTREG] "I" (_SFR_IO_ADDR(_WD_CONTROL_REG)),
 315:/usr/avr/include/avr/wdt.h **** 			[WDVALUE] "r" ((uint8_t)((value & 0x08 ? _WD_PS3_MASK : 0x00)
 316:/usr/avr/include/avr/wdt.h **** 				| _BV(WDE) | (value & 0x07) ))
 317:/usr/avr/include/avr/wdt.h **** 			: "r0"
 318:/usr/avr/include/avr/wdt.h **** 			);
 319:/usr/avr/include/avr/wdt.h **** 	}
 320:/usr/avr/include/avr/wdt.h **** 	else if (_SFR_IO_REG_P (CCP) && !_SFR_IO_REG_P (_WD_CONTROL_REG))
 321:/usr/avr/include/avr/wdt.h **** 	{
 322:/usr/avr/include/avr/wdt.h **** 		__asm__ __volatile__ (
 323:/usr/avr/include/avr/wdt.h **** 			"in __tmp_reg__,__SREG__" "\n\t"
 324:/usr/avr/include/avr/wdt.h **** 			"cli" "\n\t"
 325:/usr/avr/include/avr/wdt.h **** 			"wdr" "\n\t"
 326:/usr/avr/include/avr/wdt.h **** 			"out %[CCPADDRESS],%[SIGNATURE]" "\n\t"
 327:/usr/avr/include/avr/wdt.h **** 			"sts %[WDTREG],%[WDVALUE]" "\n\t"
 328:/usr/avr/include/avr/wdt.h **** 			"out __SREG__,__tmp_reg__" "\n\t"
 329:/usr/avr/include/avr/wdt.h **** 			: /* no outputs */
 330:/usr/avr/include/avr/wdt.h **** 			: [CCPADDRESS] "I" (_SFR_IO_ADDR(CCP)),
 331:/usr/avr/include/avr/wdt.h **** 			[SIGNATURE] "r" ((uint8_t)0xD8),
 332:/usr/avr/include/avr/wdt.h **** 			[WDTREG] "n" (_SFR_MEM_ADDR(_WD_CONTROL_REG)),
 333:/usr/avr/include/avr/wdt.h **** 			[WDVALUE] "r" ((uint8_t)((value & 0x08 ? _WD_PS3_MASK : 0x00)
 334:/usr/avr/include/avr/wdt.h **** 				| _BV(WDE) | (value & 0x07) ))
 335:/usr/avr/include/avr/wdt.h **** 			: "r0"
 336:/usr/avr/include/avr/wdt.h **** 			);
 337:/usr/avr/include/avr/wdt.h **** 	}
 338:/usr/avr/include/avr/wdt.h **** 	else
 339:/usr/avr/include/avr/wdt.h ****  	{
 340:/usr/avr/include/avr/wdt.h **** 		__asm__ __volatile__ (
 341:/usr/avr/include/avr/wdt.h **** 			"in __tmp_reg__,__SREG__" "\n\t"
 342:/usr/avr/include/avr/wdt.h **** 			"cli" "\n\t"
 343:/usr/avr/include/avr/wdt.h **** 			"wdr" "\n\t"
 344:/usr/avr/include/avr/wdt.h **** 			"out %[CCPADDRESS],%[SIGNATURE]" "\n\t"
 345:/usr/avr/include/avr/wdt.h **** 			"out %[WDTREG],%[WDVALUE]" "\n\t"
 346:/usr/avr/include/avr/wdt.h **** 			"out __SREG__,__tmp_reg__" "\n\t"
 347:/usr/avr/include/avr/wdt.h **** 			: /* no outputs */
 348:/usr/avr/include/avr/wdt.h **** 			: [CCPADDRESS] "I" (_SFR_IO_ADDR(CCP)),
 349:/usr/avr/include/avr/wdt.h **** 			[SIGNATURE] "r" ((uint8_t)0xD8),
GAS LISTING /tmp/ccEQRkCa.s 			page 8


 350:/usr/avr/include/avr/wdt.h **** 			[WDTREG] "I" (_SFR_IO_ADDR(_WD_CONTROL_REG)),
 351:/usr/avr/include/avr/wdt.h **** 			[WDVALUE] "r" ((uint8_t)((value & 0x08 ? _WD_PS3_MASK : 0x00)
 352:/usr/avr/include/avr/wdt.h **** 				| _BV(WDE) | (value & 0x07) ))
 353:/usr/avr/include/avr/wdt.h **** 			: "r0"
 354:/usr/avr/include/avr/wdt.h **** 			);
 355:/usr/avr/include/avr/wdt.h **** 	}
 356:/usr/avr/include/avr/wdt.h **** }
 357:/usr/avr/include/avr/wdt.h **** 
 358:/usr/avr/include/avr/wdt.h **** static __inline__
 359:/usr/avr/include/avr/wdt.h **** __attribute__ ((__always_inline__))
 360:/usr/avr/include/avr/wdt.h **** void wdt_disable (void)
 361:/usr/avr/include/avr/wdt.h **** {
 362:/usr/avr/include/avr/wdt.h **** 	if (!_SFR_IO_REG_P (CCP) && !_SFR_IO_REG_P(_WD_CONTROL_REG))
 363:/usr/avr/include/avr/wdt.h **** 	{
 364:/usr/avr/include/avr/wdt.h ****         uint8_t temp_wd;
 365:/usr/avr/include/avr/wdt.h ****         __asm__ __volatile__ (
 366:/usr/avr/include/avr/wdt.h **** 				"in __tmp_reg__,__SREG__" "\n\t"
 367:/usr/avr/include/avr/wdt.h **** 				"cli" "\n\t"
 368:/usr/avr/include/avr/wdt.h **** 				"wdr" "\n\t"
 369:/usr/avr/include/avr/wdt.h **** 				"sts %[CCPADDRESS],%[SIGNATURE]" "\n\t"
 370:/usr/avr/include/avr/wdt.h **** 				"lds %[TEMP_WD],%[WDTREG]" "\n\t"
 371:/usr/avr/include/avr/wdt.h **** 				"cbr %[TEMP_WD],%[WDVALUE]" "\n\t"
 372:/usr/avr/include/avr/wdt.h **** 				"sts %[WDTREG],%[TEMP_WD]" "\n\t"
 373:/usr/avr/include/avr/wdt.h **** 				"out __SREG__,__tmp_reg__" "\n\t"
 374:/usr/avr/include/avr/wdt.h **** 				: /*no output */
 375:/usr/avr/include/avr/wdt.h **** 				: [CCPADDRESS] "n" (_SFR_MEM_ADDR(CCP)),
 376:/usr/avr/include/avr/wdt.h **** 				[SIGNATURE] "r" ((uint8_t)0xD8),
 377:/usr/avr/include/avr/wdt.h **** 				[WDTREG] "n" (_SFR_MEM_ADDR(_WD_CONTROL_REG)),
 378:/usr/avr/include/avr/wdt.h **** 				[TEMP_WD] "d" (temp_wd),
 379:/usr/avr/include/avr/wdt.h **** 				[WDVALUE] "n" (1 << WDE)
 380:/usr/avr/include/avr/wdt.h **** 				: "r0"
 381:/usr/avr/include/avr/wdt.h **** 				);
 382:/usr/avr/include/avr/wdt.h **** 	}
 383:/usr/avr/include/avr/wdt.h **** 	else if (!_SFR_IO_REG_P (CCP) && _SFR_IO_REG_P(_WD_CONTROL_REG))
 384:/usr/avr/include/avr/wdt.h **** 	{
 385:/usr/avr/include/avr/wdt.h ****         uint8_t temp_wd;
 386:/usr/avr/include/avr/wdt.h ****         __asm__ __volatile__ (
 387:/usr/avr/include/avr/wdt.h **** 				"in __tmp_reg__,__SREG__" "\n\t"
 388:/usr/avr/include/avr/wdt.h **** 				"cli" "\n\t"
 389:/usr/avr/include/avr/wdt.h **** 				"wdr" "\n\t"
 390:/usr/avr/include/avr/wdt.h **** 				"sts %[CCPADDRESS],%[SIGNATURE]" "\n\t"
 391:/usr/avr/include/avr/wdt.h **** 				"in %[TEMP_WD],%[WDTREG]" "\n\t"
 392:/usr/avr/include/avr/wdt.h **** 				"cbr %[TEMP_WD],%[WDVALUE]" "\n\t"
 393:/usr/avr/include/avr/wdt.h **** 				"out %[WDTREG],%[TEMP_WD]" "\n\t"
 394:/usr/avr/include/avr/wdt.h **** 				"out __SREG__,__tmp_reg__" "\n\t"
 395:/usr/avr/include/avr/wdt.h **** 				: /*no output */
 396:/usr/avr/include/avr/wdt.h **** 				: [CCPADDRESS] "n" (_SFR_MEM_ADDR(CCP)),
 397:/usr/avr/include/avr/wdt.h **** 				[SIGNATURE] "r" ((uint8_t)0xD8),
 398:/usr/avr/include/avr/wdt.h **** 				[WDTREG] "I" (_SFR_IO_ADDR(_WD_CONTROL_REG)),
 399:/usr/avr/include/avr/wdt.h **** 				[TEMP_WD] "d" (temp_wd),
 400:/usr/avr/include/avr/wdt.h **** 				[WDVALUE] "n" (1 << WDE)
 401:/usr/avr/include/avr/wdt.h **** 				: "r0"
 402:/usr/avr/include/avr/wdt.h **** 				);
 403:/usr/avr/include/avr/wdt.h **** 	}
 404:/usr/avr/include/avr/wdt.h **** 	else if (_SFR_IO_REG_P (CCP) && !_SFR_IO_REG_P(_WD_CONTROL_REG))
 405:/usr/avr/include/avr/wdt.h **** 	{
 406:/usr/avr/include/avr/wdt.h ****         uint8_t temp_wd;
GAS LISTING /tmp/ccEQRkCa.s 			page 9


 407:/usr/avr/include/avr/wdt.h ****         __asm__ __volatile__ (
 408:/usr/avr/include/avr/wdt.h **** 				"in __tmp_reg__,__SREG__" "\n\t"
 409:/usr/avr/include/avr/wdt.h **** 				"cli" "\n\t"
 410:/usr/avr/include/avr/wdt.h **** 				"wdr" "\n\t"
 411:/usr/avr/include/avr/wdt.h **** 				"out %[CCPADDRESS],%[SIGNATURE]" "\n\t"
 412:/usr/avr/include/avr/wdt.h **** 				"lds %[TEMP_WD],%[WDTREG]" "\n\t"
 413:/usr/avr/include/avr/wdt.h **** 				"cbr %[TEMP_WD],%[WDVALUE]" "\n\t"
 414:/usr/avr/include/avr/wdt.h **** 				"sts %[WDTREG],%[TEMP_WD]" "\n\t"
 415:/usr/avr/include/avr/wdt.h **** 				"out __SREG__,__tmp_reg__" "\n\t"
 416:/usr/avr/include/avr/wdt.h **** 				: /*no output */
 417:/usr/avr/include/avr/wdt.h **** 				: [CCPADDRESS] "I" (_SFR_IO_ADDR(CCP)),
 418:/usr/avr/include/avr/wdt.h **** 				[SIGNATURE] "r" ((uint8_t)0xD8),
 419:/usr/avr/include/avr/wdt.h **** 				[WDTREG] "n" (_SFR_MEM_ADDR(_WD_CONTROL_REG)),
 420:/usr/avr/include/avr/wdt.h **** 				[TEMP_WD] "d" (temp_wd),
 421:/usr/avr/include/avr/wdt.h **** 				[WDVALUE] "n" (1 << WDE)
 422:/usr/avr/include/avr/wdt.h **** 				: "r0"
 423:/usr/avr/include/avr/wdt.h **** 				);
 424:/usr/avr/include/avr/wdt.h **** 	}
 425:/usr/avr/include/avr/wdt.h **** 	else
 426:/usr/avr/include/avr/wdt.h **** 	{
 427:/usr/avr/include/avr/wdt.h ****         uint8_t temp_wd;
 428:/usr/avr/include/avr/wdt.h ****         __asm__ __volatile__ (
 429:/usr/avr/include/avr/wdt.h **** 				"in __tmp_reg__,__SREG__" "\n\t"
 430:/usr/avr/include/avr/wdt.h **** 				"cli" "\n\t"
 431:/usr/avr/include/avr/wdt.h **** 				"wdr" "\n\t"
 432:/usr/avr/include/avr/wdt.h **** 				"out %[CCPADDRESS],%[SIGNATURE]" "\n\t"
 433:/usr/avr/include/avr/wdt.h **** 				"in %[TEMP_WD],%[WDTREG]" "\n\t"
 434:/usr/avr/include/avr/wdt.h **** 				"cbr %[TEMP_WD],%[WDVALUE]" "\n\t"
 435:/usr/avr/include/avr/wdt.h **** 				"out %[WDTREG],%[TEMP_WD]" "\n\t"
 436:/usr/avr/include/avr/wdt.h **** 				"out __SREG__,__tmp_reg__" "\n\t"
 437:/usr/avr/include/avr/wdt.h **** 				: /*no output */
 438:/usr/avr/include/avr/wdt.h **** 				: [CCPADDRESS] "I" (_SFR_IO_ADDR(CCP)),
 439:/usr/avr/include/avr/wdt.h **** 				[SIGNATURE] "r" ((uint8_t)0xD8),
 440:/usr/avr/include/avr/wdt.h **** 				[WDTREG] "I" (_SFR_IO_ADDR(_WD_CONTROL_REG)),
 441:/usr/avr/include/avr/wdt.h **** 				[TEMP_WD] "d" (temp_wd),
 442:/usr/avr/include/avr/wdt.h **** 				[WDVALUE] "n" (1 << WDE)
 443:/usr/avr/include/avr/wdt.h **** 				: "r0"
 444:/usr/avr/include/avr/wdt.h **** 				);
 445:/usr/avr/include/avr/wdt.h **** 	}
 446:/usr/avr/include/avr/wdt.h **** }
 447:/usr/avr/include/avr/wdt.h **** 
 448:/usr/avr/include/avr/wdt.h **** #else
 449:/usr/avr/include/avr/wdt.h **** 
 450:/usr/avr/include/avr/wdt.h **** static __inline__
 451:/usr/avr/include/avr/wdt.h **** __attribute__ ((__always_inline__))
 452:/usr/avr/include/avr/wdt.h **** void wdt_enable (const uint8_t value)
 453:/usr/avr/include/avr/wdt.h **** {
 454:/usr/avr/include/avr/wdt.h **** 	if (_SFR_IO_REG_P (_WD_CONTROL_REG))
 455:/usr/avr/include/avr/wdt.h **** 	{
 456:/usr/avr/include/avr/wdt.h **** 		__asm__ __volatile__ (
 457:/usr/avr/include/avr/wdt.h **** 				"in __tmp_reg__,__SREG__" "\n\t"
 458:/usr/avr/include/avr/wdt.h **** 				"cli" "\n\t"
 459:/usr/avr/include/avr/wdt.h **** 				"wdr" "\n\t"
 460:/usr/avr/include/avr/wdt.h **** 				"out %0, %1" "\n\t"
 461:/usr/avr/include/avr/wdt.h **** 				"out __SREG__,__tmp_reg__" "\n\t"
 462:/usr/avr/include/avr/wdt.h **** 				"out %0, %2" "\n \t"
 463:/usr/avr/include/avr/wdt.h **** 				: /* no outputs */
GAS LISTING /tmp/ccEQRkCa.s 			page 10


 464:/usr/avr/include/avr/wdt.h **** 				: "I" (_SFR_IO_ADDR(_WD_CONTROL_REG)),
 465:/usr/avr/include/avr/wdt.h **** 				"r" ((uint8_t)(_BV(_WD_CHANGE_BIT) | _BV(WDE))),
 466:/usr/avr/include/avr/wdt.h **** 				"r" ((uint8_t) ((value & 0x08 ? _WD_PS3_MASK : 0x00) |
 467:/usr/avr/include/avr/wdt.h **** 						_BV(WDE) | (value & 0x07)) )
 468:/usr/avr/include/avr/wdt.h **** 				: "r0"
 469:/usr/avr/include/avr/wdt.h **** 		);
 470:/usr/avr/include/avr/wdt.h **** 	}
 471:/usr/avr/include/avr/wdt.h **** 	else
 472:/usr/avr/include/avr/wdt.h **** 	{
 473:/usr/avr/include/avr/wdt.h **** 		__asm__ __volatile__ (
 474:/usr/avr/include/avr/wdt.h **** 				"in __tmp_reg__,__SREG__" "\n\t"
 475:/usr/avr/include/avr/wdt.h **** 				"cli" "\n\t"
 476:/usr/avr/include/avr/wdt.h **** 				"wdr" "\n\t"
 477:/usr/avr/include/avr/wdt.h **** 				"sts %0, %1" "\n\t"
 478:/usr/avr/include/avr/wdt.h **** 				"out __SREG__,__tmp_reg__" "\n\t"
 479:/usr/avr/include/avr/wdt.h **** 				"sts %0, %2" "\n \t"
 480:/usr/avr/include/avr/wdt.h **** 				: /* no outputs */
 481:/usr/avr/include/avr/wdt.h **** 				: "n" (_SFR_MEM_ADDR(_WD_CONTROL_REG)),
 482:/usr/avr/include/avr/wdt.h **** 				"r" ((uint8_t)(_BV(_WD_CHANGE_BIT) | _BV(WDE))),
 483:/usr/avr/include/avr/wdt.h **** 				"r" ((uint8_t) ((value & 0x08 ? _WD_PS3_MASK : 0x00) |
 484:/usr/avr/include/avr/wdt.h **** 						_BV(WDE) | (value & 0x07)) )
 485:/usr/avr/include/avr/wdt.h **** 				: "r0"
 486:/usr/avr/include/avr/wdt.h **** 		);
 487:/usr/avr/include/avr/wdt.h **** 	}
 488:/usr/avr/include/avr/wdt.h **** }
 489:/usr/avr/include/avr/wdt.h **** 
 490:/usr/avr/include/avr/wdt.h **** static __inline__
 491:/usr/avr/include/avr/wdt.h **** __attribute__ ((__always_inline__))
 492:/usr/avr/include/avr/wdt.h **** void wdt_disable (void)
 493:/usr/avr/include/avr/wdt.h **** {
 494:/usr/avr/include/avr/wdt.h **** 	if (_SFR_IO_REG_P (_WD_CONTROL_REG))
 495:/usr/avr/include/avr/wdt.h **** 	{
 496:/usr/avr/include/avr/wdt.h ****         uint8_t register temp_reg;
 497:/usr/avr/include/avr/wdt.h **** 		__asm__ __volatile__ (
 498:/usr/avr/include/avr/wdt.h **** 				"in __tmp_reg__,__SREG__"    "\n\t"
 499:/usr/avr/include/avr/wdt.h **** 				"cli"                        "\n\t"
 500:/usr/avr/include/avr/wdt.h **** 				"wdr"                        "\n\t"
 501:/usr/avr/include/avr/wdt.h **** 				"in  %[TEMPREG],%[WDTREG]"   "\n\t"
 502:/usr/avr/include/avr/wdt.h **** 				"ori %[TEMPREG],%[WDCE_WDE]" "\n\t"
 503:/usr/avr/include/avr/wdt.h **** 				"out %[WDTREG],%[TEMPREG]"   "\n\t"
 504:/usr/avr/include/avr/wdt.h **** 				"out %[WDTREG],__zero_reg__" "\n\t"
 505:/usr/avr/include/avr/wdt.h **** 				"out __SREG__,__tmp_reg__"   "\n\t"
 506:/usr/avr/include/avr/wdt.h **** 				: [TEMPREG] "=d" (temp_reg)
 507:/usr/avr/include/avr/wdt.h **** 				: [WDTREG]  "I"  (_SFR_IO_ADDR(_WD_CONTROL_REG)),
 508:/usr/avr/include/avr/wdt.h **** 				[WDCE_WDE]  "n"  ((uint8_t)(_BV(_WD_CHANGE_BIT) | _BV(WDE)))
 509:/usr/avr/include/avr/wdt.h **** 				: "r0"
 510:/usr/avr/include/avr/wdt.h **** 		);
 511:/usr/avr/include/avr/wdt.h **** 	}
 512:/usr/avr/include/avr/wdt.h **** 	else
 513:/usr/avr/include/avr/wdt.h **** 	{
 514:/usr/avr/include/avr/wdt.h ****         uint8_t register temp_reg;
 515:/usr/avr/include/avr/wdt.h **** 		__asm__ __volatile__ (
 138               	.LM2:
 139               	/* #APP */
 140               	 ;  515 "/usr/avr/include/avr/wdt.h" 1
 141 0002 0FB6      		in __tmp_reg__,__SREG__
 142 0004 F894      		cli
GAS LISTING /tmp/ccEQRkCa.s 			page 11


 143 0006 A895      		wdr
 144 0008 8091 6000 		lds r24,96
 145 000c 8861      		ori r24,24
 146 000e 8093 6000 		sts 96,r24
 147 0012 1092 6000 		sts 96,__zero_reg__
 148 0016 0FBE      		out __SREG__,__tmp_reg__
 149               		
 150               	 ;  0 "" 2
 151               	/* epilogue start */
 152               	/* #NOAPP */
 153               	.LBE6:
 154               	.LBE5:
 156               	.Ltext2:
  28:main.c        **** 	wdt_disable();
  29:main.c        **** 	// http://www.atmel.com/webdoc/AVRLibcReferenceManual/FAQ_1faq_softreset.html
  30:main.c        **** }
 158               	.LM3:
 160               	.Lscope1:
 162               		.stabd	78,0,0
 163               		.section	.text.startup,"ax",@progbits
 165               	.global	main
 167               	main:
 168               		.stabd	46,0,0
  31:main.c        **** 
  32:main.c        **** int main()
  33:main.c        **** {
 170               	.LM4:
 171               	.LFBB2:
 172               	/* prologue: function */
 173               	/* frame size = 0 */
 174               	/* stack size = 0 */
 175               	.L__stack_usage = 0
  34:main.c        **** 	cli();
 177               	.LM5:
 178               	/* #APP */
 179               	 ;  34 "main.c" 1
 180 0000 F894      		cli
 181               	 ;  0 "" 2
  35:main.c        **** 	mode_button = 0;
 183               	.LM6:
 184               	/* #NOAPP */
 185 0002 1092 0000 		sts mode_button,__zero_reg__
  36:main.c        **** 	mode = eeprom_read_byte(0);
 187               	.LM7:
 188 0006 90E0      		ldi r25,0
 189 0008 80E0      		ldi r24,0
 190 000a 0E94 0000 		call eeprom_read_byte
 191 000e 8093 0000 		sts mode,r24
  37:main.c        **** 
  38:main.c        **** 	CLKPR=0x80;
 193               	.LM8:
 194 0012 80E8      		ldi r24,lo8(-128)
 195 0014 8093 6100 		sts 97,r24
  39:main.c        **** 	CLKPR=0x01;
 197               	.LM9:
 198 0018 91E0      		ldi r25,lo8(1)
 199 001a 9093 6100 		sts 97,r25
GAS LISTING /tmp/ccEQRkCa.s 			page 12


  40:main.c        **** 
  41:main.c        **** 	//Set outputs to be: Speaker and TX light.
  42:main.c        **** 	DDRD = (_BV(3) | _BV(5) | _BV(6) | _BV(1) );
 201               	.LM10:
 202 001e 8AE6      		ldi r24,lo8(106)
 203 0020 8AB9      		out 0xa,r24
  43:main.c        **** 	DDRB = _BV(3);
 205               	.LM11:
 206 0022 88E0      		ldi r24,lo8(8)
 207 0024 84B9      		out 0x4,r24
  44:main.c        **** 
  45:main.c        **** 	speed = 0;
 209               	.LM12:
 210 0026 1092 0000 		sts speed,__zero_reg__
  46:main.c        **** 	PORTD |= _BV(1) | _BV(3) | _BV(5) | _BV(6);
 212               	.LM13:
 213 002a 8BB1      		in r24,0xb
 214 002c 8A66      		ori r24,lo8(106)
 215 002e 8BB9      		out 0xb,r24
  47:main.c        **** 	voiceptr = &voiceQuicklySleep;
 217               	.LM14:
 218 0030 20E0      		ldi r18,lo8(gs(voiceQuicklySleep))
 219 0032 30E0      		ldi r19,hi8(gs(voiceQuicklySleep))
 220 0034 3093 0000 		sts voiceptr+1,r19
 221 0038 2093 0000 		sts voiceptr,r18
  48:main.c        **** 
  49:main.c        **** 	TCCR0A = _BV(COM0B1) | _BV(COM0A1) | _BV(WGM01) | _BV(WGM00); //Phase correct PWM on TCCR0A, Clear
 223               	.LM15:
 224 003c 83EA      		ldi r24,lo8(-93)
 225 003e 84BD      		out 0x24,r24
  50:main.c        **** 	TCCR0B = _BV(CS00);
 227               	.LM16:
 228 0040 95BD      		out 0x25,r25
  51:main.c        **** 	TIMSK0 |= _BV(TOIE0);// | _BV(OCIE0A);
 230               	.LM17:
 231 0042 8091 6E00 		lds r24,110
 232 0046 8160      		ori r24,lo8(1)
 233 0048 8093 6E00 		sts 110,r24
  52:main.c        **** 	OCR0A = OCR0B = 255;
 235               	.LM18:
 236 004c 8FEF      		ldi r24,lo8(-1)
 237 004e 88BD      		out 0x28,r24
 238 0050 87BD      		out 0x27,r24
  53:main.c        **** 
  54:main.c        **** 	PORTB |= _BV(0) | _BV(1) | _BV(4) | _BV(5);
 240               	.LM19:
 241 0052 85B1      		in r24,0x5
 242 0054 8363      		ori r24,lo8(51)
 243 0056 85B9      		out 0x5,r24
  55:main.c        **** 	PORTC |= 0x3f;
 245               	.LM20:
 246 0058 88B1      		in r24,0x8
 247 005a 8F63      		ori r24,lo8(63)
 248 005c 88B9      		out 0x8,r24
  56:main.c        **** 	PORTD |= _BV(0) | _BV(2) | _BV(4) | _BV(7);
 250               	.LM21:
 251 005e 8BB1      		in r24,0xb
GAS LISTING /tmp/ccEQRkCa.s 			page 13


 252 0060 8569      		ori r24,lo8(-107)
 253 0062 8BB9      		out 0xb,r24
  57:main.c        **** 	PORTE |= _BV(3) | _BV(2) | _BV(1);
 255               	.LM22:
 256 0064 8EB1      		in r24,0xe
 257 0066 8E60      		ori r24,lo8(14)
 258 0068 8EB9      		out 0xe,r24
  58:main.c        **** 
  59:main.c        **** 	sei();
 260               	.LM23:
 261               	/* #APP */
 262               	 ;  59 "main.c" 1
 263 006a 7894      		sei
 264               	 ;  0 "" 2
  60:main.c        **** 
  61:main.c        **** 	if ( mode > 13 )
 266               	.LM24:
 267               	/* #NOAPP */
 268 006c 8091 0000 		lds r24,mode
 269 0070 8E30      		cpi r24,lo8(14)
 270 0072 00F0      		brlo .L3
  62:main.c        **** 	{
  63:main.c        **** 		mode = 3;
 272               	.LM25:
 273 0074 83E0      		ldi r24,lo8(3)
 274 0076 8093 0000 		sts mode,r24
  64:main.c        **** 		eeprom_write_byte(0, mode);
 276               	.LM26:
 277 007a 6091 0000 		lds r22,mode
 278 007e 90E0      		ldi r25,0
 279 0080 80E0      		ldi r24,0
 280 0082 0E94 0000 		call eeprom_write_byte
 281               	.L3:
  33:main.c        **** 	cli();
 283               	.LM27:
 284 0086 812C      		mov r8,__zero_reg__
 285 0088 712C      		mov r7,__zero_reg__
 286 008a D0E0      		ldi r29,0
 287 008c C0E0      		ldi r28,0
 288               	.LBB7:
  65:main.c        **** 	}
  66:main.c        **** 	uint8_t sample0down = 0;
  67:main.c        **** 	uint8_t sample1down = 0;
  68:main.c        **** 	uint8_t newmode = 0;
  69:main.c        **** 	uint8_t old_mode_button = 0;
  70:main.c        **** 	
  71:main.c        **** 	while(1)
  72:main.c        **** 	{
  73:main.c        **** 		mode_button = MENUBUTTONDOWN;
  74:main.c        **** 		mode = mode % 14;
 290               	.LM28:
 291 008e 4EE0      		ldi r20,lo8(14)
 292 0090 642E      		mov r6,r20
  75:main.c        **** 		uint8_t ts = 0;
  76:main.c        **** 		uint8_t ts1 = 0;
  77:main.c        **** 
  78:main.c        **** 		uint8_t i;
GAS LISTING /tmp/ccEQRkCa.s 			page 14


  79:main.c        **** 		uint16_t checkmask = 1;
  80:main.c        **** 
  81:main.c        **** 		uint16_t mask = ReadButtonMask();
  82:main.c        **** 		for( i = 0; i < 16; i++ )
  83:main.c        **** 		{
  84:main.c        **** 			if( mask & checkmask ) {
  85:main.c        **** 				if( ts ) 
  86:main.c        **** 					ts1 = i+1;
  87:main.c        **** 				else
  88:main.c        **** 					ts = i+1;
  89:main.c        **** 			}
  90:main.c        **** 			checkmask<<=1;
  91:main.c        **** 		}
  92:main.c        **** 
  93:main.c        **** 		#define BASENOTE 0
  94:main.c        **** 		if ( ts || ts1 )
  95:main.c        **** 		{
  96:main.c        **** 		  wdt_reset();
  97:main.c        **** 		  if ( mode_button )
  98:main.c        **** 		  {
  99:main.c        **** 		    newmode = ts;
 100:main.c        **** 		  }
 101:main.c        **** 		}
 102:main.c        **** 		if ( old_mode_button && !mode_button ) {
 103:main.c        **** 		  wdt_reset();
 104:main.c        **** 		  voiceptr = voiceQuicklySleep;
 105:main.c        **** 		  speed = 0;
 106:main.c        **** 		  mode = newmode;
 107:main.c        **** 		  PORTD |= _BV(1);
 108:main.c        **** 		  eeprom_write_byte(0, mode);
 109:main.c        **** 		}
 110:main.c        **** 		else if( ts != 0 || mode == 7 || mode == 9 || mode == 10)
 111:main.c        **** 		{
 112:main.c        **** 		  switch (mode) {
 113:main.c        **** 		  case 0:
 114:main.c        **** 		  case 1:
 115:main.c        **** 		  case 2:
 116:main.c        **** 		  case 3:
 117:main.c        **** 		  case 4:
 118:main.c        **** 		  case 5:
 119:main.c        **** 		    volume = 127;
 120:main.c        **** 		    volume1 = 127;
 121:main.c        **** 
 122:main.c        **** 		    speed = freq_s[ts-1+BASENOTE+12*mode];
 123:main.c        **** 		    speed_rec = freq_rs[ts-1+BASENOTE+12*mode];
 124:main.c        **** 		    if( ts1 )
 125:main.c        **** 		    {
 126:main.c        **** 			//2 notes.
 127:main.c        **** 			speed1 = freq_s[ts1-1+BASENOTE+12*mode];
 128:main.c        **** 			speed_rec1 = freq_rs[ts1-1+BASENOTE+12*mode];
 129:main.c        **** 		    }
 130:main.c        **** 		    else
 131:main.c        **** 		    {
 132:main.c        **** 			//1 note
 133:main.c        **** 			speed1 = 0;
 134:main.c        **** 		    }
 135:main.c        **** 		    voiceptr = &voiceDoBasicSynth;
GAS LISTING /tmp/ccEQRkCa.s 			page 15


 136:main.c        **** 		    PORTD &=~_BV(1); //LED
 137:main.c        **** 		    break;
 138:main.c        **** 		  case 6:
 139:main.c        **** 		    volume = 10*ts;
 140:main.c        **** 		    speed = 14-ts;
 141:main.c        **** 		    voiceptr = &voiceNoise;
 142:main.c        **** 		    PORTD &=~_BV(1); //LED
 143:main.c        **** 		    break;
 144:main.c        **** 		  case 7:
 145:main.c        **** 		    if ( (ts > 0 && ts < 7) || (ts1 > 0 && ts1 < 7) )
 146:main.c        **** 		    {
 147:main.c        **** 		      if ( !sample0down )
 148:main.c        **** 		      {
 149:main.c        **** 		        sample0down = 1;
 150:main.c        **** 		        sample0Count = 0;
 151:main.c        **** 		        wavedone = 0;
 152:main.c        **** 		      }
 153:main.c        **** 		    }
 154:main.c        **** 		    else
 155:main.c        **** 		    {
 156:main.c        **** 		      sample0down = 0;
 157:main.c        **** 		    }
 158:main.c        **** 		    if ( ts > 6 || ts1 > 6 )
 159:main.c        **** 		    {
 160:main.c        **** 		      if ( !sample1down )
 161:main.c        **** 		      {
 162:main.c        **** 		        sample1down = 1;
 163:main.c        **** 		        sample1Count = 0;
 164:main.c        **** 		        wavedone = 0;
 165:main.c        **** 		      }
 166:main.c        **** 		    }
 167:main.c        **** 		    else
 168:main.c        **** 		    {
 169:main.c        **** 		      sample1down = 0;
 170:main.c        **** 		    }
 171:main.c        **** 		    if ( wavedone )
 172:main.c        **** 		    {
 173:main.c        **** 		      voiceptr = &voiceQuicklySleep;
 174:main.c        **** 		      PORTD |=_BV(1); //LED
 175:main.c        **** 		    }
 176:main.c        **** 		    else
 177:main.c        **** 		    {
 178:main.c        **** 		      voiceptr = &voicePlayWave;
 179:main.c        **** 		      PORTD &=~_BV(1); //LED
 180:main.c        **** 		    }
 181:main.c        **** 		    break;
 182:main.c        **** 		  case 8:
 183:main.c        **** 		    //Tuned noise
 184:main.c        **** 		    volume = 100;
 185:main.c        **** 		    if (ts) {
 186:main.c        **** 		      speed = 24-ts;
 187:main.c        **** 		    }
 188:main.c        **** 
 189:main.c        **** 		    voiceptr = &voiceTunedNoise;
 190:main.c        **** 		    PORTD &=~_BV(1);
 191:main.c        **** 		    break;
 192:main.c        **** 		  case 9:
GAS LISTING /tmp/ccEQRkCa.s 			page 16


 193:main.c        **** 		    //Drum Synths
 194:main.c        **** 		    if (ts) {
 195:main.c        **** 		      volume = 100;
 196:main.c        **** 		      
 197:main.c        **** 		      speed = kit0_speed[ts-1];
 198:main.c        **** 		      fade_out = kit0_fade[ts-1];
 199:main.c        **** 		      fade_out_mode = kit0_drop[ts-1];
 200:main.c        **** 		      PORTD &=~_BV(1);
 201:main.c        **** 		    } else {
 202:main.c        **** 		      PORTD |= _BV(1);
 203:main.c        **** 		    }
 204:main.c        **** 
 205:main.c        **** 		    voiceptr = &voiceDrums;
 206:main.c        **** 		    break;
 207:main.c        **** 		  case 10:
 208:main.c        **** 		    //Drum Synths
 209:main.c        **** 		    if (ts) {
 210:main.c        **** 		      volume = 100;
 211:main.c        **** 
 212:main.c        **** 		      speed = kit1_speed[ts-1];
 213:main.c        **** 		      fade_out = kit1_fade[ts-1];
 214:main.c        **** 		      fade_out_mode = kit1_drop[ts-1];
 215:main.c        **** 		      PORTD &=~_BV(1);
 216:main.c        **** 		    } else {
 217:main.c        **** 		      PORTD |= _BV(1);
 218:main.c        **** 		    }
 219:main.c        **** 
 220:main.c        **** 		    voiceptr = &voiceDrums;
 221:main.c        **** 		    break;
 222:main.c        **** 		  case 11:
 223:main.c        **** 		    voiceptr = &voiceDoSquare;
 224:main.c        **** 		    speed = sqfreqs[ts-1];
 225:main.c        **** 		    PORTD &=~_BV(1);
 226:main.c        **** 		    if ( ts1 )
 227:main.c        **** 		    {
 228:main.c        **** 		    	speed1 = sqfreqs[ts1-1];
 229:main.c        **** 		    }
 230:main.c        **** 		    else
 231:main.c        **** 		    {
 232:main.c        **** 		    	speed1 = 0;
 233:main.c        **** 		    }
 234:main.c        **** 		    break;
 235:main.c        **** 		  case 12:
 236:main.c        **** 		    voiceptr = &voiceDoSquare;
 237:main.c        **** 		    PORTD &=~_BV(1);
 238:main.c        **** 		    speed = sqfreqs[ts-1]*2;
 239:main.c        **** 		    if ( ts1 )
 240:main.c        **** 		    {
 241:main.c        **** 		    	speed1 = sqfreqs[ts1-1]*2;
 242:main.c        **** 		    }
 243:main.c        **** 		    else
 244:main.c        **** 		    {
 245:main.c        **** 		    	speed1 = 0;
 246:main.c        **** 		    }
 247:main.c        **** 		    break;
 248:main.c        **** 		  case 13:
 249:main.c        **** 		    voiceptr = &voiceDoSquare;
GAS LISTING /tmp/ccEQRkCa.s 			page 17


 294               	.LM29:
 295 0092 00E0      		ldi r16,lo8(gs(voiceDoSquare))
 296 0094 10E0      		ldi r17,hi8(gs(voiceDoSquare))
 220:main.c        **** 		    break;
 298               	.LM30:
 299 0096 50E0      		ldi r21,lo8(gs(voiceDrums))
 300 0098 C52E      		mov r12,r21
 301 009a 50E0      		ldi r21,hi8(gs(voiceDrums))
 302 009c D52E      		mov r13,r21
 210:main.c        **** 
 304               	.LM31:
 305 009e 64E6      		ldi r22,lo8(100)
 306 00a0 962E      		mov r9,r22
 189:main.c        **** 		    PORTD &=~_BV(1);
 308               	.LM32:
 309 00a2 70E0      		ldi r23,lo8(gs(voiceTunedNoise))
 310 00a4 472E      		mov r4,r23
 311 00a6 70E0      		ldi r23,hi8(gs(voiceTunedNoise))
 312 00a8 572E      		mov r5,r23
 186:main.c        **** 		    }
 314               	.LM33:
 315 00aa E8E1      		ldi r30,lo8(24)
 316 00ac 3E2E      		mov r3,r30
 173:main.c        **** 		      PORTD |=_BV(1); //LED
 318               	.LM34:
 319 00ae F0E0      		ldi r31,lo8(gs(voiceQuicklySleep))
 320 00b0 EF2E      		mov r14,r31
 321 00b2 F0E0      		ldi r31,hi8(gs(voiceQuicklySleep))
 322 00b4 FF2E      		mov r15,r31
 135:main.c        **** 		    PORTD &=~_BV(1); //LED
 324               	.LM35:
 325 00b6 A0E0      		ldi r26,lo8(gs(voiceDoBasicSynth))
 326 00b8 AA2E      		mov r10,r26
 327 00ba A0E0      		ldi r26,hi8(gs(voiceDoBasicSynth))
 328 00bc BA2E      		mov r11,r26
 329               	.L38:
  73:main.c        **** 		mode = mode % 14;
 331               	.LM36:
 332 00be 83B1      		in r24,0x3
 333 00c0 85FB      		bst r24,5
 334 00c2 8827      		clr r24
 335 00c4 80F9      		bld r24,0
 336 00c6 21E0      		ldi r18,lo8(1)
 337 00c8 8227      		eor r24,r18
 338 00ca 8093 0000 		sts mode_button,r24
  74:main.c        **** 		uint8_t ts = 0;
 340               	.LM37:
 341 00ce 8091 0000 		lds r24,mode
 342 00d2 662D      		mov r22,r6
 343 00d4 0E94 0000 		call __udivmodqi4
 344 00d8 9093 0000 		sts mode,r25
  81:main.c        **** 		for( i = 0; i < 16; i++ )
 346               	.LM38:
 347 00dc 0E94 0000 		call ReadButtonMask
 348 00e0 BC01      		movw r22,r24
  79:main.c        **** 
 350               	.LM39:
GAS LISTING /tmp/ccEQRkCa.s 			page 18


 351 00e2 41E0      		ldi r20,lo8(1)
 352 00e4 50E0      		ldi r21,0
  82:main.c        **** 		{
 354               	.LM40:
 355 00e6 80E0      		ldi r24,0
  76:main.c        **** 
 357               	.LM41:
 358 00e8 90E0      		ldi r25,0
  75:main.c        **** 		uint8_t ts1 = 0;
 360               	.LM42:
 361 00ea 20E0      		ldi r18,0
 362               	.L5:
 363 00ec 8F5F      		subi r24,lo8(-(1))
  84:main.c        **** 				if( ts ) 
 365               	.LM43:
 366 00ee FB01      		movw r30,r22
 367 00f0 E423      		and r30,r20
 368 00f2 F523      		and r31,r21
 369 00f4 EF2B      		or r30,r31
 370 00f6 01F0      		breq .L4
  85:main.c        **** 					ts1 = i+1;
 372               	.LM44:
 373 00f8 2223      		tst r18
 374 00fa 01F0      		breq .L41
 375 00fc 982F      		mov r25,r24
 376               	.L4:
  90:main.c        **** 		}
 378               	.LM45:
 379 00fe 440F      		lsl r20
 380 0100 551F      		rol r21
  82:main.c        **** 		{
 382               	.LM46:
 383 0102 8031      		cpi r24,lo8(16)
 384 0104 01F4      		brne .L5
  94:main.c        **** 		{
 386               	.LM47:
 387 0106 2111      		cpse r18,__zero_reg__
 388 0108 00C0      		rjmp .L6
  94:main.c        **** 		{
 390               	.LM48:
 391 010a 9923      		tst r25
 392 010c 01F4      		brne .+2
 393 010e 00C0      		rjmp .L7
 394               	.L6:
  96:main.c        **** 		  if ( mode_button )
 396               	.LM49:
 397               	/* #APP */
 398               	 ;  96 "main.c" 1
 399 0110 A895      		wdr
 400               	 ;  0 "" 2
  97:main.c        **** 		  {
 402               	.LM50:
 403               	/* #NOAPP */
 404 0112 8091 0000 		lds r24,mode_button
 405 0116 8111      		cpse r24,__zero_reg__
 406 0118 722E      		mov r7,r18
 407               	.L8:
GAS LISTING /tmp/ccEQRkCa.s 			page 19


 102:main.c        **** 		  wdt_reset();
 409               	.LM51:
 410 011a 8820      		tst r8
 411 011c 01F0      		breq .L9
 412               	.L39:
 102:main.c        **** 		  wdt_reset();
 414               	.LM52:
 415 011e 8091 0000 		lds r24,mode_button
 416 0122 8111      		cpse r24,__zero_reg__
 417 0124 00C0      		rjmp .L9
 103:main.c        **** 		  voiceptr = voiceQuicklySleep;
 419               	.LM53:
 420               	/* #APP */
 421               	 ;  103 "main.c" 1
 422 0126 A895      		wdr
 423               	 ;  0 "" 2
 104:main.c        **** 		  speed = 0;
 425               	.LM54:
 426               	/* #NOAPP */
 427 0128 F092 0000 		sts voiceptr+1,r15
 428 012c E092 0000 		sts voiceptr,r14
 105:main.c        **** 		  mode = newmode;
 430               	.LM55:
 431 0130 1092 0000 		sts speed,__zero_reg__
 106:main.c        **** 		  PORTD |= _BV(1);
 433               	.LM56:
 434 0134 7092 0000 		sts mode,r7
 107:main.c        **** 		  eeprom_write_byte(0, mode);
 436               	.LM57:
 437 0138 599A      		sbi 0xb,1
 108:main.c        **** 		}
 439               	.LM58:
 440 013a 6091 0000 		lds r22,mode
 441 013e 90E0      		ldi r25,0
 442 0140 80E0      		ldi r24,0
 443 0142 0E94 0000 		call eeprom_write_byte
 444               	.L10:
 250:main.c        **** 		    PORTD &=~_BV(1);
 251:main.c        **** 		    speed = sqfreqs[ts-1]*4;
 252:main.c        **** 		    if ( ts1 )
 253:main.c        **** 		    {
 254:main.c        **** 		    	speed1 = sqfreqs[ts1-1]*4;
 255:main.c        **** 		    }
 256:main.c        **** 		    else
 257:main.c        **** 		    {
 258:main.c        **** 		    	speed1 = 0;
 259:main.c        **** 		    }
 260:main.c        **** 		    break;
 261:main.c        **** 		  }
 262:main.c        **** 		}
 263:main.c        **** 		else
 264:main.c        **** 		{
 265:main.c        **** 			//No notes
 266:main.c        **** 			voiceptr = voiceQuicklySleep;
 267:main.c        **** 			speed = 0;
 268:main.c        **** 			PORTD |= _BV(1); //LED
 269:main.c        **** 		}
GAS LISTING /tmp/ccEQRkCa.s 			page 20


 270:main.c        **** 		old_mode_button = mode_button;
 446               	.LM59:
 447 0146 8090 0000 		lds r8,mode_button
 448               	.LBE7:
  72:main.c        **** 		mode_button = MENUBUTTONDOWN;
 450               	.LM60:
 451 014a 00C0      		rjmp .L38
 452               	.L41:
 453               	.LBB8:
 454 014c 282F      		mov r18,r24
 455 014e 00C0      		rjmp .L4
 456               	.L9:
 110:main.c        **** 		{
 458               	.LM61:
 459 0150 2111      		cpse r18,__zero_reg__
 460 0152 00C0      		rjmp .L11
 461               	.L40:
 110:main.c        **** 		{
 463               	.LM62:
 464 0154 8091 0000 		lds r24,mode
 465 0158 8730      		cpi r24,lo8(7)
 466 015a 01F0      		breq .L11
 110:main.c        **** 		{
 468               	.LM63:
 469 015c 8091 0000 		lds r24,mode
 470 0160 8930      		cpi r24,lo8(9)
 471 0162 01F0      		breq .L11
 110:main.c        **** 		{
 473               	.LM64:
 474 0164 8091 0000 		lds r24,mode
 475 0168 8A30      		cpi r24,lo8(10)
 476 016a 01F0      		breq .+2
 477 016c 00C0      		rjmp .L12
 478               	.L11:
 112:main.c        **** 		  case 0:
 480               	.LM65:
 481 016e E091 0000 		lds r30,mode
 482 0172 EE30      		cpi r30,lo8(14)
 483 0174 00F4      		brsh .L10
 484 0176 F0E0      		ldi r31,0
 485 0178 E050      		subi r30,lo8(-(gs(.L14)))
 486 017a F040      		sbci r31,hi8(-(gs(.L14)))
 487 017c 0C94 0000 		jmp __tablejump2__
 488               		.p2align	1
 489               	.L14:
 490 0180 0000      		.word gs(.L13)
 491 0182 0000      		.word gs(.L13)
 492 0184 0000      		.word gs(.L13)
 493 0186 0000      		.word gs(.L13)
 494 0188 0000      		.word gs(.L13)
 495 018a 0000      		.word gs(.L13)
 496 018c 0000      		.word gs(.L15)
 497 018e 0000      		.word gs(.L16)
 498 0190 0000      		.word gs(.L17)
 499 0192 0000      		.word gs(.L18)
 500 0194 0000      		.word gs(.L19)
 501 0196 0000      		.word gs(.L20)
GAS LISTING /tmp/ccEQRkCa.s 			page 21


 502 0198 0000      		.word gs(.L21)
 503 019a 0000      		.word gs(.L22)
 504               	.L13:
 119:main.c        **** 		    volume1 = 127;
 506               	.LM66:
 507 019c 8FE7      		ldi r24,lo8(127)
 508 019e 8093 0000 		sts volume,r24
 120:main.c        **** 
 510               	.LM67:
 511 01a2 8093 0000 		sts volume1,r24
 122:main.c        **** 		    speed_rec = freq_rs[ts-1+BASENOTE+12*mode];
 513               	.LM68:
 514 01a6 2150      		subi r18,1
 515 01a8 330B      		sbc r19,r19
 516 01aa 8091 0000 		lds r24,mode
 517 01ae 4CE0      		ldi r20,lo8(12)
 518 01b0 F901      		movw r30,r18
 519 01b2 E050      		subi r30,lo8(-(freq_s))
 520 01b4 F040      		sbci r31,hi8(-(freq_s))
 521 01b6 849F      		mul r24,r20
 522 01b8 E00D      		add r30,r0
 523 01ba F11D      		adc r31,r1
 524 01bc 1124      		clr __zero_reg__
 525 01be 8081      		ld r24,Z
 526 01c0 8093 0000 		sts speed,r24
 123:main.c        **** 		    if( ts1 )
 528               	.LM69:
 529 01c4 8091 0000 		lds r24,mode
 530 01c8 2050      		subi r18,lo8(-(freq_rs))
 531 01ca 3040      		sbci r19,hi8(-(freq_rs))
 532 01cc F901      		movw r30,r18
 533 01ce 849F      		mul r24,r20
 534 01d0 E00D      		add r30,r0
 535 01d2 F11D      		adc r31,r1
 536 01d4 1124      		clr __zero_reg__
 537 01d6 8081      		ld r24,Z
 538 01d8 8093 0000 		sts speed_rec,r24
 124:main.c        **** 		    {
 540               	.LM70:
 541 01dc 9923      		tst r25
 542 01de 01F0      		breq .L23
 127:main.c        **** 			speed_rec1 = freq_rs[ts1-1+BASENOTE+12*mode];
 544               	.LM71:
 545 01e0 E92F      		mov r30,r25
 546 01e2 E150      		subi r30,1
 547 01e4 FF0B      		sbc r31,r31
 548 01e6 CF01      		movw r24,r30
 549 01e8 2091 0000 		lds r18,mode
 550 01ec E050      		subi r30,lo8(-(freq_s))
 551 01ee F040      		sbci r31,hi8(-(freq_s))
 552 01f0 249F      		mul r18,r20
 553 01f2 E00D      		add r30,r0
 554 01f4 F11D      		adc r31,r1
 555 01f6 1124      		clr __zero_reg__
 556 01f8 2081      		ld r18,Z
 557 01fa 2093 0000 		sts speed1,r18
 128:main.c        **** 		    }
GAS LISTING /tmp/ccEQRkCa.s 			page 22


 559               	.LM72:
 560 01fe 2091 0000 		lds r18,mode
 561 0202 8050      		subi r24,lo8(-(freq_rs))
 562 0204 9040      		sbci r25,hi8(-(freq_rs))
 563 0206 FC01      		movw r30,r24
 564 0208 249F      		mul r18,r20
 565 020a E00D      		add r30,r0
 566 020c F11D      		adc r31,r1
 567 020e 1124      		clr __zero_reg__
 568 0210 8081      		ld r24,Z
 569 0212 8093 0000 		sts speed_rec1,r24
 570               	.L24:
 135:main.c        **** 		    PORTD &=~_BV(1); //LED
 572               	.LM73:
 573 0216 B092 0000 		sts voiceptr+1,r11
 574 021a A092 0000 		sts voiceptr,r10
 575               	.L61:
 142:main.c        **** 		    break;
 577               	.LM74:
 578 021e 5998      		cbi 0xb,1
 143:main.c        **** 		  case 7:
 580               	.LM75:
 581 0220 00C0      		rjmp .L10
 582               	.L23:
 133:main.c        **** 		    }
 584               	.LM76:
 585 0222 1092 0000 		sts speed1,__zero_reg__
 586 0226 00C0      		rjmp .L24
 587               	.L15:
 139:main.c        **** 		    speed = 14-ts;
 589               	.LM77:
 590 0228 8AE0      		ldi r24,lo8(10)
 591 022a 289F      		mul r18,r24
 592 022c 802D      		mov r24,r0
 593 022e 1124      		clr r1
 594 0230 8093 0000 		sts volume,r24
 140:main.c        **** 		    voiceptr = &voiceNoise;
 596               	.LM78:
 597 0234 862D      		mov r24,r6
 598 0236 821B      		sub r24,r18
 599 0238 8093 0000 		sts speed,r24
 141:main.c        **** 		    PORTD &=~_BV(1); //LED
 601               	.LM79:
 602 023c 20E0      		ldi r18,lo8(gs(voiceNoise))
 603 023e 30E0      		ldi r19,hi8(gs(voiceNoise))
 604 0240 3093 0000 		sts voiceptr+1,r19
 605 0244 2093 0000 		sts voiceptr,r18
 606 0248 00C0      		rjmp .L61
 607               	.L16:
 145:main.c        **** 		    {
 609               	.LM80:
 610 024a 8FEF      		ldi r24,lo8(-1)
 611 024c 820F      		add r24,r18
 612 024e 8630      		cpi r24,lo8(6)
 613 0250 00F0      		brlo .L25
 145:main.c        **** 		    {
 615               	.LM81:
GAS LISTING /tmp/ccEQRkCa.s 			page 23


 616 0252 8FEF      		ldi r24,lo8(-1)
 617 0254 890F      		add r24,r25
 618 0256 8630      		cpi r24,lo8(6)
 619 0258 00F4      		brsh .L43
 620               	.L25:
 147:main.c        **** 		      {
 622               	.LM82:
 623 025a C111      		cpse r28,__zero_reg__
 624 025c 00C0      		rjmp .L26
 150:main.c        **** 		        wavedone = 0;
 626               	.LM83:
 627 025e 1092 0000 		sts sample0Count+1,__zero_reg__
 628 0262 1092 0000 		sts sample0Count,__zero_reg__
 151:main.c        **** 		      }
 630               	.LM84:
 631 0266 1092 0000 		sts wavedone,__zero_reg__
 149:main.c        **** 		        sample0Count = 0;
 633               	.LM85:
 634 026a C1E0      		ldi r28,lo8(1)
 635               	.L26:
 158:main.c        **** 		    {
 637               	.LM86:
 638 026c 2730      		cpi r18,lo8(7)
 639 026e 00F4      		brsh .L27
 158:main.c        **** 		    {
 641               	.LM87:
 642 0270 9730      		cpi r25,lo8(7)
 643 0272 00F0      		brlo .L44
 644               	.L27:
 160:main.c        **** 		      {
 646               	.LM88:
 647 0274 D111      		cpse r29,__zero_reg__
 648 0276 00C0      		rjmp .L28
 163:main.c        **** 		        wavedone = 0;
 650               	.LM89:
 651 0278 1092 0000 		sts sample1Count+1,__zero_reg__
 652 027c 1092 0000 		sts sample1Count,__zero_reg__
 164:main.c        **** 		      }
 654               	.LM90:
 655 0280 1092 0000 		sts wavedone,__zero_reg__
 162:main.c        **** 		        sample1Count = 0;
 657               	.LM91:
 658 0284 D1E0      		ldi r29,lo8(1)
 659               	.L28:
 171:main.c        **** 		    {
 661               	.LM92:
 662 0286 8091 0000 		lds r24,wavedone
 663 028a 8823      		tst r24
 664 028c 01F0      		breq .L29
 173:main.c        **** 		      PORTD |=_BV(1); //LED
 666               	.LM93:
 667 028e F092 0000 		sts voiceptr+1,r15
 668 0292 E092 0000 		sts voiceptr,r14
 669               	.L62:
 268:main.c        **** 		}
 671               	.LM94:
 672 0296 599A      		sbi 0xb,1
GAS LISTING /tmp/ccEQRkCa.s 			page 24


 673 0298 00C0      		rjmp .L10
 674               	.L43:
 156:main.c        **** 		    }
 676               	.LM95:
 677 029a C0E0      		ldi r28,0
 678 029c 00C0      		rjmp .L26
 679               	.L44:
 169:main.c        **** 		    }
 681               	.LM96:
 682 029e D0E0      		ldi r29,0
 683 02a0 00C0      		rjmp .L28
 684               	.L29:
 178:main.c        **** 		      PORTD &=~_BV(1); //LED
 686               	.LM97:
 687 02a2 80E0      		ldi r24,lo8(gs(voicePlayWave))
 688 02a4 90E0      		ldi r25,hi8(gs(voicePlayWave))
 689 02a6 9093 0000 		sts voiceptr+1,r25
 690 02aa 8093 0000 		sts voiceptr,r24
 691 02ae 00C0      		rjmp .L61
 692               	.L17:
 184:main.c        **** 		    if (ts) {
 694               	.LM98:
 695 02b0 9092 0000 		sts volume,r9
 185:main.c        **** 		      speed = 24-ts;
 697               	.LM99:
 698 02b4 2223      		tst r18
 699 02b6 01F0      		breq .L30
 186:main.c        **** 		    }
 701               	.LM100:
 702 02b8 832D      		mov r24,r3
 703 02ba 821B      		sub r24,r18
 704 02bc 8093 0000 		sts speed,r24
 705               	.L30:
 189:main.c        **** 		    PORTD &=~_BV(1);
 707               	.LM101:
 708 02c0 5092 0000 		sts voiceptr+1,r5
 709 02c4 4092 0000 		sts voiceptr,r4
 710 02c8 00C0      		rjmp .L61
 711               	.L18:
 194:main.c        **** 		      volume = 100;
 713               	.LM102:
 714 02ca 2223      		tst r18
 715 02cc 01F0      		breq .L33
 195:main.c        **** 		      
 717               	.LM103:
 718 02ce 9092 0000 		sts volume,r9
 197:main.c        **** 		      fade_out = kit0_fade[ts-1];
 720               	.LM104:
 721 02d2 2150      		subi r18,1
 722 02d4 330B      		sbc r19,r19
 723 02d6 F901      		movw r30,r18
 724 02d8 E050      		subi r30,lo8(-(kit0_speed))
 725 02da F040      		sbci r31,hi8(-(kit0_speed))
 726 02dc 8081      		ld r24,Z
 727 02de 8093 0000 		sts speed,r24
 198:main.c        **** 		      fade_out_mode = kit0_drop[ts-1];
 729               	.LM105:
GAS LISTING /tmp/ccEQRkCa.s 			page 25


 730 02e2 F901      		movw r30,r18
 731 02e4 EE0F      		lsl r30
 732 02e6 FF1F      		rol r31
 733 02e8 E050      		subi r30,lo8(-(kit0_fade))
 734 02ea F040      		sbci r31,hi8(-(kit0_fade))
 735 02ec 8081      		ld r24,Z
 736 02ee 9181      		ldd r25,Z+1
 737 02f0 9093 0000 		sts fade_out+1,r25
 738 02f4 8093 0000 		sts fade_out,r24
 199:main.c        **** 		      PORTD &=~_BV(1);
 740               	.LM106:
 741 02f8 2050      		subi r18,lo8(-(kit0_drop))
 742 02fa 3040      		sbci r19,hi8(-(kit0_drop))
 743               	.L64:
 214:main.c        **** 		      PORTD &=~_BV(1);
 745               	.LM107:
 746 02fc F901      		movw r30,r18
 747 02fe 8081      		ld r24,Z
 748 0300 8093 0000 		sts fade_out_mode,r24
 215:main.c        **** 		    } else {
 750               	.LM108:
 751 0304 5998      		cbi 0xb,1
 752               	.L34:
 220:main.c        **** 		    break;
 754               	.LM109:
 755 0306 D092 0000 		sts voiceptr+1,r13
 756 030a C092 0000 		sts voiceptr,r12
 221:main.c        **** 		  case 11:
 758               	.LM110:
 759 030e 00C0      		rjmp .L10
 760               	.L19:
 209:main.c        **** 		      volume = 100;
 762               	.LM111:
 763 0310 2223      		tst r18
 764 0312 01F0      		breq .L33
 210:main.c        **** 
 766               	.LM112:
 767 0314 9092 0000 		sts volume,r9
 212:main.c        **** 		      fade_out = kit1_fade[ts-1];
 769               	.LM113:
 770 0318 2150      		subi r18,1
 771 031a 330B      		sbc r19,r19
 772 031c F901      		movw r30,r18
 773 031e E050      		subi r30,lo8(-(kit1_speed))
 774 0320 F040      		sbci r31,hi8(-(kit1_speed))
 775 0322 8081      		ld r24,Z
 776 0324 8093 0000 		sts speed,r24
 213:main.c        **** 		      fade_out_mode = kit1_drop[ts-1];
 778               	.LM114:
 779 0328 F901      		movw r30,r18
 780 032a EE0F      		lsl r30
 781 032c FF1F      		rol r31
 782 032e E050      		subi r30,lo8(-(kit1_fade))
 783 0330 F040      		sbci r31,hi8(-(kit1_fade))
 784 0332 8081      		ld r24,Z
 785 0334 9181      		ldd r25,Z+1
 786 0336 9093 0000 		sts fade_out+1,r25
GAS LISTING /tmp/ccEQRkCa.s 			page 26


 787 033a 8093 0000 		sts fade_out,r24
 214:main.c        **** 		      PORTD &=~_BV(1);
 789               	.LM115:
 790 033e 2050      		subi r18,lo8(-(kit1_drop))
 791 0340 3040      		sbci r19,hi8(-(kit1_drop))
 792 0342 00C0      		rjmp .L64
 793               	.L33:
 217:main.c        **** 		    }
 795               	.LM116:
 796 0344 599A      		sbi 0xb,1
 797 0346 00C0      		rjmp .L34
 798               	.L20:
 223:main.c        **** 		    speed = sqfreqs[ts-1];
 800               	.LM117:
 801 0348 1093 0000 		sts voiceptr+1,r17
 802 034c 0093 0000 		sts voiceptr,r16
 224:main.c        **** 		    PORTD &=~_BV(1);
 804               	.LM118:
 805 0350 E22F      		mov r30,r18
 806 0352 F0E0      		ldi r31,0
 807 0354 E050      		subi r30,lo8(-(sqfreqs-1))
 808 0356 F040      		sbci r31,hi8(-(sqfreqs-1))
 809 0358 8081      		ld r24,Z
 810 035a 8093 0000 		sts speed,r24
 225:main.c        **** 		    if ( ts1 )
 812               	.LM119:
 813 035e 5998      		cbi 0xb,1
 226:main.c        **** 		    {
 815               	.LM120:
 816 0360 9923      		tst r25
 817 0362 01F0      		breq .L37
 228:main.c        **** 		    }
 819               	.LM121:
 820 0364 E92F      		mov r30,r25
 821 0366 F0E0      		ldi r31,0
 822 0368 E050      		subi r30,lo8(-(sqfreqs-1))
 823 036a F040      		sbci r31,hi8(-(sqfreqs-1))
 824 036c 8081      		ld r24,Z
 825               	.L63:
 254:main.c        **** 		    }
 827               	.LM122:
 828 036e 8093 0000 		sts speed1,r24
 829 0372 00C0      		rjmp .L10
 830               	.L21:
 236:main.c        **** 		    PORTD &=~_BV(1);
 832               	.LM123:
 833 0374 1093 0000 		sts voiceptr+1,r17
 834 0378 0093 0000 		sts voiceptr,r16
 237:main.c        **** 		    speed = sqfreqs[ts-1]*2;
 836               	.LM124:
 837 037c 5998      		cbi 0xb,1
 238:main.c        **** 		    if ( ts1 )
 839               	.LM125:
 840 037e E22F      		mov r30,r18
 841 0380 F0E0      		ldi r31,0
 842 0382 E050      		subi r30,lo8(-(sqfreqs-1))
 843 0384 F040      		sbci r31,hi8(-(sqfreqs-1))
GAS LISTING /tmp/ccEQRkCa.s 			page 27


 844 0386 8081      		ld r24,Z
 845 0388 880F      		lsl r24
 846 038a 8093 0000 		sts speed,r24
 239:main.c        **** 		    {
 848               	.LM126:
 849 038e 9923      		tst r25
 850 0390 01F0      		breq .L37
 241:main.c        **** 		    }
 852               	.LM127:
 853 0392 E92F      		mov r30,r25
 854 0394 F0E0      		ldi r31,0
 855 0396 E050      		subi r30,lo8(-(sqfreqs-1))
 856 0398 F040      		sbci r31,hi8(-(sqfreqs-1))
 857 039a 8081      		ld r24,Z
 858 039c 880F      		lsl r24
 859 039e 00C0      		rjmp .L63
 860               	.L22:
 249:main.c        **** 		    PORTD &=~_BV(1);
 862               	.LM128:
 863 03a0 1093 0000 		sts voiceptr+1,r17
 864 03a4 0093 0000 		sts voiceptr,r16
 250:main.c        **** 		    speed = sqfreqs[ts-1]*4;
 866               	.LM129:
 867 03a8 5998      		cbi 0xb,1
 251:main.c        **** 		    if ( ts1 )
 869               	.LM130:
 870 03aa E22F      		mov r30,r18
 871 03ac F0E0      		ldi r31,0
 872 03ae E050      		subi r30,lo8(-(sqfreqs-1))
 873 03b0 F040      		sbci r31,hi8(-(sqfreqs-1))
 874 03b2 8081      		ld r24,Z
 875 03b4 880F      		lsl r24
 876 03b6 880F      		lsl r24
 877 03b8 8093 0000 		sts speed,r24
 252:main.c        **** 		    {
 879               	.LM131:
 880 03bc 9923      		tst r25
 881 03be 01F0      		breq .L37
 254:main.c        **** 		    }
 883               	.LM132:
 884 03c0 E92F      		mov r30,r25
 885 03c2 F0E0      		ldi r31,0
 886 03c4 E050      		subi r30,lo8(-(sqfreqs-1))
 887 03c6 F040      		sbci r31,hi8(-(sqfreqs-1))
 888 03c8 8081      		ld r24,Z
 889 03ca 880F      		lsl r24
 890 03cc 880F      		lsl r24
 891 03ce 00C0      		rjmp .L63
 892               	.L37:
 258:main.c        **** 		    }
 894               	.LM133:
 895 03d0 1092 0000 		sts speed1,__zero_reg__
 896 03d4 00C0      		rjmp .L10
 897               	.L12:
 266:main.c        **** 			speed = 0;
 899               	.LM134:
 900 03d6 F092 0000 		sts voiceptr+1,r15
GAS LISTING /tmp/ccEQRkCa.s 			page 28


 901 03da E092 0000 		sts voiceptr,r14
 267:main.c        **** 			PORTD |= _BV(1); //LED
 903               	.LM135:
 904 03de 1092 0000 		sts speed,__zero_reg__
 905 03e2 00C0      		rjmp .L62
 906               	.L7:
 102:main.c        **** 		  wdt_reset();
 908               	.LM136:
 909 03e4 8110      		cpse r8,__zero_reg__
 910 03e6 00C0      		rjmp .L39
 911 03e8 00C0      		rjmp .L40
 912               	.LBE8:
 934               	.Lscope2:
 936               		.stabd	78,0,0
 937               		.comm	fade_out_mode,1,1
 939               		.comm	fade_out,2,1
 941               		.comm	mode,1,1
 943               		.comm	mode_button,1,1
 945               		.comm	speed_rec1,1,1
 947               		.comm	speed1,1,1
 949               	.global	sqfreqs
 950               		.data
 953               	sqfreqs:
 954 0000 17        		.byte	23
 955 0001 16        		.byte	22
 956 0002 15        		.byte	21
 957 0003 14        		.byte	20
 958 0004 13        		.byte	19
 959 0005 12        		.byte	18
 960 0006 11        		.byte	17
 961 0007 10        		.byte	16
 962 0008 0F        		.byte	15
 963 0009 0E        		.byte	14
 964 000a 0D        		.byte	13
 965 000b 0C        		.byte	12
 966 000c 0B        		.byte	11
 968               	.global	kit1_drop
 971               	kit1_drop:
 972 000d 05        		.byte	5
 973 000e 40        		.byte	64
 974 000f 04        		.byte	4
 975 0010 0A        		.byte	10
 976 0011 0A        		.byte	10
 977 0012 10        		.byte	16
 978 0013 10        		.byte	16
 979 0014 10        		.byte	16
 980 0015 18        		.byte	24
 981 0016 18        		.byte	24
 982 0017 18        		.byte	24
 983 0018 40        		.byte	64
 984 0019 80        		.byte	-128
 986               	.global	kit1_fade
 989               	kit1_fade:
 990 001a 8000      		.word	128
 991 001c 0002      		.word	512
 992 001e 0800      		.word	8
 993 0020 8000      		.word	128
GAS LISTING /tmp/ccEQRkCa.s 			page 29


 994 0022 8000      		.word	128
 995 0024 8000      		.word	128
 996 0026 8000      		.word	128
 997 0028 8000      		.word	128
 998 002a FF00      		.word	255
 999 002c FF00      		.word	255
 1000 002e FF00      		.word	255
 1001 0030 0002      		.word	512
 1002 0032 0004      		.word	1024
 1004               	.global	kit1_speed
 1007               	kit1_speed:
 1008 0034 0E        		.byte	14
 1009 0035 0D        		.byte	13
 1010 0036 10        		.byte	16
 1011 0037 0B        		.byte	11
 1012 0038 0A        		.byte	10
 1013 0039 09        		.byte	9
 1014 003a 08        		.byte	8
 1015 003b 07        		.byte	7
 1016 003c 06        		.byte	6
 1017 003d 05        		.byte	5
 1018 003e 04        		.byte	4
 1019 003f 02        		.byte	2
 1020 0040 02        		.byte	2
 1022               	.global	kit0_drop
 1025               	kit0_drop:
 1026 0041 17        		.byte	23
 1027 0042 16        		.byte	22
 1028 0043 15        		.byte	21
 1029 0044 14        		.byte	20
 1030 0045 13        		.byte	19
 1031 0046 12        		.byte	18
 1032 0047 11        		.byte	17
 1033 0048 10        		.byte	16
 1034 0049 0F        		.byte	15
 1035 004a 0E        		.byte	14
 1036 004b 0D        		.byte	13
 1037 004c 0C        		.byte	12
 1038 004d 0B        		.byte	11
 1040               	.global	kit0_fade
 1043               	kit0_fade:
 1044 004e 1800      		.word	24
 1045 0050 1800      		.word	24
 1046 0052 1800      		.word	24
 1047 0054 1800      		.word	24
 1048 0056 1800      		.word	24
 1049 0058 1800      		.word	24
 1050 005a 1800      		.word	24
 1051 005c 1800      		.word	24
 1052 005e 1800      		.word	24
 1053 0060 1800      		.word	24
 1054 0062 1800      		.word	24
 1055 0064 1800      		.word	24
 1056 0066 1800      		.word	24
 1058               	.global	kit0_speed
 1061               	kit0_speed:
 1062 0068 17        		.byte	23
GAS LISTING /tmp/ccEQRkCa.s 			page 30


 1063 0069 16        		.byte	22
 1064 006a 15        		.byte	21
 1065 006b 14        		.byte	20
 1066 006c 13        		.byte	19
 1067 006d 12        		.byte	18
 1068 006e 11        		.byte	17
 1069 006f 10        		.byte	16
 1070 0070 0F        		.byte	15
 1071 0071 0E        		.byte	14
 1072 0072 0D        		.byte	13
 1073 0073 0C        		.byte	12
 1074 0074 0B        		.byte	11
 1076               		.text
 1078               	.Letext0:
 1079               		.ident	"GCC: (GNU) 7.2.0"
 1080               	.global __do_copy_data
 1081               	.global __do_clear_bss
GAS LISTING /tmp/ccEQRkCa.s 			page 31


DEFINED SYMBOLS
                            *ABS*:0000000000000000 main.c
     /tmp/ccEQRkCa.s:2      *ABS*:000000000000003e __SP_H__
     /tmp/ccEQRkCa.s:3      *ABS*:000000000000003d __SP_L__
     /tmp/ccEQRkCa.s:4      *ABS*:000000000000003f __SREG__
     /tmp/ccEQRkCa.s:5      *ABS*:0000000000000000 __tmp_reg__
     /tmp/ccEQRkCa.s:6      *ABS*:0000000000000001 __zero_reg__
     /tmp/ccEQRkCa.s:121    .init3:0000000000000000 wdt_first
     /tmp/ccEQRkCa.s:167    .text.startup:0000000000000000 main
                            *COM*:0000000000000001 mode_button
                            *COM*:0000000000000001 mode
                            *COM*:0000000000000001 speed1
                            *COM*:0000000000000001 speed_rec1
     /tmp/ccEQRkCa.s:1061   .data:0000000000000068 kit0_speed
     /tmp/ccEQRkCa.s:1043   .data:000000000000004e kit0_fade
                            *COM*:0000000000000002 fade_out
     /tmp/ccEQRkCa.s:1025   .data:0000000000000041 kit0_drop
                            *COM*:0000000000000001 fade_out_mode
     /tmp/ccEQRkCa.s:1007   .data:0000000000000034 kit1_speed
     /tmp/ccEQRkCa.s:989    .data:000000000000001a kit1_fade
     /tmp/ccEQRkCa.s:971    .data:000000000000000d kit1_drop
     /tmp/ccEQRkCa.s:953    .data:0000000000000000 sqfreqs

UNDEFINED SYMBOLS
eeprom_read_byte
speed
voiceQuicklySleep
voiceptr
eeprom_write_byte
voiceDoSquare
voiceDrums
voiceTunedNoise
voiceDoBasicSynth
__udivmodqi4
ReadButtonMask
__tablejump2__
volume
volume1
freq_s
freq_rs
speed_rec
voiceNoise
sample0Count
wavedone
sample1Count
voicePlayWave
__do_copy_data
__do_clear_bss
GAS LISTING /tmp/ccEQRkCa.s 			page 1


   1               		.file	"util.c"
   2               	__SP_H__ = 0x3e
   3               	__SP_L__ = 0x3d
   4               	__SREG__ = 0x3f
   5               	__tmp_reg__ = 0
   6               	__zero_reg__ = 1
   9               		.text
  10               	.Ltext0:
 113               	.global	voiceQuicklySleep
 115               	voiceQuicklySleep:
 116               		.stabd	46,0,0
   1:util.c        **** #include "util.h"
   2:util.c        **** #include <avr/io.h>
   3:util.c        **** #include <avr/interrupt.h>
   4:util.c        **** #include <util/delay.h>
   5:util.c        **** #include <avr/pgmspace.h>
   6:util.c        **** 
   7:util.c        **** #include "calced_speeds.c"
   8:util.c        **** 
   9:util.c        **** int8_t wave;
  10:util.c        **** int8_t wave0;
  11:util.c        **** int8_t wave1;
  12:util.c        **** 
  13:util.c        **** uint8_t (* volatile voiceptr)();
  14:util.c        **** volatile uint8_t speed;
  15:util.c        **** volatile uint8_t speed_rec;
  16:util.c        **** volatile uint8_t speed1;
  17:util.c        **** volatile uint8_t speed_rec1;
  18:util.c        **** volatile uint8_t volume;
  19:util.c        **** volatile uint8_t volume1;
  20:util.c        **** volatile uint16_t frametimer;
  21:util.c        **** volatile uint8_t mode;
  22:util.c        **** volatile uint8_t mode_button;
  23:util.c        **** volatile uint16_t fade_in;
  24:util.c        **** volatile uint16_t fade_out;
  25:util.c        **** volatile uint8_t fade_in_mode;
  26:util.c        **** volatile uint8_t fade_out_mode;
  27:util.c        **** volatile uint16_t sampleCount = 0;
  28:util.c        **** volatile uint16_t sample0Count = 0;
  29:util.c        **** volatile uint16_t sample1Count = 0;
  30:util.c        **** volatile uint8_t wavedone = 0;
  31:util.c        **** 
  32:util.c        **** uint16_t GetFrametimer() //Make sure it gets frametimer as an atomic operation.
  33:util.c        **** {
  34:util.c        **** 	uint16_t ret;
  35:util.c        **** 	cli();
  36:util.c        **** 	ret = frametimer;
  37:util.c        **** 	sei();
  38:util.c        **** 	return ret;
  39:util.c        **** }
  40:util.c        **** 
  41:util.c        **** uint16_t lfsr = 0xACE1u;  /* Any nonzero start state will work. (from wikipedia) */
  42:util.c        **** 
  43:util.c        **** uint8_t GetRandom()
  44:util.c        **** {
  45:util.c        **** 	/* taps: 16 14 13 11; feedback polynomial: x^16 + x^14 + x^13 + x^11 + 1 */
  46:util.c        **** 	uint8_t   bit  = ((lfsr >> 0) ^ (lfsr >> 2) ^ (lfsr >> 3) ^ (lfsr >> 5) ) & 1;
GAS LISTING /tmp/ccEQRkCa.s 			page 2


  47:util.c        **** 	lfsr = (lfsr >> 1) | (bit << 15);
  48:util.c        **** 	return lfsr;
  49:util.c        **** }
  50:util.c        **** 
  51:util.c        **** 
  52:util.c        **** 
  53:util.c        **** 
  54:util.c        **** ISR( TIMER0_COMPA_vect, ISR_NAKED  )
  55:util.c        **** {
  56:util.c        **** /*	if( wave < 0 )
  57:util.c        **** 	{
  58:util.c        **** 		//Switch the inverting rail.  WARNING: Do we need to put the second rail into high impedance mode
  59:util.c        **** 	}
  60:util.c        **** 	else
  61:util.c        **** 	{
  62:util.c        **** 		//Switch the inverting rail.  WARNING: Do we need to put the second rail into high impedance mode
  63:util.c        **** */
  64:util.c        **** //	}
  65:util.c        **** 	asm( "reti" );
  66:util.c        **** }
  67:util.c        **** 
  68:util.c        **** 
  69:util.c        **** //		mov r25, r2\n\
  70:util.c        **** 		lsl r2\n\
  71:util.c        **** 		out 0x27,r2 /*OCR0A*/ \n\
  72:util.c        **** 		out 0x28,r2 /*OCR0B*/ \n\
  73:util.c        **** 		brcs cont__\n\
  74:util.c        **** 		cbi 0xa,3 /*DDRD |= _BV(3) */\n\
  75:util.c        **** 		cbi 0x4,3 /*DDRB |= _BV(3) */\n\
  76:util.c        **** cont__:\n\
  77:util.c        **** 		push r0\n\
  78:util.c        **** 
  79:util.c        **** //#define NAKED_T0OVF
  80:util.c        **** 
  81:util.c        **** ISR( TIMER0_OVF_vect, ISR_NAKED )
  82:util.c        **** {
  83:util.c        **** 	asm( "\n\
  84:util.c        **** 		sbis 0x1E, 1	/* If we aren't supposed to do any operations, don't skip the jump to normal operati
  85:util.c        **** 		rjmp intcont\n\
  86:util.c        **** 		sbic 0x1E, 0	/* If _BV(0) is set, continue to the below code. */ \n\
  87:util.c        **** 		rjmp make_zero\n\
  88:util.c        **** 		sbi 0xb,3 /*PORT |= _BV(3) */\n\
  89:util.c        **** 		sbi 0x5,3 /*PORTB |= _BV(3) */\n\
  90:util.c        **** 		rjmp intcont\n\
  91:util.c        **** make_zero:\n\
  92:util.c        **** 		cbi 0xb,3 /*PORTD &=~_BV(3) */\n\
  93:util.c        **** 		cbi 0x5,3 /*PORTB &=~_BV(3) */\n\
  94:util.c        **** intcont:\n\
  95:util.c        **** 		push r0\n\
  96:util.c        **** 		push r1\n\
  97:util.c        **** 		in r0,63 /*Store SREG*/\n\
  98:util.c        **** 		push r0\n\
  99:util.c        **** 		clr r1\n\
 100:util.c        **** 		push r16\n\
 101:util.c        **** 		push r17\n\
 102:util.c        **** 		push r18\n\
 103:util.c        **** 		push r19\n\
GAS LISTING /tmp/ccEQRkCa.s 			page 3


 104:util.c        **** 		push r20\n\
 105:util.c        **** 		push r21\n\
 106:util.c        **** 		push r22\n\
 107:util.c        **** 		push r23\n\
 108:util.c        **** 		push r24\n\
 109:util.c        **** 		push r25\n\
 110:util.c        **** 		push r30\n\
 111:util.c        **** 		push r31\n\
 112:util.c        **** 	");
 113:util.c        **** 
 114:util.c        **** 
 115:util.c        **** 	frametimer++;
 116:util.c        **** 	/*Ok... We can do whatever we want in here, as long as it's fast and before the end we update
 117:util.c        **** 		OCR0A and OCR0B.  That will cause the actual registers to update AFTER the next cycle. */
 118:util.c        **** 
 119:util.c        **** 	//Handle TIM0 OVR.  This happens at 31kHz.
 120:util.c        **** 	if( !voiceptr() )
 121:util.c        **** 	{
 122:util.c        **** 			//This disables the output drive.
 123:util.c        **** 			DDRB &=~_BV(3);
 124:util.c        **** 			DDRD &=~_BV(3);
 125:util.c        **** 			PORTB |= _BV(3);
 126:util.c        **** 			PORTD |= _BV(3);
 127:util.c        **** 			OCR0A = OCR0B = 255;
 128:util.c        **** 			goto end_int;
 129:util.c        **** 	}
 130:util.c        **** 	else
 131:util.c        **** 	{
 132:util.c        **** 		DDRD |= _BV(3);
 133:util.c        **** 		DDRB |= _BV(3);
 134:util.c        **** 	}
 135:util.c        **** 
 136:util.c        **** 	//Tricky: Detect if we're switching states, if so, need to trigger early-interrupt-handler transit
 137:util.c        **** 	//This data is stored in GPIOR0 so we can operate at the beginning of the next interrupt without i
 138:util.c        **** 	if( wave < 0 )
 139:util.c        **** 	{
 140:util.c        **** 		if( GPIOR0 & _BV(0) )
 141:util.c        **** 			GPIOR0 |= _BV(1); //If transition, trigger.
 142:util.c        **** 		else
 143:util.c        **** 			GPIOR0 &=~_BV(1);
 144:util.c        **** 		GPIOR0 &= ~_BV(0);
 145:util.c        **** 	}
 146:util.c        **** 	else
 147:util.c        **** 	{
 148:util.c        **** 		if( !(GPIOR0 & _BV(0)) )
 149:util.c        **** 			GPIOR0 |= _BV(1); //If transition, trigger.
 150:util.c        **** 		else
 151:util.c        **** 			GPIOR0 &=~_BV(1);
 152:util.c        **** 		GPIOR0 |= _BV(0);
 153:util.c        **** 	}
 154:util.c        **** 
 155:util.c        **** 	OCR0A = OCR0B = ((uint8_t)wave)<<1;
 156:util.c        **** end_int:
 157:util.c        **** 	asm( "\
 158:util.c        **** 		pop r31\n\
 159:util.c        **** 		pop r30\n\
 160:util.c        **** 		pop r25\n\
GAS LISTING /tmp/ccEQRkCa.s 			page 4


 161:util.c        **** 		pop r24\n\
 162:util.c        **** 		pop r23\n\
 163:util.c        **** 		pop r22\n\
 164:util.c        **** 		pop r21\n\
 165:util.c        **** 		pop r20\n\
 166:util.c        **** 		pop r19\n\
 167:util.c        **** 		pop r18\n\
 168:util.c        **** 		pop r17\n\
 169:util.c        **** 		pop r16\n\
 170:util.c        **** 		pop r0\n\
 171:util.c        **** 		out 63, r0 /*Restore SREG*/\n\
 172:util.c        **** 		pop r1\n\
 173:util.c        **** 		pop r0\n\
 174:util.c        **** 		reti\n");
 175:util.c        **** }
 176:util.c        **** 
 177:util.c        **** 
 178:util.c        **** #define HAS_SAMPLES
 179:util.c        **** #ifdef HAS_SAMPLES
 180:util.c        **** #include "samples.c"
 181:util.c        **** const extern int8_t PROGMEM aud0dat[NUM_SAMPLES0];
 182:util.c        **** const extern int8_t PROGMEM aud1dat[NUM_SAMPLES1];
 183:util.c        **** uint8_t voicePlayWave()
 184:util.c        **** {
 185:util.c        **** 	wave0 = pgm_read_byte( &aud0dat[sample0Count>>1] );
 186:util.c        **** 	wave1 = pgm_read_byte( &aud1dat[sample1Count>>1] );
 187:util.c        **** 	if( sample0Count == (NUM_SAMPLES0*2) && sample1Count == (NUM_SAMPLES1*2) )
 188:util.c        **** 	{
 189:util.c        **** 		wavedone = 1;
 190:util.c        **** 		voiceptr = voiceQuicklySleep;
 191:util.c        **** 		return 0;
 192:util.c        **** 	}
 193:util.c        **** 	else
 194:util.c        **** 	{
 195:util.c        **** 		wavedone = 0;
 196:util.c        **** 	}
 197:util.c        **** 	wave = 0;
 198:util.c        **** 	if ( sample0Count < NUM_SAMPLES0*2 )
 199:util.c        **** 	{
 200:util.c        **** 		sample0Count++;
 201:util.c        **** 		if ( sample1Count < NUM_SAMPLES1*2 && sample1Count > sample0Count )
 202:util.c        **** 		{
 203:util.c        **** 			wave += wave0>>1;
 204:util.c        **** 		}
 205:util.c        **** 		else
 206:util.c        **** 		{
 207:util.c        **** 			wave += wave0;
 208:util.c        **** 		}
 209:util.c        **** 	}
 210:util.c        **** 	if ( sample1Count < NUM_SAMPLES1*2 )
 211:util.c        **** 	{
 212:util.c        **** 		sample1Count++;
 213:util.c        **** 		if (sample0Count < NUM_SAMPLES0*2 && sample1Count < sample0Count )
 214:util.c        **** 		{
 215:util.c        **** 			wave += wave1>>1;
 216:util.c        **** 		}
 217:util.c        **** 		else
GAS LISTING /tmp/ccEQRkCa.s 			page 5


 218:util.c        **** 		{
 219:util.c        **** 			wave += wave1;
 220:util.c        **** 		}
 221:util.c        **** 	}
 222:util.c        **** 	return 1;
 223:util.c        **** }
 224:util.c        **** #else
 225:util.c        **** uint8_t voicePlayWave()
 226:util.c        **** {
 227:util.c        **** 	voiceptr = voiceQuicklySleep;
 228:util.c        **** }
 229:util.c        **** 
 230:util.c        **** #endif
 231:util.c        **** 
 232:util.c        **** 
 233:util.c        **** uint8_t voiceDoSquare()
 234:util.c        **** {
 235:util.c        **** 	sampleCount++;
 236:util.c        **** 	if ( speed1 )
 237:util.c        **** 	{
 238:util.c        **** 		wave = (sampleCount % (speed * 2) > speed) ^ (sampleCount % (speed1 * 2) > speed1);
 239:util.c        **** 	}
 240:util.c        **** 	else
 241:util.c        **** 	{
 242:util.c        **** 		wave = sampleCount % (speed * 2) > speed;
 243:util.c        **** 	}
 244:util.c        **** }
 245:util.c        **** 
 246:util.c        **** uint8_t voiceDoBasicSynth()
 247:util.c        **** {
 248:util.c        **** 	int16_t twave;
 249:util.c        **** 	static uint8_t up;
 250:util.c        **** 	static uint8_t up1;
 251:util.c        **** 
 252:util.c        **** 
 253:util.c        **** 	if( !speed )
 254:util.c        **** 	{
 255:util.c        **** 		voiceptr = voiceQuicklySleep;
 256:util.c        **** 		wave0 = wave1 = 0;
 257:util.c        **** 		return 0;
 258:util.c        **** 	}
 259:util.c        **** 
 260:util.c        **** 	twave = wave0;
 261:util.c        **** 	if( up )
 262:util.c        **** 	{
 263:util.c        **** 		twave+=speed;
 264:util.c        **** 		if( twave > speed_rec ) { up = 0; twave = speed_rec - (twave-speed_rec); } //I hope this is right
 265:util.c        **** 	}
 266:util.c        **** 	else
 267:util.c        **** 	{
 268:util.c        **** 		twave-=speed;
 269:util.c        **** 		if( twave < -speed_rec ) { up = 1; twave = -speed_rec - (twave+speed_rec); } //I hope this is rig
 270:util.c        **** 	}
 271:util.c        **** 	wave0 = twave;
 272:util.c        **** 
 273:util.c        **** 	if( speed1 )
 274:util.c        **** 	{
GAS LISTING /tmp/ccEQRkCa.s 			page 6


 275:util.c        **** 		twave = wave1;
 276:util.c        **** 		if( up1 )
 277:util.c        **** 		{
 278:util.c        **** 			twave+=speed1;
 279:util.c        **** 			if( twave > speed_rec1 ) { up1 = 0; twave = speed_rec1 - (twave-speed_rec1); } //I hope this is 
 280:util.c        **** 		}
 281:util.c        **** 		else
 282:util.c        **** 		{
 283:util.c        **** 			twave-=speed1;
 284:util.c        **** 			if( twave < -speed_rec1 ) { up1 = 1; twave = -speed_rec1 - (twave+speed_rec1); } //I hope this i
 285:util.c        **** 		}
 286:util.c        **** 		wave1 = twave;
 287:util.c        **** 		wave = ((wave1*volume)>>8)+((wave0*volume)>>8);
 288:util.c        **** 		return 1;
 289:util.c        **** 	}
 290:util.c        **** 	else
 291:util.c        **** 	{
 292:util.c        **** 		wave = (wave0*volume)>>8;
 293:util.c        **** 		wave1 = 0;
 294:util.c        **** 		return 1;
 295:util.c        **** 	}
 296:util.c        **** }
 297:util.c        **** 
 298:util.c        **** uint8_t voiceTunedNoise()
 299:util.c        **** {
 300:util.c        ****   static uint8_t mark_s, mark_s1;
 301:util.c        **** 
 302:util.c        ****   mark_s++;
 303:util.c        ****   
 304:util.c        ****   if (mark_s == speed) {
 305:util.c        ****     wave = (((int8_t)GetRandom()) * volume) >> 8;
 306:util.c        ****     mark_s = 0;
 307:util.c        ****   }
 308:util.c        **** 
 309:util.c        ****   return 1;
 310:util.c        **** }
 311:util.c        **** 
 312:util.c        **** uint8_t voiceDrums()
 313:util.c        **** {
 314:util.c        ****   static uint8_t drum_s;
 315:util.c        ****   static uint8_t drum_f;
 316:util.c        ****   static uint16_t ticks;
 317:util.c        **** 
 318:util.c        ****   drum_s++;
 319:util.c        ****   drum_f++;
 320:util.c        **** 
 321:util.c        ****   if (drum_s == speed) {
 322:util.c        ****     wave = (((int8_t)GetRandom()) * volume) >> 8;
 323:util.c        ****     drum_s = 0;
 324:util.c        ****     ticks++;
 325:util.c        ****   }
 326:util.c        **** 
 327:util.c        ****   if (ticks > fade_out) {
 328:util.c        ****     if (drum_f == fade_out_mode) {
 329:util.c        ****       drum_f = 0;
 330:util.c        ****       volume--;
 331:util.c        ****     }
GAS LISTING /tmp/ccEQRkCa.s 			page 7


 332:util.c        ****   }
 333:util.c        **** 
 334:util.c        ****   if (volume == 0) {
 335:util.c        ****     ticks = 0;
 336:util.c        ****     drum_s = 0;
 337:util.c        ****     drum_f = 0;
 338:util.c        ****     return 0;
 339:util.c        ****   }
 340:util.c        **** 
 341:util.c        ****   return 1;
 342:util.c        **** }
 343:util.c        **** 
 344:util.c        **** uint8_t voiceQuicklySleep()
 345:util.c        **** {
 118               	.LM0:
 119               	.LFBB1:
 120               	/* prologue: function */
 121               	/* frame size = 0 */
 122               	/* stack size = 0 */
 123               	.L__stack_usage = 0
 346:util.c        **** 	return 0;
 347:util.c        **** }
 125               	.LM1:
 126 0000 80E0      		ldi r24,0
 127               	/* epilogue start */
 128 0002 0895      		ret
 130               	.Lscope1:
 132               		.stabd	78,0,0
 134               	.global	GetFrametimer
 136               	GetFrametimer:
 137               		.stabd	46,0,0
  33:util.c        **** 	uint16_t ret;
 139               	.LM2:
 140               	.LFBB2:
 141               	/* prologue: function */
 142               	/* frame size = 0 */
 143               	/* stack size = 0 */
 144               	.L__stack_usage = 0
  35:util.c        **** 	ret = frametimer;
 146               	.LM3:
 147               	/* #APP */
 148               	 ;  35 "util.c" 1
 149 0004 F894      		cli
 150               	 ;  0 "" 2
  36:util.c        **** 	sei();
 152               	.LM4:
 153               	/* #NOAPP */
 154 0006 8091 0000 		lds r24,frametimer
 155 000a 9091 0000 		lds r25,frametimer+1
  37:util.c        **** 	return ret;
 157               	.LM5:
 158               	/* #APP */
 159               	 ;  37 "util.c" 1
 160 000e 7894      		sei
 161               	 ;  0 "" 2
 162               	/* epilogue start */
  39:util.c        **** 
GAS LISTING /tmp/ccEQRkCa.s 			page 8


 164               	.LM6:
 165               	/* #NOAPP */
 166 0010 0895      		ret
 171               	.Lscope2:
 173               		.stabd	78,0,0
 175               	.global	GetRandom
 177               	GetRandom:
 178               		.stabd	46,0,0
  44:util.c        **** 	/* taps: 16 14 13 11; feedback polynomial: x^16 + x^14 + x^13 + x^11 + 1 */
 180               	.LM7:
 181               	.LFBB3:
 182               	/* prologue: function */
 183               	/* frame size = 0 */
 184               	/* stack size = 0 */
 185               	.L__stack_usage = 0
  46:util.c        **** 	lfsr = (lfsr >> 1) | (bit << 15);
 187               	.LM8:
 188 0012 4091 0000 		lds r20,lfsr
 189 0016 5091 0000 		lds r21,lfsr+1
 190 001a 9A01      		movw r18,r20
 191 001c 3695      		lsr r19
 192 001e 2795      		ror r18
 193 0020 3695      		lsr r19
 194 0022 2795      		ror r18
 195 0024 BA01      		movw r22,r20
 196 0026 93E0      		ldi r25,3
 197               		1:
 198 0028 7695      		lsr r23
 199 002a 6795      		ror r22
 200 002c 9A95      		dec r25
 201 002e 01F4      		brne 1b
 202 0030 2627      		eor r18,r22
 203 0032 2427      		eor r18,r20
 204 0034 BA01      		movw r22,r20
 205 0036 35E0      		ldi r19,5
 206               		1:
 207 0038 7695      		lsr r23
 208 003a 6795      		ror r22
 209 003c 3A95      		dec r19
 210 003e 01F4      		brne 1b
 211 0040 2627      		eor r18,r22
  47:util.c        **** 	return lfsr;
 213               	.LM9:
 214 0042 2170      		andi r18,1
 215 0044 922F      		mov r25,r18
 216 0046 9795      		ror r25
 217 0048 9927      		clr r25
 218 004a 9795      		ror r25
 219 004c 80E0      		ldi r24,0
 220 004e 5695      		lsr r21
 221 0050 4795      		ror r20
 222 0052 842B      		or r24,r20
 223 0054 952B      		or r25,r21
 224 0056 9093 0000 		sts lfsr+1,r25
 225 005a 8093 0000 		sts lfsr,r24
 226               	/* epilogue start */
  49:util.c        **** 
GAS LISTING /tmp/ccEQRkCa.s 			page 9


 228               	.LM10:
 229 005e 0895      		ret
 231               	.Lscope3:
 233               		.stabd	78,0,0
 235               	.global	__vector_14
 237               	__vector_14:
 238               		.stabd	46,0,0
  55:util.c        **** /*	if( wave < 0 )
 240               	.LM11:
 241               	.LFBB4:
 242               	/* prologue: naked */
 243               	/* frame size = 0 */
 244               	/* stack size = 0 */
 245               	.L__stack_usage = 0
  65:util.c        **** }
 247               	.LM12:
 248               	/* #APP */
 249               	 ;  65 "util.c" 1
 250 0060 1895      		reti
 251               	 ;  0 "" 2
 252               	/* epilogue start */
  66:util.c        **** 
 254               	.LM13:
 255               	/* #NOAPP */
 257               	.Lscope4:
 259               		.stabd	78,0,0
 261               	.global	__vector_16
 263               	__vector_16:
 264               		.stabd	46,0,0
  82:util.c        **** 	asm( "\n\
 266               	.LM14:
 267               	.LFBB5:
 268               	/* prologue: naked */
 269               	/* frame size = 0 */
 270               	/* stack size = 0 */
 271               	.L__stack_usage = 0
  83:util.c        **** 		sbis 0x1E, 1	/* If we aren't supposed to do any operations, don't skip the jump to normal operati
 273               	.LM15:
 274               	/* #APP */
 275               	 ;  83 "util.c" 1
 276               		
 277 0062 F19B      			sbis 0x1E, 1	/* If we aren't supposed to do any operations, don't skip the jump to normal operati
 278 0064 00C0      			rjmp intcont
 279 0066 F099      			sbic 0x1E, 0	/* If _BV(0) is set, continue to the below code. */ 
 280 0068 00C0      			rjmp make_zero
 281 006a 5B9A      			sbi 0xb,3 /*PORT |= _BV(3) */
 282 006c 2B9A      			sbi 0x5,3 /*PORTB |= _BV(3) */
 283 006e 00C0      			rjmp intcont
 284               	make_zero:
 285 0070 5B98      			cbi 0xb,3 /*PORTD &=~_BV(3) */
 286 0072 2B98      			cbi 0x5,3 /*PORTB &=~_BV(3) */
 287               	intcont:
 288 0074 0F92      			push r0
 289 0076 1F92      			push r1
 290 0078 0FB6      			in r0,63 /*Store SREG*/
 291 007a 0F92      			push r0
 292 007c 1124      			clr r1
GAS LISTING /tmp/ccEQRkCa.s 			page 10


 293 007e 0F93      			push r16
 294 0080 1F93      			push r17
 295 0082 2F93      			push r18
 296 0084 3F93      			push r19
 297 0086 4F93      			push r20
 298 0088 5F93      			push r21
 299 008a 6F93      			push r22
 300 008c 7F93      			push r23
 301 008e 8F93      			push r24
 302 0090 9F93      			push r25
 303 0092 EF93      			push r30
 304 0094 FF93      			push r31
 305               		
 306               	 ;  0 "" 2
 115:util.c        **** 	/*Ok... We can do whatever we want in here, as long as it's fast and before the end we update
 308               	.LM16:
 309               	/* #NOAPP */
 310 0096 8091 0000 		lds r24,frametimer
 311 009a 9091 0000 		lds r25,frametimer+1
 312 009e 0196      		adiw r24,1
 313 00a0 9093 0000 		sts frametimer+1,r25
 314 00a4 8093 0000 		sts frametimer,r24
 120:util.c        **** 	{
 316               	.LM17:
 317 00a8 E091 0000 		lds r30,voiceptr
 318 00ac F091 0000 		lds r31,voiceptr+1
 319 00b0 0995      		icall
 320 00b2 8111      		cpse r24,__zero_reg__
 321 00b4 00C0      		rjmp .L6
 123:util.c        **** 			DDRD &=~_BV(3);
 323               	.LM18:
 324 00b6 2398      		cbi 0x4,3
 124:util.c        **** 			PORTB |= _BV(3);
 326               	.LM19:
 327 00b8 5398      		cbi 0xa,3
 125:util.c        **** 			PORTD |= _BV(3);
 329               	.LM20:
 330 00ba 2B9A      		sbi 0x5,3
 126:util.c        **** 			OCR0A = OCR0B = 255;
 332               	.LM21:
 333 00bc 5B9A      		sbi 0xb,3
 127:util.c        **** 			goto end_int;
 335               	.LM22:
 336 00be 8FEF      		ldi r24,lo8(-1)
 337 00c0 88BD      		out 0x28,r24
 338 00c2 87BD      		out 0x27,r24
 128:util.c        **** 	}
 340               	.LM23:
 341 00c4 00C0      		rjmp .L7
 342               	.L6:
 132:util.c        **** 		DDRB |= _BV(3);
 344               	.LM24:
 345 00c6 539A      		sbi 0xa,3
 133:util.c        **** 	}
 347               	.LM25:
 348 00c8 239A      		sbi 0x4,3
 138:util.c        **** 	{
GAS LISTING /tmp/ccEQRkCa.s 			page 11


 350               	.LM26:
 351 00ca 8091 0000 		lds r24,wave
 352 00ce 87FF      		sbrs r24,7
 353 00d0 00C0      		rjmp .L8
 140:util.c        **** 			GPIOR0 |= _BV(1); //If transition, trigger.
 355               	.LM27:
 356 00d2 F09B      		sbis 0x1e,0
 357 00d4 00C0      		rjmp .L9
 141:util.c        **** 		else
 359               	.LM28:
 360 00d6 F19A      		sbi 0x1e,1
 361 00d8 00C0      		rjmp .L10
 362               	.L9:
 143:util.c        **** 		GPIOR0 &= ~_BV(0);
 364               	.LM29:
 365 00da F198      		cbi 0x1e,1
 366               	.L10:
 144:util.c        **** 	}
 368               	.LM30:
 369 00dc F098      		cbi 0x1e,0
 370 00de 00C0      		rjmp .L11
 371               	.L8:
 148:util.c        **** 			GPIOR0 |= _BV(1); //If transition, trigger.
 373               	.LM31:
 374 00e0 F099      		sbic 0x1e,0
 375 00e2 00C0      		rjmp .L12
 149:util.c        **** 		else
 377               	.LM32:
 378 00e4 F19A      		sbi 0x1e,1
 379 00e6 00C0      		rjmp .L13
 380               	.L12:
 151:util.c        **** 		GPIOR0 |= _BV(0);
 382               	.LM33:
 383 00e8 F198      		cbi 0x1e,1
 384               	.L13:
 152:util.c        **** 	}
 386               	.LM34:
 387 00ea F09A      		sbi 0x1e,0
 388               	.L11:
 155:util.c        **** end_int:
 390               	.LM35:
 391 00ec 8091 0000 		lds r24,wave
 392 00f0 880F      		lsl r24
 393 00f2 88BD      		out 0x28,r24
 394 00f4 87BD      		out 0x27,r24
 395               	.L7:
 157:util.c        **** 		pop r31\n\
 397               	.LM36:
 398               	/* #APP */
 399               	 ;  157 "util.c" 1
 400 00f6 FF91      				pop r31
 401 00f8 EF91      			pop r30
 402 00fa 9F91      			pop r25
 403 00fc 8F91      			pop r24
 404 00fe 7F91      			pop r23
 405 0100 6F91      			pop r22
 406 0102 5F91      			pop r21
GAS LISTING /tmp/ccEQRkCa.s 			page 12


 407 0104 4F91      			pop r20
 408 0106 3F91      			pop r19
 409 0108 2F91      			pop r18
 410 010a 1F91      			pop r17
 411 010c 0F91      			pop r16
 412 010e 0F90      			pop r0
 413 0110 0FBE      			out 63, r0 /*Restore SREG*/
 414 0112 1F90      			pop r1
 415 0114 0F90      			pop r0
 416 0116 1895      			reti
 417               	
 418               	 ;  0 "" 2
 419               	/* epilogue start */
 175:util.c        **** 
 421               	.LM37:
 422               	/* #NOAPP */
 424               	.Lscope5:
 426               		.stabd	78,0,0
 428               	.global	voicePlayWave
 430               	voicePlayWave:
 431               		.stabd	46,0,0
 184:util.c        **** 	wave0 = pgm_read_byte( &aud0dat[sample0Count>>1] );
 433               	.LM38:
 434               	.LFBB6:
 435               	/* prologue: function */
 436               	/* frame size = 0 */
 437               	/* stack size = 0 */
 438               	.L__stack_usage = 0
 439               	.LBB2:
 185:util.c        **** 	wave1 = pgm_read_byte( &aud1dat[sample1Count>>1] );
 441               	.LM39:
 442 0118 E091 0000 		lds r30,sample0Count
 443 011c F091 0000 		lds r31,sample0Count+1
 444 0120 F695      		lsr r31
 445 0122 E795      		ror r30
 446 0124 E050      		subi r30,lo8(-(aud0dat))
 447 0126 F040      		sbci r31,hi8(-(aud0dat))
 448               	/* #APP */
 449               	 ;  185 "util.c" 1
 450 0128 8491      		lpm r24, Z
 451               		
 452               	 ;  0 "" 2
 453               	/* #NOAPP */
 454               	.LBE2:
 455 012a 8093 0000 		sts wave0,r24
 456               	.LBB3:
 186:util.c        **** 	if( sample0Count == (NUM_SAMPLES0*2) && sample1Count == (NUM_SAMPLES1*2) )
 458               	.LM40:
 459 012e E091 0000 		lds r30,sample1Count
 460 0132 F091 0000 		lds r31,sample1Count+1
 461 0136 F695      		lsr r31
 462 0138 E795      		ror r30
 463 013a E050      		subi r30,lo8(-(aud1dat))
 464 013c F040      		sbci r31,hi8(-(aud1dat))
 465               	/* #APP */
 466               	 ;  186 "util.c" 1
 467 013e 9491      		lpm r25, Z
GAS LISTING /tmp/ccEQRkCa.s 			page 13


 468               		
 469               	 ;  0 "" 2
 470               	/* #NOAPP */
 471               	.LBE3:
 472 0140 9093 0000 		sts wave1,r25
 187:util.c        **** 	{
 474               	.LM41:
 475 0144 2091 0000 		lds r18,sample0Count
 476 0148 3091 0000 		lds r19,sample0Count+1
 477 014c 2034      		cpi r18,64
 478 014e 3243      		sbci r19,50
 479 0150 01F4      		brne .L15
 187:util.c        **** 	{
 481               	.LM42:
 482 0152 2091 0000 		lds r18,sample1Count
 483 0156 3091 0000 		lds r19,sample1Count+1
 484 015a 2230      		cpi r18,2
 485 015c 3542      		sbci r19,37
 486 015e 01F4      		brne .L15
 189:util.c        **** 		voiceptr = voiceQuicklySleep;
 488               	.LM43:
 489 0160 81E0      		ldi r24,lo8(1)
 490 0162 8093 0000 		sts wavedone,r24
 190:util.c        **** 		return 0;
 492               	.LM44:
 493 0166 80E0      		ldi r24,lo8(gs(voiceQuicklySleep))
 494 0168 90E0      		ldi r25,hi8(gs(voiceQuicklySleep))
 495 016a 9093 0000 		sts voiceptr+1,r25
 496 016e 8093 0000 		sts voiceptr,r24
 191:util.c        **** 	}
 498               	.LM45:
 499 0172 80E0      		ldi r24,0
 500 0174 0895      		ret
 501               	.L15:
 195:util.c        **** 	}
 503               	.LM46:
 504 0176 1092 0000 		sts wavedone,__zero_reg__
 197:util.c        **** 	if ( sample0Count < NUM_SAMPLES0*2 )
 506               	.LM47:
 507 017a 1092 0000 		sts wave,__zero_reg__
 198:util.c        **** 	{
 509               	.LM48:
 510 017e 2091 0000 		lds r18,sample0Count
 511 0182 3091 0000 		lds r19,sample0Count+1
 512 0186 2034      		cpi r18,64
 513 0188 3243      		sbci r19,50
 514 018a 00F4      		brsh .L17
 200:util.c        **** 		if ( sample1Count < NUM_SAMPLES1*2 && sample1Count > sample0Count )
 516               	.LM49:
 517 018c 2091 0000 		lds r18,sample0Count
 518 0190 3091 0000 		lds r19,sample0Count+1
 519 0194 2F5F      		subi r18,-1
 520 0196 3F4F      		sbci r19,-1
 521 0198 3093 0000 		sts sample0Count+1,r19
 522 019c 2093 0000 		sts sample0Count,r18
 201:util.c        **** 		{
 524               	.LM50:
GAS LISTING /tmp/ccEQRkCa.s 			page 14


 525 01a0 2091 0000 		lds r18,sample1Count
 526 01a4 3091 0000 		lds r19,sample1Count+1
 527 01a8 2230      		cpi r18,2
 528 01aa 3542      		sbci r19,37
 529 01ac 00F4      		brsh .L18
 201:util.c        **** 		{
 531               	.LM51:
 532 01ae 4091 0000 		lds r20,sample1Count
 533 01b2 5091 0000 		lds r21,sample1Count+1
 534 01b6 2091 0000 		lds r18,sample0Count
 535 01ba 3091 0000 		lds r19,sample0Count+1
 536 01be 2417      		cp r18,r20
 537 01c0 3507      		cpc r19,r21
 538 01c2 00F4      		brsh .L18
 203:util.c        **** 		}
 540               	.LM52:
 541 01c4 E82F      		mov r30,r24
 542 01c6 E595      		asr r30
 543 01c8 E093 0000 		sts wave,r30
 544               	.L17:
 210:util.c        **** 	{
 546               	.LM53:
 547 01cc 2091 0000 		lds r18,sample1Count
 548 01d0 3091 0000 		lds r19,sample1Count+1
 549 01d4 2230      		cpi r18,2
 550 01d6 3542      		sbci r19,37
 551 01d8 00F4      		brsh .L20
 212:util.c        **** 		if (sample0Count < NUM_SAMPLES0*2 && sample1Count < sample0Count )
 553               	.LM54:
 554 01da 2091 0000 		lds r18,sample1Count
 555 01de 3091 0000 		lds r19,sample1Count+1
 556 01e2 2F5F      		subi r18,-1
 557 01e4 3F4F      		sbci r19,-1
 558 01e6 3093 0000 		sts sample1Count+1,r19
 559 01ea 2093 0000 		sts sample1Count,r18
 213:util.c        **** 		{
 561               	.LM55:
 562 01ee 2091 0000 		lds r18,sample0Count
 563 01f2 3091 0000 		lds r19,sample0Count+1
 564 01f6 8091 0000 		lds r24,wave
 215:util.c        **** 		}
 566               	.LM56:
 567 01fa E92F      		mov r30,r25
 213:util.c        **** 		{
 569               	.LM57:
 570 01fc 2034      		cpi r18,64
 571 01fe 3243      		sbci r19,50
 572 0200 00F4      		brsh .L19
 213:util.c        **** 		{
 574               	.LM58:
 575 0202 4091 0000 		lds r20,sample1Count
 576 0206 5091 0000 		lds r21,sample1Count+1
 577 020a 2091 0000 		lds r18,sample0Count
 578 020e 3091 0000 		lds r19,sample0Count+1
 579 0212 4217      		cp r20,r18
 580 0214 5307      		cpc r21,r19
 581 0216 00F4      		brsh .L19
GAS LISTING /tmp/ccEQRkCa.s 			page 15


 215:util.c        **** 		}
 583               	.LM59:
 584 0218 E595      		asr r30
 585               	.L19:
 219:util.c        **** 		}
 587               	.LM60:
 588 021a E80F      		add r30,r24
 589 021c E093 0000 		sts wave,r30
 590               	.L20:
 222:util.c        **** }
 592               	.LM61:
 593 0220 81E0      		ldi r24,lo8(1)
 594               	/* epilogue start */
 223:util.c        **** #else
 596               	.LM62:
 597 0222 0895      		ret
 598               	.L18:
 207:util.c        **** 		}
 600               	.LM63:
 601 0224 8093 0000 		sts wave,r24
 602 0228 00C0      		rjmp .L17
 604               	.Lscope6:
 606               		.stabd	78,0,0
 608               	.global	voiceDoSquare
 610               	voiceDoSquare:
 611               		.stabd	46,0,0
 234:util.c        **** 	sampleCount++;
 613               	.LM64:
 614               	.LFBB7:
 615 022a CF93      		push r28
 616 022c DF93      		push r29
 617               	/* prologue: function */
 618               	/* frame size = 0 */
 619               	/* stack size = 2 */
 620               	.L__stack_usage = 2
 235:util.c        **** 	if ( speed1 )
 622               	.LM65:
 623 022e 8091 0000 		lds r24,sampleCount
 624 0232 9091 0000 		lds r25,sampleCount+1
 625 0236 0196      		adiw r24,1
 626 0238 9093 0000 		sts sampleCount+1,r25
 627 023c 8093 0000 		sts sampleCount,r24
 236:util.c        **** 	{
 629               	.LM66:
 630 0240 8091 0000 		lds r24,speed1
 631 0244 8823      		tst r24
 632 0246 01F0      		breq .L22
 238:util.c        **** 	}
 634               	.LM67:
 635 0248 8091 0000 		lds r24,sampleCount
 636 024c 9091 0000 		lds r25,sampleCount+1
 637 0250 6091 0000 		lds r22,speed
 638 0254 4091 0000 		lds r20,speed
 639 0258 C091 0000 		lds r28,sampleCount
 640 025c D091 0000 		lds r29,sampleCount+1
 641 0260 2091 0000 		lds r18,speed1
 642 0264 E091 0000 		lds r30,speed1
GAS LISTING /tmp/ccEQRkCa.s 			page 16


 643 0268 70E0      		ldi r23,0
 644 026a 660F      		lsl r22
 645 026c 771F      		rol r23
 646 026e 0E94 0000 		call __udivmodhi4
 647 0272 31E0      		ldi r19,lo8(1)
 648 0274 4817      		cp r20,r24
 649 0276 1906      		cpc __zero_reg__,r25
 650 0278 00F0      		brlo .L23
 651 027a 30E0      		ldi r19,0
 652               	.L23:
 653 027c 622F      		mov r22,r18
 654 027e 70E0      		ldi r23,0
 655 0280 660F      		lsl r22
 656 0282 771F      		rol r23
 657 0284 CE01      		movw r24,r28
 658 0286 0E94 0000 		call __udivmodhi4
 659 028a AC01      		movw r20,r24
 660 028c 91E0      		ldi r25,lo8(1)
 661 028e E417      		cp r30,r20
 662 0290 1506      		cpc __zero_reg__,r21
 663 0292 00F0      		brlo .L24
 664 0294 90E0      		ldi r25,0
 665               	.L24:
 666 0296 3927      		eor r19,r25
 667 0298 3093 0000 		sts wave,r19
 668               	.L25:
 669               	/* epilogue start */
 244:util.c        **** 
 671               	.LM68:
 672 029c DF91      		pop r29
 673 029e CF91      		pop r28
 674 02a0 0895      		ret
 675               	.L22:
 242:util.c        **** 	}
 677               	.LM69:
 678 02a2 8091 0000 		lds r24,sampleCount
 679 02a6 9091 0000 		lds r25,sampleCount+1
 680 02aa 6091 0000 		lds r22,speed
 681 02ae 4091 0000 		lds r20,speed
 682 02b2 70E0      		ldi r23,0
 683 02b4 660F      		lsl r22
 684 02b6 771F      		rol r23
 685 02b8 0E94 0000 		call __udivmodhi4
 686 02bc 9C01      		movw r18,r24
 687 02be 91E0      		ldi r25,lo8(1)
 688 02c0 4217      		cp r20,r18
 689 02c2 1306      		cpc __zero_reg__,r19
 690 02c4 00F0      		brlo .L26
 691 02c6 90E0      		ldi r25,0
 692               	.L26:
 693 02c8 9093 0000 		sts wave,r25
 694 02cc 00C0      		rjmp .L25
 696               	.Lscope7:
 698               		.stabd	78,0,0
 700               	.global	voiceDoBasicSynth
 702               	voiceDoBasicSynth:
 703               		.stabd	46,0,0
GAS LISTING /tmp/ccEQRkCa.s 			page 17


 247:util.c        **** 	int16_t twave;
 705               	.LM70:
 706               	.LFBB8:
 707               	/* prologue: function */
 708               	/* frame size = 0 */
 709               	/* stack size = 0 */
 710               	.L__stack_usage = 0
 253:util.c        **** 	{
 712               	.LM71:
 713 02ce 8091 0000 		lds r24,speed
 714 02d2 8111      		cpse r24,__zero_reg__
 715 02d4 00C0      		rjmp .L28
 255:util.c        **** 		wave0 = wave1 = 0;
 717               	.LM72:
 718 02d6 80E0      		ldi r24,lo8(gs(voiceQuicklySleep))
 719 02d8 90E0      		ldi r25,hi8(gs(voiceQuicklySleep))
 720 02da 9093 0000 		sts voiceptr+1,r25
 721 02de 8093 0000 		sts voiceptr,r24
 256:util.c        **** 		return 0;
 723               	.LM73:
 724 02e2 1092 0000 		sts wave1,__zero_reg__
 725 02e6 1092 0000 		sts wave0,__zero_reg__
 257:util.c        **** 	}
 727               	.LM74:
 728 02ea 80E0      		ldi r24,0
 729 02ec 0895      		ret
 730               	.L28:
 260:util.c        **** 	if( up )
 732               	.LM75:
 733 02ee 2091 0000 		lds r18,wave0
 734 02f2 022E      		mov __tmp_reg__,r18
 735 02f4 000C      		lsl r0
 736 02f6 330B      		sbc r19,r19
 261:util.c        **** 	{
 738               	.LM76:
 739 02f8 8091 0000 		lds r24,up.1869
 740 02fc 8823      		tst r24
 741 02fe 01F4      		brne .+2
 742 0300 00C0      		rjmp .L30
 263:util.c        **** 		if( twave > speed_rec ) { up = 0; twave = speed_rec - (twave-speed_rec); } //I hope this is right
 744               	.LM77:
 745 0302 8091 0000 		lds r24,speed
 746 0306 280F      		add r18,r24
 747 0308 311D      		adc r19,__zero_reg__
 264:util.c        **** 	}
 749               	.LM78:
 750 030a 8091 0000 		lds r24,speed_rec
 751 030e 8217      		cp r24,r18
 752 0310 1306      		cpc __zero_reg__,r19
 753 0312 04F4      		brge .L31
 264:util.c        **** 	}
 755               	.LM79:
 756 0314 1092 0000 		sts up.1869,__zero_reg__
 757 0318 8091 0000 		lds r24,speed_rec
 758 031c 9091 0000 		lds r25,speed_rec
 759 0320 291B      		sub r18,r25
 760 0322 3109      		sbc r19,__zero_reg__
GAS LISTING /tmp/ccEQRkCa.s 			page 18


 761 0324 90E0      		ldi r25,0
 762 0326 AC01      		movw r20,r24
 763 0328 421B      		sub r20,r18
 764 032a 530B      		sbc r21,r19
 765 032c 9A01      		movw r18,r20
 766               	.L31:
 271:util.c        **** 
 768               	.LM80:
 769 032e 622F      		mov r22,r18
 770 0330 2093 0000 		sts wave0,r18
 273:util.c        **** 	{
 772               	.LM81:
 773 0334 8091 0000 		lds r24,speed1
 774 0338 8823      		tst r24
 775 033a 01F4      		brne .+2
 776 033c 00C0      		rjmp .L32
 275:util.c        **** 		if( up1 )
 778               	.LM82:
 779 033e 2091 0000 		lds r18,wave1
 780 0342 022E      		mov __tmp_reg__,r18
 781 0344 000C      		lsl r0
 782 0346 330B      		sbc r19,r19
 276:util.c        **** 		{
 784               	.LM83:
 785 0348 8091 0000 		lds r24,up1.1870
 786 034c 8823      		tst r24
 787 034e 01F4      		brne .+2
 788 0350 00C0      		rjmp .L33
 278:util.c        **** 			if( twave > speed_rec1 ) { up1 = 0; twave = speed_rec1 - (twave-speed_rec1); } //I hope this is 
 790               	.LM84:
 791 0352 8091 0000 		lds r24,speed1
 792 0356 280F      		add r18,r24
 793 0358 311D      		adc r19,__zero_reg__
 279:util.c        **** 		}
 795               	.LM85:
 796 035a 8091 0000 		lds r24,speed_rec1
 797 035e 8217      		cp r24,r18
 798 0360 1306      		cpc __zero_reg__,r19
 799 0362 04F4      		brge .L34
 279:util.c        **** 		}
 801               	.LM86:
 802 0364 1092 0000 		sts up1.1870,__zero_reg__
 803 0368 4091 0000 		lds r20,speed_rec1
 804 036c 8091 0000 		lds r24,speed_rec1
 805 0370 281B      		sub r18,r24
 806 0372 3109      		sbc r19,__zero_reg__
 807 0374 50E0      		ldi r21,0
 808 0376 CA01      		movw r24,r20
 809 0378 821B      		sub r24,r18
 810 037a 930B      		sbc r25,r19
 811 037c 9C01      		movw r18,r24
 812               	.L34:
 286:util.c        **** 		wave = ((wave1*volume)>>8)+((wave0*volume)>>8);
 814               	.LM87:
 815 037e 2093 0000 		sts wave1,r18
 287:util.c        **** 		return 1;
 817               	.LM88:
GAS LISTING /tmp/ccEQRkCa.s 			page 19


 818 0382 3091 0000 		lds r19,volume
 819 0386 4091 0000 		lds r20,volume
 820 038a 2303      		mulsu r18,r19
 821 038c 9001      		movw r18,r0
 822 038e 1124      		clr __zero_reg__
 823 0390 6403      		mulsu r22,r20
 824 0392 A001      		movw r20,r0
 825 0394 1124      		clr __zero_reg__
 826 0396 852F      		mov r24,r21
 827 0398 830F      		add r24,r19
 828 039a 8093 0000 		sts wave,r24
 829               	.L35:
 294:util.c        **** 	}
 831               	.LM89:
 832 039e 81E0      		ldi r24,lo8(1)
 833               	/* epilogue start */
 296:util.c        **** 
 835               	.LM90:
 836 03a0 0895      		ret
 837               	.L30:
 268:util.c        **** 		if( twave < -speed_rec ) { up = 1; twave = -speed_rec - (twave+speed_rec); } //I hope this is rig
 839               	.LM91:
 840 03a2 8091 0000 		lds r24,speed
 841 03a6 281B      		sub r18,r24
 842 03a8 3109      		sbc r19,__zero_reg__
 269:util.c        **** 	}
 844               	.LM92:
 845 03aa 8091 0000 		lds r24,speed_rec
 846 03ae 90E0      		ldi r25,0
 847 03b0 9195      		neg r25
 848 03b2 8195      		neg r24
 849 03b4 9109      		sbc r25,__zero_reg__
 850 03b6 2817      		cp r18,r24
 851 03b8 3907      		cpc r19,r25
 852 03ba 04F0      		brlt .+2
 853 03bc 00C0      		rjmp .L31
 269:util.c        **** 	}
 855               	.LM93:
 856 03be 81E0      		ldi r24,lo8(1)
 857 03c0 8093 0000 		sts up.1869,r24
 858 03c4 4091 0000 		lds r20,speed_rec
 859 03c8 8091 0000 		lds r24,speed_rec
 860 03cc 820F      		add r24,r18
 861 03ce 932F      		mov r25,r19
 862 03d0 911D      		adc r25,__zero_reg__
 863 03d2 242F      		mov r18,r20
 864 03d4 30E0      		ldi r19,0
 865 03d6 3195      		neg r19
 866 03d8 2195      		neg r18
 867 03da 3109      		sbc r19,__zero_reg__
 868 03dc 281B      		sub r18,r24
 869 03de 390B      		sbc r19,r25
 870 03e0 00C0      		rjmp .L31
 871               	.L33:
 283:util.c        **** 			if( twave < -speed_rec1 ) { up1 = 1; twave = -speed_rec1 - (twave+speed_rec1); } //I hope this i
 873               	.LM94:
 874 03e2 8091 0000 		lds r24,speed1
GAS LISTING /tmp/ccEQRkCa.s 			page 20


 875 03e6 281B      		sub r18,r24
 876 03e8 3109      		sbc r19,__zero_reg__
 284:util.c        **** 		}
 878               	.LM95:
 879 03ea 8091 0000 		lds r24,speed_rec1
 880 03ee 90E0      		ldi r25,0
 881 03f0 9195      		neg r25
 882 03f2 8195      		neg r24
 883 03f4 9109      		sbc r25,__zero_reg__
 884 03f6 2817      		cp r18,r24
 885 03f8 3907      		cpc r19,r25
 886 03fa 04F4      		brge .L34
 284:util.c        **** 		}
 888               	.LM96:
 889 03fc 81E0      		ldi r24,lo8(1)
 890 03fe 8093 0000 		sts up1.1870,r24
 891 0402 9091 0000 		lds r25,speed_rec1
 892 0406 4091 0000 		lds r20,speed_rec1
 893 040a 420F      		add r20,r18
 894 040c 532F      		mov r21,r19
 895 040e 511D      		adc r21,__zero_reg__
 896 0410 292F      		mov r18,r25
 897 0412 30E0      		ldi r19,0
 898 0414 3195      		neg r19
 899 0416 2195      		neg r18
 900 0418 3109      		sbc r19,__zero_reg__
 901 041a 241B      		sub r18,r20
 902 041c 350B      		sbc r19,r21
 903 041e 00C0      		rjmp .L34
 904               	.L32:
 292:util.c        **** 		wave1 = 0;
 906               	.LM97:
 907 0420 3091 0000 		lds r19,volume
 908 0424 2303      		mulsu r18,r19
 909 0426 9001      		movw r18,r0
 910 0428 1124      		clr __zero_reg__
 911 042a 3093 0000 		sts wave,r19
 293:util.c        **** 		return 1;
 913               	.LM98:
 914 042e 1092 0000 		sts wave1,__zero_reg__
 915 0432 00C0      		rjmp .L35
 921               	.Lscope8:
 923               		.stabd	78,0,0
 925               	.global	voiceTunedNoise
 927               	voiceTunedNoise:
 928               		.stabd	46,0,0
 299:util.c        ****   static uint8_t mark_s, mark_s1;
 930               	.LM99:
 931               	.LFBB9:
 932               	/* prologue: function */
 933               	/* frame size = 0 */
 934               	/* stack size = 0 */
 935               	.L__stack_usage = 0
 302:util.c        ****   
 937               	.LM100:
 938 0434 8091 0000 		lds r24,mark_s.1873
 939 0438 8F5F      		subi r24,lo8(-(1))
GAS LISTING /tmp/ccEQRkCa.s 			page 21


 940 043a 8093 0000 		sts mark_s.1873,r24
 304:util.c        ****     wave = (((int8_t)GetRandom()) * volume) >> 8;
 942               	.LM101:
 943 043e 9091 0000 		lds r25,speed
 944 0442 8913      		cpse r24,r25
 945 0444 00C0      		rjmp .L37
 305:util.c        ****     mark_s = 0;
 947               	.LM102:
 948 0446 0E94 0000 		call GetRandom
 949 044a 2091 0000 		lds r18,volume
 950 044e 382F      		mov r19,r24
 951 0450 3203      		mulsu r19,r18
 952 0452 C001      		movw r24,r0
 953 0454 1124      		clr __zero_reg__
 954 0456 9093 0000 		sts wave,r25
 306:util.c        ****   }
 956               	.LM103:
 957 045a 1092 0000 		sts mark_s.1873,__zero_reg__
 958               	.L37:
 310:util.c        **** 
 960               	.LM104:
 961 045e 81E0      		ldi r24,lo8(1)
 962               	/* epilogue start */
 963 0460 0895      		ret
 968               	.Lscope9:
 970               		.stabd	78,0,0
 972               	.global	voiceDrums
 974               	voiceDrums:
 975               		.stabd	46,0,0
 313:util.c        ****   static uint8_t drum_s;
 977               	.LM105:
 978               	.LFBB10:
 979 0462 0F93      		push r16
 980 0464 1F93      		push r17
 981 0466 CF93      		push r28
 982               	/* prologue: function */
 983               	/* frame size = 0 */
 984               	/* stack size = 3 */
 985               	.L__stack_usage = 3
 318:util.c        ****   drum_f++;
 987               	.LM106:
 988 0468 8091 0000 		lds r24,drum_s.1877
 989 046c 8F5F      		subi r24,lo8(-(1))
 990 046e 8093 0000 		sts drum_s.1877,r24
 319:util.c        **** 
 992               	.LM107:
 993 0472 C091 0000 		lds r28,drum_f.1878
 994 0476 CF5F      		subi r28,lo8(-(1))
 995 0478 C093 0000 		sts drum_f.1878,r28
 321:util.c        ****     wave = (((int8_t)GetRandom()) * volume) >> 8;
 997               	.LM108:
 998 047c 9091 0000 		lds r25,speed
 999 0480 8913      		cpse r24,r25
 1000 0482 00C0      		rjmp .L39
 1001 0484 0091 0000 		lds r16,ticks.1879
 1002 0488 1091 0000 		lds r17,ticks.1879+1
 322:util.c        ****     drum_s = 0;
GAS LISTING /tmp/ccEQRkCa.s 			page 22


 1004               	.LM109:
 1005 048c 0E94 0000 		call GetRandom
 1006 0490 2091 0000 		lds r18,volume
 1007 0494 382F      		mov r19,r24
 1008 0496 3203      		mulsu r19,r18
 1009 0498 C001      		movw r24,r0
 1010 049a 1124      		clr __zero_reg__
 1011 049c 9093 0000 		sts wave,r25
 323:util.c        ****     ticks++;
 1013               	.LM110:
 1014 04a0 1092 0000 		sts drum_s.1877,__zero_reg__
 324:util.c        ****   }
 1016               	.LM111:
 1017 04a4 0F5F      		subi r16,-1
 1018 04a6 1F4F      		sbci r17,-1
 1019 04a8 1093 0000 		sts ticks.1879+1,r17
 1020 04ac 0093 0000 		sts ticks.1879,r16
 1021               	.L39:
 327:util.c        ****     if (drum_f == fade_out_mode) {
 1023               	.LM112:
 1024 04b0 8091 0000 		lds r24,fade_out
 1025 04b4 9091 0000 		lds r25,fade_out+1
 1026 04b8 2091 0000 		lds r18,ticks.1879
 1027 04bc 3091 0000 		lds r19,ticks.1879+1
 1028 04c0 8217      		cp r24,r18
 1029 04c2 9307      		cpc r25,r19
 1030 04c4 00F4      		brsh .L40
 328:util.c        ****       drum_f = 0;
 1032               	.LM113:
 1033 04c6 8091 0000 		lds r24,fade_out_mode
 1034 04ca C813      		cpse r28,r24
 1035 04cc 00C0      		rjmp .L40
 329:util.c        ****       volume--;
 1037               	.LM114:
 1038 04ce 1092 0000 		sts drum_f.1878,__zero_reg__
 330:util.c        ****     }
 1040               	.LM115:
 1041 04d2 8091 0000 		lds r24,volume
 1042 04d6 8150      		subi r24,lo8(-(-1))
 1043 04d8 8093 0000 		sts volume,r24
 1044               	.L40:
 334:util.c        ****     ticks = 0;
 1046               	.LM116:
 1047 04dc 8091 0000 		lds r24,volume
 1048 04e0 8111      		cpse r24,__zero_reg__
 1049 04e2 00C0      		rjmp .L42
 335:util.c        ****     drum_s = 0;
 1051               	.LM117:
 1052 04e4 1092 0000 		sts ticks.1879+1,__zero_reg__
 1053 04e8 1092 0000 		sts ticks.1879,__zero_reg__
 336:util.c        ****     drum_f = 0;
 1055               	.LM118:
 1056 04ec 1092 0000 		sts drum_s.1877,__zero_reg__
 337:util.c        ****     return 0;
 1058               	.LM119:
 1059 04f0 1092 0000 		sts drum_f.1878,__zero_reg__
 1060               	.L38:
GAS LISTING /tmp/ccEQRkCa.s 			page 23


 1061               	/* epilogue start */
 342:util.c        **** 
 1063               	.LM120:
 1064 04f4 CF91      		pop r28
 1065 04f6 1F91      		pop r17
 1066 04f8 0F91      		pop r16
 1067 04fa 0895      		ret
 1068               	.L42:
 341:util.c        **** }
 1070               	.LM121:
 1071 04fc 81E0      		ldi r24,lo8(1)
 1072 04fe 00C0      		rjmp .L38
 1079               	.Lscope10:
 1081               		.stabd	78,0,0
 1083               	.global	voiceNoise
 1085               	voiceNoise:
 1086               		.stabd	46,0,0
 348:util.c        **** 
 349:util.c        **** uint8_t voiceNoise()
 350:util.c        **** {
 1088               	.LM122:
 1089               	.LFBB11:
 1090               	/* prologue: function */
 1091               	/* frame size = 0 */
 1092               	/* stack size = 0 */
 1093               	.L__stack_usage = 0
 351:util.c        **** 	static uint8_t speedmark;
 352:util.c        **** 	speedmark++;
 1095               	.LM123:
 1096 0500 8091 0000 		lds r24,speedmark.1884
 1097 0504 8F5F      		subi r24,lo8(-(1))
 1098 0506 8093 0000 		sts speedmark.1884,r24
 353:util.c        **** 
 354:util.c        **** 	if( speedmark == speed )
 1100               	.LM124:
 1101 050a 9091 0000 		lds r25,speed
 1102 050e 8913      		cpse r24,r25
 1103 0510 00C0      		rjmp .L44
 355:util.c        **** 	{
 356:util.c        **** 		wave = (((int8_t)GetRandom()) * volume)>>8;
 1105               	.LM125:
 1106 0512 0E94 0000 		call GetRandom
 1107 0516 2091 0000 		lds r18,volume
 1108 051a 382F      		mov r19,r24
 1109 051c 3203      		mulsu r19,r18
 1110 051e C001      		movw r24,r0
 1111 0520 1124      		clr __zero_reg__
 1112 0522 9093 0000 		sts wave,r25
 357:util.c        **** 		speedmark = 0;
 1114               	.LM126:
 1115 0526 1092 0000 		sts speedmark.1884,__zero_reg__
 1116               	.L44:
 358:util.c        **** 	}
 359:util.c        **** 	return 1;
 360:util.c        **** }
 1118               	.LM127:
 1119 052a 81E0      		ldi r24,lo8(1)
GAS LISTING /tmp/ccEQRkCa.s 			page 24


 1120               	/* epilogue start */
 1121 052c 0895      		ret
 1126               	.Lscope11:
 1128               		.stabd	78,0,0
 1130               	.global	ReadButtonMask
 1132               	ReadButtonMask:
 1133               		.stabd	46,0,0
 361:util.c        **** 
 362:util.c        **** uint16_t ReadButtonMask()
 363:util.c        **** {
 1135               	.LM128:
 1136               	.LFBB12:
 1137               	/* prologue: function */
 1138               	/* frame size = 0 */
 1139               	/* stack size = 0 */
 1140               	.L__stack_usage = 0
 364:util.c        **** 	uint16_t ret = 0;
 365:util.c        **** 	if( BUTTON0DOWN ) ret |= _BV(0);
 1142               	.LM129:
 1143 052e 26B1      		in r18,0x6
 1144 0530 2295      		swap r18
 1145 0532 2695      		lsr r18
 1146 0534 2770      		andi r18,lo8(7)
 1147 0536 31E0      		ldi r19,lo8(1)
 1148 0538 2327      		eor r18,r19
 364:util.c        **** 	uint16_t ret = 0;
 1150               	.LM130:
 1151 053a 822F      		mov r24,r18
 1152 053c 8170      		andi r24,1
 1153 053e 90E0      		ldi r25,0
 366:util.c        **** 	if( BUTTON1DOWN ) ret |= _BV(1);
 1155               	.LM131:
 1156 0540 4A9B      		sbis 0x9,2
 1158               	.LM132:
 1159 0542 8260      		ori r24,2
 1160               	.L46:
 367:util.c        **** 	if( BUTTON2DOWN ) ret |= _BV(2);
 1162               	.LM133:
 1163 0544 4C9B      		sbis 0x9,4
 1165               	.LM134:
 1166 0546 8460      		ori r24,4
 1167               	.L47:
 368:util.c        **** 	if( BUTTON3DOWN ) ret |= _BV(3);
 1169               	.LM135:
 1170 0548 619B      		sbis 0xc,1
 1172               	.LM136:
 1173 054a 8860      		ori r24,8
 1174               	.L48:
 369:util.c        **** 	if( BUTTON4DOWN ) ret |= _BV(4);
 1176               	.LM137:
 1177 054c 4F9B      		sbis 0x9,7
 1179               	.LM138:
 1180 054e 8061      		ori r24,16
 1181               	.L49:
 370:util.c        **** 	if( BUTTON5DOWN ) ret |= _BV(5);
 1183               	.LM139:
 1184 0550 189B      		sbis 0x3,0
GAS LISTING /tmp/ccEQRkCa.s 			page 25


 1186               	.LM140:
 1187 0552 8062      		ori r24,32
 1188               	.L50:
 371:util.c        **** 	if( BUTTON6DOWN ) ret |= _BV(6);
 1190               	.LM141:
 1191 0554 199B      		sbis 0x3,1
 1193               	.LM142:
 1194 0556 8064      		ori r24,64
 1195               	.L51:
 372:util.c        **** 	if( BUTTON7DOWN ) ret |= _BV(7);
 1197               	.LM143:
 1198 0558 1C9B      		sbis 0x3,4
 1200               	.LM144:
 1201 055a 8068      		ori r24,128
 1202               	.L52:
 373:util.c        **** 	if( BUTTON8DOWN ) ret |= _BV(8);
 1204               	.LM145:
 1205 055c 629B      		sbis 0xc,2
 1207               	.LM146:
 1208 055e 9160      		ori r25,1
 1209               	.L53:
 374:util.c        **** 	if( BUTTON9DOWN ) ret |= _BV(9);
 1211               	.LM147:
 1212 0560 639B      		sbis 0xc,3
 1214               	.LM148:
 1215 0562 9260      		ori r25,2
 1216               	.L54:
 375:util.c        **** 	if( BUTTON10DOWN ) ret |= _BV(10);
 1218               	.LM149:
 1219 0564 329B      		sbis 0x6,2
 1221               	.LM150:
 1222 0566 9460      		ori r25,4
 1223               	.L55:
 376:util.c        **** 	if( BUTTON11DOWN ) ret |= _BV(11);
 1225               	.LM151:
 1226 0568 339B      		sbis 0x6,3
 1228               	.LM152:
 1229 056a 9860      		ori r25,8
 1230               	.L56:
 377:util.c        **** 	if( BUTTON12DOWN ) ret |= _BV(12);
 1232               	.LM153:
 1233 056c 349B      		sbis 0x6,4
 1235               	.LM154:
 1236 056e 9061      		ori r25,16
 1237               	.L45:
 1238               	/* epilogue start */
 378:util.c        **** 	return ret;
 379:util.c        **** }
 1240               	.LM155:
 1241 0570 0895      		ret
 1246               	.Lscope12:
 1248               		.stabd	78,0,0
 1249               		.local	speedmark.1884
 1250               		.comm	speedmark.1884,1,1
 1252               		.local	ticks.1879
 1253               		.comm	ticks.1879,2,1
 1255               		.local	drum_f.1878
GAS LISTING /tmp/ccEQRkCa.s 			page 26


 1256               		.comm	drum_f.1878,1,1
 1258               		.local	drum_s.1877
 1259               		.comm	drum_s.1877,1,1
 1261               		.local	mark_s.1873
 1262               		.comm	mark_s.1873,1,1
 1264               		.local	up1.1870
 1265               		.comm	up1.1870,1,1
 1267               		.local	up.1869
 1268               		.comm	up.1869,1,1
 1270               	.global	aud1dat
 1271               		.section	.progmem.data,"a",@progbits
 1274               	aud1dat:
 1275 0000 00        		.byte	0
 1276 0001 00        		.byte	0
 1277 0002 FF        		.byte	-1
 1278 0003 00        		.byte	0
 1279 0004 00        		.byte	0
 1280 0005 00        		.byte	0
 1281 0006 00        		.byte	0
 1282 0007 00        		.byte	0
 1283 0008 00        		.byte	0
 1284 0009 00        		.byte	0
 1285 000a 00        		.byte	0
 1286 000b 00        		.byte	0
 1287 000c 00        		.byte	0
 1288 000d FF        		.byte	-1
 1289 000e 00        		.byte	0
 1290 000f 00        		.byte	0
 1291 0010 00        		.byte	0
 1292 0011 00        		.byte	0
 1293 0012 00        		.byte	0
 1294 0013 00        		.byte	0
 1295 0014 FF        		.byte	-1
 1296 0015 FF        		.byte	-1
 1297 0016 FF        		.byte	-1
 1298 0017 FF        		.byte	-1
 1299 0018 FF        		.byte	-1
 1300 0019 FF        		.byte	-1
 1301 001a FF        		.byte	-1
 1302 001b FF        		.byte	-1
 1303 001c FF        		.byte	-1
 1304 001d FF        		.byte	-1
 1305 001e FF        		.byte	-1
 1306 001f FF        		.byte	-1
 1307 0020 FF        		.byte	-1
 1308 0021 FF        		.byte	-1
 1309 0022 00        		.byte	0
 1310 0023 FF        		.byte	-1
 1311 0024 FF        		.byte	-1
 1312 0025 00        		.byte	0
 1313 0026 00        		.byte	0
 1314 0027 00        		.byte	0
 1315 0028 00        		.byte	0
 1316 0029 00        		.byte	0
 1317 002a 00        		.byte	0
 1318 002b 00        		.byte	0
 1319 002c 00        		.byte	0
GAS LISTING /tmp/ccEQRkCa.s 			page 27


 1320 002d FF        		.byte	-1
 1321 002e FF        		.byte	-1
 1322 002f FF        		.byte	-1
 1323 0030 FF        		.byte	-1
 1324 0031 00        		.byte	0
 1325 0032 FF        		.byte	-1
 1326 0033 00        		.byte	0
 1327 0034 FF        		.byte	-1
 1328 0035 FF        		.byte	-1
 1329 0036 00        		.byte	0
 1330 0037 00        		.byte	0
 1331 0038 00        		.byte	0
 1332 0039 00        		.byte	0
 1333 003a 00        		.byte	0
 1334 003b 00        		.byte	0
 1335 003c 00        		.byte	0
 1336 003d 00        		.byte	0
 1337 003e FF        		.byte	-1
 1338 003f FF        		.byte	-1
 1339 0040 00        		.byte	0
 1340 0041 00        		.byte	0
 1341 0042 FF        		.byte	-1
 1342 0043 00        		.byte	0
 1343 0044 00        		.byte	0
 1344 0045 FF        		.byte	-1
 1345 0046 00        		.byte	0
 1346 0047 FF        		.byte	-1
 1347 0048 FF        		.byte	-1
 1348 0049 00        		.byte	0
 1349 004a 00        		.byte	0
 1350 004b 00        		.byte	0
 1351 004c 00        		.byte	0
 1352 004d 00        		.byte	0
 1353 004e 00        		.byte	0
 1354 004f 00        		.byte	0
 1355 0050 00        		.byte	0
 1356 0051 01        		.byte	1
 1357 0052 01        		.byte	1
 1358 0053 01        		.byte	1
 1359 0054 00        		.byte	0
 1360 0055 00        		.byte	0
 1361 0056 00        		.byte	0
 1362 0057 00        		.byte	0
 1363 0058 00        		.byte	0
 1364 0059 01        		.byte	1
 1365 005a 00        		.byte	0
 1366 005b 01        		.byte	1
 1367 005c 01        		.byte	1
 1368 005d 00        		.byte	0
 1369 005e 00        		.byte	0
 1370 005f 00        		.byte	0
 1371 0060 00        		.byte	0
 1372 0061 00        		.byte	0
 1373 0062 00        		.byte	0
 1374 0063 00        		.byte	0
 1375 0064 00        		.byte	0
 1376 0065 00        		.byte	0
GAS LISTING /tmp/ccEQRkCa.s 			page 28


 1377 0066 00        		.byte	0
 1378 0067 00        		.byte	0
 1379 0068 00        		.byte	0
 1380 0069 00        		.byte	0
 1381 006a 00        		.byte	0
 1382 006b FF        		.byte	-1
 1383 006c FF        		.byte	-1
 1384 006d 00        		.byte	0
 1385 006e 00        		.byte	0
 1386 006f 00        		.byte	0
 1387 0070 FF        		.byte	-1
 1388 0071 FF        		.byte	-1
 1389 0072 00        		.byte	0
 1390 0073 FF        		.byte	-1
 1391 0074 FF        		.byte	-1
 1392 0075 FF        		.byte	-1
 1393 0076 00        		.byte	0
 1394 0077 00        		.byte	0
 1395 0078 00        		.byte	0
 1396 0079 FF        		.byte	-1
 1397 007a 00        		.byte	0
 1398 007b 00        		.byte	0
 1399 007c 00        		.byte	0
 1400 007d 00        		.byte	0
 1401 007e 00        		.byte	0
 1402 007f 00        		.byte	0
 1403 0080 00        		.byte	0
 1404 0081 00        		.byte	0
 1405 0082 FF        		.byte	-1
 1406 0083 00        		.byte	0
 1407 0084 00        		.byte	0
 1408 0085 00        		.byte	0
 1409 0086 00        		.byte	0
 1410 0087 00        		.byte	0
 1411 0088 00        		.byte	0
 1412 0089 00        		.byte	0
 1413 008a FF        		.byte	-1
 1414 008b 00        		.byte	0
 1415 008c 00        		.byte	0
 1416 008d 00        		.byte	0
 1417 008e 00        		.byte	0
 1418 008f FF        		.byte	-1
 1419 0090 00        		.byte	0
 1420 0091 FF        		.byte	-1
 1421 0092 FF        		.byte	-1
 1422 0093 00        		.byte	0
 1423 0094 00        		.byte	0
 1424 0095 00        		.byte	0
 1425 0096 00        		.byte	0
 1426 0097 00        		.byte	0
 1427 0098 00        		.byte	0
 1428 0099 00        		.byte	0
 1429 009a 01        		.byte	1
 1430 009b 01        		.byte	1
 1431 009c 00        		.byte	0
 1432 009d 00        		.byte	0
 1433 009e 00        		.byte	0
GAS LISTING /tmp/ccEQRkCa.s 			page 29


 1434 009f 00        		.byte	0
 1435 00a0 00        		.byte	0
 1436 00a1 FF        		.byte	-1
 1437 00a2 FF        		.byte	-1
 1438 00a3 FF        		.byte	-1
 1439 00a4 FF        		.byte	-1
 1440 00a5 FF        		.byte	-1
 1441 00a6 FF        		.byte	-1
 1442 00a7 00        		.byte	0
 1443 00a8 00        		.byte	0
 1444 00a9 00        		.byte	0
 1445 00aa 00        		.byte	0
 1446 00ab 00        		.byte	0
 1447 00ac FF        		.byte	-1
 1448 00ad 00        		.byte	0
 1449 00ae FF        		.byte	-1
 1450 00af FF        		.byte	-1
 1451 00b0 FF        		.byte	-1
 1452 00b1 FF        		.byte	-1
 1453 00b2 FF        		.byte	-1
 1454 00b3 FE        		.byte	-2
 1455 00b4 FF        		.byte	-1
 1456 00b5 00        		.byte	0
 1457 00b6 FE        		.byte	-2
 1458 00b7 FF        		.byte	-1
 1459 00b8 00        		.byte	0
 1460 00b9 FE        		.byte	-2
 1461 00ba FF        		.byte	-1
 1462 00bb FF        		.byte	-1
 1463 00bc FE        		.byte	-2
 1464 00bd FF        		.byte	-1
 1465 00be FF        		.byte	-1
 1466 00bf FE        		.byte	-2
 1467 00c0 FF        		.byte	-1
 1468 00c1 FF        		.byte	-1
 1469 00c2 FF        		.byte	-1
 1470 00c3 FF        		.byte	-1
 1471 00c4 01        		.byte	1
 1472 00c5 01        		.byte	1
 1473 00c6 FF        		.byte	-1
 1474 00c7 01        		.byte	1
 1475 00c8 02        		.byte	2
 1476 00c9 01        		.byte	1
 1477 00ca 02        		.byte	2
 1478 00cb 01        		.byte	1
 1479 00cc 01        		.byte	1
 1480 00cd 01        		.byte	1
 1481 00ce 01        		.byte	1
 1482 00cf 01        		.byte	1
 1483 00d0 00        		.byte	0
 1484 00d1 00        		.byte	0
 1485 00d2 01        		.byte	1
 1486 00d3 00        		.byte	0
 1487 00d4 FF        		.byte	-1
 1488 00d5 00        		.byte	0
 1489 00d6 FF        		.byte	-1
 1490 00d7 FF        		.byte	-1
GAS LISTING /tmp/ccEQRkCa.s 			page 30


 1491 00d8 FF        		.byte	-1
 1492 00d9 00        		.byte	0
 1493 00da 00        		.byte	0
 1494 00db FF        		.byte	-1
 1495 00dc 00        		.byte	0
 1496 00dd 01        		.byte	1
 1497 00de 01        		.byte	1
 1498 00df 01        		.byte	1
 1499 00e0 01        		.byte	1
 1500 00e1 01        		.byte	1
 1501 00e2 01        		.byte	1
 1502 00e3 01        		.byte	1
 1503 00e4 02        		.byte	2
 1504 00e5 02        		.byte	2
 1505 00e6 02        		.byte	2
 1506 00e7 03        		.byte	3
 1507 00e8 02        		.byte	2
 1508 00e9 04        		.byte	4
 1509 00ea 05        		.byte	5
 1510 00eb 04        		.byte	4
 1511 00ec 05        		.byte	5
 1512 00ed 05        		.byte	5
 1513 00ee 06        		.byte	6
 1514 00ef 07        		.byte	7
 1515 00f0 07        		.byte	7
 1516 00f1 06        		.byte	6
 1517 00f2 05        		.byte	5
 1518 00f3 05        		.byte	5
 1519 00f4 05        		.byte	5
 1520 00f5 05        		.byte	5
 1521 00f6 04        		.byte	4
 1522 00f7 04        		.byte	4
 1523 00f8 04        		.byte	4
 1524 00f9 03        		.byte	3
 1525 00fa 03        		.byte	3
 1526 00fb 02        		.byte	2
 1527 00fc 00        		.byte	0
 1528 00fd FF        		.byte	-1
 1529 00fe FE        		.byte	-2
 1530 00ff FC        		.byte	-4
 1531 0100 FC        		.byte	-4
 1532 0101 FC        		.byte	-4
 1533 0102 FA        		.byte	-6
 1534 0103 F8        		.byte	-8
 1535 0104 F7        		.byte	-9
 1536 0105 F5        		.byte	-11
 1537 0106 F2        		.byte	-14
 1538 0107 F1        		.byte	-15
 1539 0108 EF        		.byte	-17
 1540 0109 EC        		.byte	-20
 1541 010a EA        		.byte	-22
 1542 010b E8        		.byte	-24
 1543 010c E5        		.byte	-27
 1544 010d E2        		.byte	-30
 1545 010e DF        		.byte	-33
 1546 010f DE        		.byte	-34
 1547 0110 DE        		.byte	-34
GAS LISTING /tmp/ccEQRkCa.s 			page 31


 1548 0111 DE        		.byte	-34
 1549 0112 E0        		.byte	-32
 1550 0113 E2        		.byte	-30
 1551 0114 E4        		.byte	-28
 1552 0115 E8        		.byte	-24
 1553 0116 EC        		.byte	-20
 1554 0117 F0        		.byte	-16
 1555 0118 F3        		.byte	-13
 1556 0119 F6        		.byte	-10
 1557 011a F9        		.byte	-7
 1558 011b FB        		.byte	-5
 1559 011c FD        		.byte	-3
 1560 011d 00        		.byte	0
 1561 011e 02        		.byte	2
 1562 011f 04        		.byte	4
 1563 0120 07        		.byte	7
 1564 0121 09        		.byte	9
 1565 0122 0C        		.byte	12
 1566 0123 0E        		.byte	14
 1567 0124 10        		.byte	16
 1568 0125 13        		.byte	19
 1569 0126 15        		.byte	21
 1570 0127 18        		.byte	24
 1571 0128 1A        		.byte	26
 1572 0129 1E        		.byte	30
 1573 012a 22        		.byte	34
 1574 012b 23        		.byte	35
 1575 012c 24        		.byte	36
 1576 012d 24        		.byte	36
 1577 012e 23        		.byte	35
 1578 012f 20        		.byte	32
 1579 0130 1D        		.byte	29
 1580 0131 19        		.byte	25
 1581 0132 16        		.byte	22
 1582 0133 10        		.byte	16
 1583 0134 0C        		.byte	12
 1584 0135 06        		.byte	6
 1585 0136 02        		.byte	2
 1586 0137 FF        		.byte	-1
 1587 0138 F9        		.byte	-7
 1588 0139 F3        		.byte	-13
 1589 013a EF        		.byte	-17
 1590 013b EB        		.byte	-21
 1591 013c E7        		.byte	-25
 1592 013d E2        		.byte	-30
 1593 013e E0        		.byte	-32
 1594 013f DD        		.byte	-35
 1595 0140 DA        		.byte	-38
 1596 0141 DA        		.byte	-38
 1597 0142 DA        		.byte	-38
 1598 0143 DC        		.byte	-36
 1599 0144 E0        		.byte	-32
 1600 0145 E3        		.byte	-29
 1601 0146 E8        		.byte	-24
 1602 0147 EC        		.byte	-20
 1603 0148 F0        		.byte	-16
 1604 0149 F5        		.byte	-11
GAS LISTING /tmp/ccEQRkCa.s 			page 32


 1605 014a F8        		.byte	-8
 1606 014b FD        		.byte	-3
 1607 014c 00        		.byte	0
 1608 014d 02        		.byte	2
 1609 014e 05        		.byte	5
 1610 014f 06        		.byte	6
 1611 0150 05        		.byte	5
 1612 0151 06        		.byte	6
 1613 0152 07        		.byte	7
 1614 0153 05        		.byte	5
 1615 0154 05        		.byte	5
 1616 0155 04        		.byte	4
 1617 0156 01        		.byte	1
 1618 0157 00        		.byte	0
 1619 0158 FE        		.byte	-2
 1620 0159 FB        		.byte	-5
 1621 015a F9        		.byte	-7
 1622 015b F8        		.byte	-8
 1623 015c F6        		.byte	-10
 1624 015d FA        		.byte	-6
 1625 015e FE        		.byte	-2
 1626 015f 00        		.byte	0
 1627 0160 03        		.byte	3
 1628 0161 05        		.byte	5
 1629 0162 09        		.byte	9
 1630 0163 0F        		.byte	15
 1631 0164 13        		.byte	19
 1632 0165 16        		.byte	22
 1633 0166 1A        		.byte	26
 1634 0167 1D        		.byte	29
 1635 0168 1F        		.byte	31
 1636 0169 20        		.byte	32
 1637 016a 21        		.byte	33
 1638 016b 1F        		.byte	31
 1639 016c 1C        		.byte	28
 1640 016d 1E        		.byte	30
 1641 016e 1E        		.byte	30
 1642 016f 1C        		.byte	28
 1643 0170 10        		.byte	16
 1644 0171 FB        		.byte	-5
 1645 0172 F2        		.byte	-14
 1646 0173 EF        		.byte	-17
 1647 0174 E6        		.byte	-26
 1648 0175 E1        		.byte	-31
 1649 0176 DF        		.byte	-33
 1650 0177 DA        		.byte	-38
 1651 0178 DE        		.byte	-34
 1652 0179 EA        		.byte	-22
 1653 017a F5        		.byte	-11
 1654 017b F8        		.byte	-8
 1655 017c FA        		.byte	-6
 1656 017d 00        		.byte	0
 1657 017e 03        		.byte	3
 1658 017f 03        		.byte	3
 1659 0180 05        		.byte	5
 1660 0181 FC        		.byte	-4
 1661 0182 F1        		.byte	-15
GAS LISTING /tmp/ccEQRkCa.s 			page 33


 1662 0183 EC        		.byte	-20
 1663 0184 E7        		.byte	-25
 1664 0185 DE        		.byte	-34
 1665 0186 D6        		.byte	-42
 1666 0187 D4        		.byte	-44
 1667 0188 D3        		.byte	-45
 1668 0189 D4        		.byte	-44
 1669 018a DE        		.byte	-34
 1670 018b E2        		.byte	-30
 1671 018c E0        		.byte	-32
 1672 018d E5        		.byte	-27
 1673 018e EE        		.byte	-18
 1674 018f F1        		.byte	-15
 1675 0190 F3        		.byte	-13
 1676 0191 F6        		.byte	-10
 1677 0192 F5        		.byte	-11
 1678 0193 F3        		.byte	-13
 1679 0194 F9        		.byte	-7
 1680 0195 FC        		.byte	-4
 1681 0196 F9        		.byte	-7
 1682 0197 FB        		.byte	-5
 1683 0198 02        		.byte	2
 1684 0199 09        		.byte	9
 1685 019a 11        		.byte	17
 1686 019b 1D        		.byte	29
 1687 019c 28        		.byte	40
 1688 019d 31        		.byte	49
 1689 019e 40        		.byte	64
 1690 019f 51        		.byte	81
 1691 01a0 58        		.byte	88
 1692 01a1 66        		.byte	102
 1693 01a2 74        		.byte	116
 1694 01a3 79        		.byte	121
 1695 01a4 7F        		.byte	127
 1696 01a5 7F        		.byte	127
 1697 01a6 7F        		.byte	127
 1698 01a7 7D        		.byte	125
 1699 01a8 43        		.byte	67
 1700 01a9 F3        		.byte	-13
 1701 01aa EF        		.byte	-17
 1702 01ab E9        		.byte	-23
 1703 01ac BF        		.byte	-65
 1704 01ad BD        		.byte	-67
 1705 01ae A8        		.byte	-88
 1706 01af 9E        		.byte	-98
 1707 01b0 CD        		.byte	-51
 1708 01b1 01        		.byte	1
 1709 01b2 22        		.byte	34
 1710 01b3 23        		.byte	35
 1711 01b4 26        		.byte	38
 1712 01b5 39        		.byte	57
 1713 01b6 36        		.byte	54
 1714 01b7 34        		.byte	52
 1715 01b8 28        		.byte	40
 1716 01b9 E8        		.byte	-24
 1717 01ba BB        		.byte	-69
 1718 01bb B7        		.byte	-73
GAS LISTING /tmp/ccEQRkCa.s 			page 34


 1719 01bc B3        		.byte	-77
 1720 01bd B2        		.byte	-78
 1721 01be AF        		.byte	-81
 1722 01bf B5        		.byte	-75
 1723 01c0 C4        		.byte	-60
 1724 01c1 E4        		.byte	-28
 1725 01c2 1B        		.byte	27
 1726 01c3 33        		.byte	51
 1727 01c4 2C        		.byte	44
 1728 01c5 2D        		.byte	45
 1729 01c6 29        		.byte	41
 1730 01c7 21        		.byte	33
 1731 01c8 1A        		.byte	26
 1732 01c9 02        		.byte	2
 1733 01ca DC        		.byte	-36
 1734 01cb BA        		.byte	-70
 1735 01cc B6        		.byte	-74
 1736 01cd C5        		.byte	-59
 1737 01ce CB        		.byte	-53
 1738 01cf D5        		.byte	-43
 1739 01d0 E3        		.byte	-29
 1740 01d1 EF        		.byte	-17
 1741 01d2 0C        		.byte	12
 1742 01d3 2A        		.byte	42
 1743 01d4 32        		.byte	50
 1744 01d5 27        		.byte	39
 1745 01d6 16        		.byte	22
 1746 01d7 0B        		.byte	11
 1747 01d8 00        		.byte	0
 1748 01d9 E3        		.byte	-29
 1749 01da CE        		.byte	-50
 1750 01db C4        		.byte	-60
 1751 01dc B5        		.byte	-75
 1752 01dd B4        		.byte	-76
 1753 01de B9        		.byte	-71
 1754 01df B9        		.byte	-71
 1755 01e0 C9        		.byte	-55
 1756 01e1 DA        		.byte	-38
 1757 01e2 E8        		.byte	-24
 1758 01e3 F5        		.byte	-11
 1759 01e4 FA        		.byte	-6
 1760 01e5 00        		.byte	0
 1761 01e6 FF        		.byte	-1
 1762 01e7 F9        		.byte	-7
 1763 01e8 F4        		.byte	-12
 1764 01e9 E8        		.byte	-24
 1765 01ea E2        		.byte	-30
 1766 01eb E8        		.byte	-24
 1767 01ec EE        		.byte	-18
 1768 01ed F8        		.byte	-8
 1769 01ee 07        		.byte	7
 1770 01ef 1B        		.byte	27
 1771 01f0 33        		.byte	51
 1772 01f1 47        		.byte	71
 1773 01f2 5B        		.byte	91
 1774 01f3 6C        		.byte	108
 1775 01f4 78        		.byte	120
GAS LISTING /tmp/ccEQRkCa.s 			page 35


 1776 01f5 7F        		.byte	127
 1777 01f6 7E        		.byte	126
 1778 01f7 7F        		.byte	127
 1779 01f8 79        		.byte	121
 1780 01f9 7F        		.byte	127
 1781 01fa 5B        		.byte	91
 1782 01fb A3        		.byte	-93
 1783 01fc BE        		.byte	-66
 1784 01fd E8        		.byte	-24
 1785 01fe 83        		.byte	-125
 1786 01ff C0        		.byte	-64
 1787 0200 B2        		.byte	-78
 1788 0201 85        		.byte	-123
 1789 0202 D7        		.byte	-41
 1790 0203 28        		.byte	40
 1791 0204 62        		.byte	98
 1792 0205 49        		.byte	73
 1793 0206 34        		.byte	52
 1794 0207 49        		.byte	73
 1795 0208 13        		.byte	19
 1796 0209 0A        		.byte	10
 1797 020a 18        		.byte	24
 1798 020b A9        		.byte	-87
 1799 020c 80        		.byte	-128
 1800 020d 8C        		.byte	-116
 1801 020e 8E        		.byte	-114
 1802 020f B8        		.byte	-72
 1803 0210 D1        		.byte	-47
 1804 0211 EA        		.byte	-22
 1805 0212 F9        		.byte	-7
 1806 0213 18        		.byte	24
 1807 0214 64        		.byte	100
 1808 0215 63        		.byte	99
 1809 0216 2D        		.byte	45
 1810 0217 1B        		.byte	27
 1811 0218 EC        		.byte	-20
 1812 0219 C8        		.byte	-56
 1813 021a D2        		.byte	-46
 1814 021b BB        		.byte	-69
 1815 021c 94        		.byte	-108
 1816 021d 8B        		.byte	-117
 1817 021e B3        		.byte	-77
 1818 021f E7        		.byte	-25
 1819 0220 08        		.byte	8
 1820 0221 2C        		.byte	44
 1821 0222 33        		.byte	51
 1822 0223 25        		.byte	37
 1823 0224 38        		.byte	56
 1824 0225 3F        		.byte	63
 1825 0226 15        		.byte	21
 1826 0227 E5        		.byte	-27
 1827 0228 BC        		.byte	-68
 1828 0229 A4        		.byte	-92
 1829 022a A7        		.byte	-89
 1830 022b BB        		.byte	-69
 1831 022c C7        		.byte	-57
 1832 022d C6        		.byte	-58
GAS LISTING /tmp/ccEQRkCa.s 			page 36


 1833 022e E3        		.byte	-29
 1834 022f 0F        		.byte	15
 1835 0230 24        		.byte	36
 1836 0231 30        		.byte	48
 1837 0232 25        		.byte	37
 1838 0233 FD        		.byte	-3
 1839 0234 E0        		.byte	-32
 1840 0235 D7        		.byte	-41
 1841 0236 CF        		.byte	-49
 1842 0237 C0        		.byte	-64
 1843 0238 BC        		.byte	-68
 1844 0239 C7        		.byte	-57
 1845 023a D7        		.byte	-41
 1846 023b F3        		.byte	-13
 1847 023c 09        		.byte	9
 1848 023d 08        		.byte	8
 1849 023e 09        		.byte	9
 1850 023f 13        		.byte	19
 1851 0240 18        		.byte	24
 1852 0241 1D        		.byte	29
 1853 0242 1E        		.byte	30
 1854 0243 1B        		.byte	27
 1855 0244 1E        		.byte	30
 1856 0245 2E        		.byte	46
 1857 0246 3D        		.byte	61
 1858 0247 45        		.byte	69
 1859 0248 50        		.byte	80
 1860 0249 5F        		.byte	95
 1861 024a 6F        		.byte	111
 1862 024b 7F        		.byte	127
 1863 024c 7E        		.byte	126
 1864 024d 7E        		.byte	126
 1865 024e 7F        		.byte	127
 1866 024f E7        		.byte	-25
 1867 0250 9E        		.byte	-98
 1868 0251 01        		.byte	1
 1869 0252 A8        		.byte	-88
 1870 0253 A5        		.byte	-91
 1871 0254 D4        		.byte	-44
 1872 0255 8F        		.byte	-113
 1873 0256 CA        		.byte	-54
 1874 0257 2B        		.byte	43
 1875 0258 5E        		.byte	94
 1876 0259 56        		.byte	86
 1877 025a 2C        		.byte	44
 1878 025b 30        		.byte	48
 1879 025c 15        		.byte	21
 1880 025d F1        		.byte	-15
 1881 025e 00        		.byte	0
 1882 025f B5        		.byte	-75
 1883 0260 80        		.byte	-128
 1884 0261 95        		.byte	-107
 1885 0262 AD        		.byte	-83
 1886 0263 D8        		.byte	-40
 1887 0264 FD        		.byte	-3
 1888 0265 0D        		.byte	13
 1889 0266 19        		.byte	25
GAS LISTING /tmp/ccEQRkCa.s 			page 37


 1890 0267 2F        		.byte	47
 1891 0268 5D        		.byte	93
 1892 0269 57        		.byte	87
 1893 026a 11        		.byte	17
 1894 026b E5        		.byte	-27
 1895 026c C6        		.byte	-58
 1896 026d AD        		.byte	-83
 1897 026e C3        		.byte	-61
 1898 026f C2        		.byte	-62
 1899 0270 B0        		.byte	-80
 1900 0271 BF        		.byte	-65
 1901 0272 F0        		.byte	-16
 1902 0273 29        		.byte	41
 1903 0274 44        		.byte	68
 1904 0275 48        		.byte	72
 1905 0276 35        		.byte	53
 1906 0277 15        		.byte	21
 1907 0278 0F        		.byte	15
 1908 0279 0A        		.byte	10
 1909 027a E2        		.byte	-30
 1910 027b BB        		.byte	-69
 1911 027c A9        		.byte	-87
 1912 027d A5        		.byte	-91
 1913 027e C6        		.byte	-58
 1914 027f F2        		.byte	-14
 1915 0280 00        		.byte	0
 1916 0281 03        		.byte	3
 1917 0282 10        		.byte	16
 1918 0283 1C        		.byte	28
 1919 0284 14        		.byte	20
 1920 0285 FF        		.byte	-1
 1921 0286 E4        		.byte	-28
 1922 0287 C7        		.byte	-57
 1923 0288 BF        		.byte	-65
 1924 0289 D1        		.byte	-47
 1925 028a DA        		.byte	-38
 1926 028b DE        		.byte	-34
 1927 028c ED        		.byte	-19
 1928 028d F8        		.byte	-8
 1929 028e 04        		.byte	4
 1930 028f 0F        		.byte	15
 1931 0290 0E        		.byte	14
 1932 0291 02        		.byte	2
 1933 0292 FB        		.byte	-5
 1934 0293 00        		.byte	0
 1935 0294 04        		.byte	4
 1936 0295 06        		.byte	6
 1937 0296 0E        		.byte	14
 1938 0297 13        		.byte	19
 1939 0298 1D        		.byte	29
 1940 0299 2F        		.byte	47
 1941 029a 3B        		.byte	59
 1942 029b 43        		.byte	67
 1943 029c 4F        		.byte	79
 1944 029d 57        		.byte	87
 1945 029e 5D        		.byte	93
 1946 029f 72        		.byte	114
GAS LISTING /tmp/ccEQRkCa.s 			page 38


 1947 02a0 7E        		.byte	126
 1948 02a1 7C        		.byte	124
 1949 02a2 74        		.byte	116
 1950 02a3 FF        		.byte	-1
 1951 02a4 9D        		.byte	-99
 1952 02a5 DD        		.byte	-35
 1953 02a6 C9        		.byte	-55
 1954 02a7 B0        		.byte	-80
 1955 02a8 E2        		.byte	-30
 1956 02a9 C6        		.byte	-58
 1957 02aa DD        		.byte	-35
 1958 02ab 2F        		.byte	47
 1959 02ac 61        		.byte	97
 1960 02ad 5C        		.byte	92
 1961 02ae 28        		.byte	40
 1962 02af 0E        		.byte	14
 1963 02b0 F9        		.byte	-7
 1964 02b1 D4        		.byte	-44
 1965 02b2 DA        		.byte	-38
 1966 02b3 B9        		.byte	-71
 1967 02b4 80        		.byte	-128
 1968 02b5 9F        		.byte	-97
 1969 02b6 D7        		.byte	-41
 1970 02b7 03        		.byte	3
 1971 02b8 26        		.byte	38
 1972 02b9 2F        		.byte	47
 1973 02ba 28        		.byte	40
 1974 02bb 22        		.byte	34
 1975 02bc 2D        		.byte	45
 1976 02bd 23        		.byte	35
 1977 02be E8        		.byte	-24
 1978 02bf B7        		.byte	-73
 1979 02c0 A9        		.byte	-87
 1980 02c1 AC        		.byte	-84
 1981 02c2 C9        		.byte	-55
 1982 02c3 EB        		.byte	-21
 1983 02c4 F3        		.byte	-13
 1984 02c5 FD        		.byte	-3
 1985 02c6 1E        		.byte	30
 1986 02c7 3F        		.byte	63
 1987 02c8 44        		.byte	68
 1988 02c9 2E        		.byte	46
 1989 02ca 09        		.byte	9
 1990 02cb E0        		.byte	-32
 1991 02cc CE        		.byte	-50
 1992 02cd D5        		.byte	-43
 1993 02ce D4        		.byte	-44
 1994 02cf CB        		.byte	-53
 1995 02d0 D3        		.byte	-45
 1996 02d1 EF        		.byte	-17
 1997 02d2 13        		.byte	19
 1998 02d3 34        		.byte	52
 1999 02d4 3C        		.byte	60
 2000 02d5 2B        		.byte	43
 2001 02d6 0A        		.byte	10
 2002 02d7 F1        		.byte	-15
 2003 02d8 F0        		.byte	-16
GAS LISTING /tmp/ccEQRkCa.s 			page 39


 2004 02d9 DD        		.byte	-35
 2005 02da C5        		.byte	-59
 2006 02db BF        		.byte	-65
 2007 02dc AA        		.byte	-86
 2008 02dd BB        		.byte	-69
 2009 02de F7        		.byte	-9
 2010 02df 04        		.byte	4
 2011 02e0 FF        		.byte	-1
 2012 02e1 05        		.byte	5
 2013 02e2 02        		.byte	2
 2014 02e3 05        		.byte	5
 2015 02e4 07        		.byte	7
 2016 02e5 F6        		.byte	-10
 2017 02e6 DE        		.byte	-34
 2018 02e7 D9        		.byte	-39
 2019 02e8 EF        		.byte	-17
 2020 02e9 FE        		.byte	-2
 2021 02ea FD        		.byte	-3
 2022 02eb FF        		.byte	-1
 2023 02ec 01        		.byte	1
 2024 02ed 0D        		.byte	13
 2025 02ee 20        		.byte	32
 2026 02ef 28        		.byte	40
 2027 02f0 23        		.byte	35
 2028 02f1 23        		.byte	35
 2029 02f2 30        		.byte	48
 2030 02f3 3E        		.byte	62
 2031 02f4 45        		.byte	69
 2032 02f5 46        		.byte	70
 2033 02f6 33        		.byte	51
 2034 02f7 40        		.byte	64
 2035 02f8 67        		.byte	103
 2036 02f9 5F        		.byte	95
 2037 02fa 51        		.byte	81
 2038 02fb 0B        		.byte	11
 2039 02fc B3        		.byte	-77
 2040 02fd D5        		.byte	-43
 2041 02fe E6        		.byte	-26
 2042 02ff DB        		.byte	-37
 2043 0300 EE        		.byte	-18
 2044 0301 DD        		.byte	-35
 2045 0302 EA        		.byte	-22
 2046 0303 22        		.byte	34
 2047 0304 46        		.byte	70
 2048 0305 45        		.byte	69
 2049 0306 16        		.byte	22
 2050 0307 EB        		.byte	-21
 2051 0308 E5        		.byte	-27
 2052 0309 D9        		.byte	-39
 2053 030a DD        		.byte	-35
 2054 030b D2        		.byte	-46
 2055 030c B2        		.byte	-78
 2056 030d C3        		.byte	-61
 2057 030e F3        		.byte	-13
 2058 030f 1B        		.byte	27
 2059 0310 2F        		.byte	47
 2060 0311 26        		.byte	38
GAS LISTING /tmp/ccEQRkCa.s 			page 40


 2061 0312 11        		.byte	17
 2062 0313 05        		.byte	5
 2063 0314 04        		.byte	4
 2064 0315 00        		.byte	0
 2065 0316 E0        		.byte	-32
 2066 0317 BE        		.byte	-66
 2067 0318 BB        		.byte	-69
 2068 0319 CF        		.byte	-49
 2069 031a F2        		.byte	-14
 2070 031b 10        		.byte	16
 2071 031c 13        		.byte	19
 2072 031d 0F        		.byte	15
 2073 031e 15        		.byte	21
 2074 031f 20        		.byte	32
 2075 0320 1D        		.byte	29
 2076 0321 06        		.byte	6
 2077 0322 E5        		.byte	-27
 2078 0323 CD        		.byte	-51
 2079 0324 CE        		.byte	-50
 2080 0325 E4        		.byte	-28
 2081 0326 F6        		.byte	-10
 2082 0327 FA        		.byte	-6
 2083 0328 00        		.byte	0
 2084 0329 0E        		.byte	14
 2085 032a 20        		.byte	32
 2086 032b 2B        		.byte	43
 2087 032c 21        		.byte	33
 2088 032d 05        		.byte	5
 2089 032e EC        		.byte	-20
 2090 032f E3        		.byte	-29
 2091 0330 E7        		.byte	-25
 2092 0331 EA        		.byte	-22
 2093 0332 EA        		.byte	-22
 2094 0333 ED        		.byte	-19
 2095 0334 F8        		.byte	-8
 2096 0335 0F        		.byte	15
 2097 0336 21        		.byte	33
 2098 0337 16        		.byte	22
 2099 0338 FB        		.byte	-5
 2100 0339 E0        		.byte	-32
 2101 033a D2        		.byte	-46
 2102 033b DB        		.byte	-37
 2103 033c DB        		.byte	-37
 2104 033d CE        		.byte	-50
 2105 033e D6        		.byte	-42
 2106 033f E8        		.byte	-24
 2107 0340 FD        		.byte	-3
 2108 0341 0F        		.byte	15
 2109 0342 09        		.byte	9
 2110 0343 F7        		.byte	-9
 2111 0344 F0        		.byte	-16
 2112 0345 F4        		.byte	-12
 2113 0346 F7        		.byte	-9
 2114 0347 F2        		.byte	-14
 2115 0348 F1        		.byte	-15
 2116 0349 F9        		.byte	-7
 2117 034a 09        		.byte	9
GAS LISTING /tmp/ccEQRkCa.s 			page 41


 2118 034b 1D        		.byte	29
 2119 034c 27        		.byte	39
 2120 034d 22        		.byte	34
 2121 034e 20        		.byte	32
 2122 034f 28        		.byte	40
 2123 0350 33        		.byte	51
 2124 0351 35        		.byte	53
 2125 0352 35        		.byte	53
 2126 0353 35        		.byte	53
 2127 0354 35        		.byte	53
 2128 0355 46        		.byte	70
 2129 0356 55        		.byte	85
 2130 0357 4D        		.byte	77
 2131 0358 0B        		.byte	11
 2132 0359 B9        		.byte	-71
 2133 035a D4        		.byte	-44
 2134 035b F4        		.byte	-12
 2135 035c EA        		.byte	-22
 2136 035d FE        		.byte	-2
 2137 035e F7        		.byte	-9
 2138 035f E9        		.byte	-23
 2139 0360 1A        		.byte	26
 2140 0361 44        		.byte	68
 2141 0362 35        		.byte	53
 2142 0363 0A        		.byte	10
 2143 0364 E4        		.byte	-28
 2144 0365 DB        		.byte	-37
 2145 0366 D8        		.byte	-40
 2146 0367 E7        		.byte	-25
 2147 0368 E6        		.byte	-26
 2148 0369 CA        		.byte	-54
 2149 036a D5        		.byte	-43
 2150 036b 06        		.byte	6
 2151 036c 23        		.byte	35
 2152 036d 2B        		.byte	43
 2153 036e 1E        		.byte	30
 2154 036f 00        		.byte	0
 2155 0370 F0        		.byte	-16
 2156 0371 F6        		.byte	-10
 2157 0372 F8        		.byte	-8
 2158 0373 E1        		.byte	-31
 2159 0374 CB        		.byte	-53
 2160 0375 D1        		.byte	-47
 2161 0376 E9        		.byte	-23
 2162 0377 09        		.byte	9
 2163 0378 20        		.byte	32
 2164 0379 19        		.byte	25
 2165 037a 08        		.byte	8
 2166 037b 07        		.byte	7
 2167 037c 0D        		.byte	13
 2168 037d 07        		.byte	7
 2169 037e F3        		.byte	-13
 2170 037f DD        		.byte	-35
 2171 0380 D2        		.byte	-46
 2172 0381 DF        		.byte	-33
 2173 0382 FB        		.byte	-5
 2174 0383 0C        		.byte	12
GAS LISTING /tmp/ccEQRkCa.s 			page 42


 2175 0384 0C        		.byte	12
 2176 0385 0B        		.byte	11
 2177 0386 10        		.byte	16
 2178 0387 17        		.byte	23
 2179 0388 17        		.byte	23
 2180 0389 08        		.byte	8
 2181 038a EE        		.byte	-18
 2182 038b DF        		.byte	-33
 2183 038c E4        		.byte	-28
 2184 038d F2        		.byte	-14
 2185 038e FC        		.byte	-4
 2186 038f FF        		.byte	-1
 2187 0390 02        		.byte	2
 2188 0391 0A        		.byte	10
 2189 0392 18        		.byte	24
 2190 0393 1E        		.byte	30
 2191 0394 12        		.byte	18
 2192 0395 FD        		.byte	-3
 2193 0396 EF        		.byte	-17
 2194 0397 EC        		.byte	-20
 2195 0398 F0        		.byte	-16
 2196 0399 F4        		.byte	-12
 2197 039a F4        		.byte	-12
 2198 039b F5        		.byte	-11
 2199 039c 00        		.byte	0
 2200 039d 10        		.byte	16
 2201 039e 19        		.byte	25
 2202 039f 15        		.byte	21
 2203 03a0 08        		.byte	8
 2204 03a1 EE        		.byte	-18
 2205 03a2 DC        		.byte	-36
 2206 03a3 E0        		.byte	-32
 2207 03a4 E3        		.byte	-29
 2208 03a5 DF        		.byte	-33
 2209 03a6 E6        		.byte	-26
 2210 03a7 F1        		.byte	-15
 2211 03a8 FE        		.byte	-2
 2212 03a9 0C        		.byte	12
 2213 03aa 0D        		.byte	13
 2214 03ab 00        		.byte	0
 2215 03ac F3        		.byte	-13
 2216 03ad F1        		.byte	-15
 2217 03ae F0        		.byte	-16
 2218 03af EE        		.byte	-18
 2219 03b0 F1        		.byte	-15
 2220 03b1 F6        		.byte	-10
 2221 03b2 FD        		.byte	-3
 2222 03b3 0C        		.byte	12
 2223 03b4 15        		.byte	21
 2224 03b5 14        		.byte	20
 2225 03b6 0F        		.byte	15
 2226 03b7 0D        		.byte	13
 2227 03b8 0B        		.byte	11
 2228 03b9 0A        		.byte	10
 2229 03ba 0E        		.byte	14
 2230 03bb 10        		.byte	16
 2231 03bc 12        		.byte	18
GAS LISTING /tmp/ccEQRkCa.s 			page 43


 2232 03bd 1D        		.byte	29
 2233 03be 2A        		.byte	42
 2234 03bf 29        		.byte	41
 2235 03c0 29        		.byte	41
 2236 03c1 32        		.byte	50
 2237 03c2 3D        		.byte	61
 2238 03c3 4F        		.byte	79
 2239 03c4 33        		.byte	51
 2240 03c5 D6        		.byte	-42
 2241 03c6 C5        		.byte	-59
 2242 03c7 EB        		.byte	-21
 2243 03c8 E3        		.byte	-29
 2244 03c9 F0        		.byte	-16
 2245 03ca FE        		.byte	-2
 2246 03cb EB        		.byte	-21
 2247 03cc 02        		.byte	2
 2248 03cd 36        		.byte	54
 2249 03ce 3E        		.byte	62
 2250 03cf 1A        		.byte	26
 2251 03d0 F5        		.byte	-11
 2252 03d1 E5        		.byte	-27
 2253 03d2 DA        		.byte	-38
 2254 03d3 E2        		.byte	-30
 2255 03d4 EB        		.byte	-21
 2256 03d5 D4        		.byte	-44
 2257 03d6 D0        		.byte	-48
 2258 03d7 FB        		.byte	-5
 2259 03d8 1D        		.byte	29
 2260 03d9 26        		.byte	38
 2261 03da 22        		.byte	34
 2262 03db 0B        		.byte	11
 2263 03dc F5        		.byte	-11
 2264 03dd F5        		.byte	-11
 2265 03de F9        		.byte	-7
 2266 03df E5        		.byte	-27
 2267 03e0 CF        		.byte	-49
 2268 03e1 D3        		.byte	-45
 2269 03e2 E8        		.byte	-24
 2270 03e3 04        		.byte	4
 2271 03e4 1C        		.byte	28
 2272 03e5 1B        		.byte	27
 2273 03e6 0B        		.byte	11
 2274 03e7 08        		.byte	8
 2275 03e8 0D        		.byte	13
 2276 03e9 05        		.byte	5
 2277 03ea F2        		.byte	-14
 2278 03eb DF        		.byte	-33
 2279 03ec D6        		.byte	-42
 2280 03ed E1        		.byte	-31
 2281 03ee FB        		.byte	-5
 2282 03ef 0B        		.byte	11
 2283 03f0 0B        		.byte	11
 2284 03f1 0B        		.byte	11
 2285 03f2 11        		.byte	17
 2286 03f3 15        		.byte	21
 2287 03f4 12        		.byte	18
 2288 03f5 03        		.byte	3
GAS LISTING /tmp/ccEQRkCa.s 			page 44


 2289 03f6 EB        		.byte	-21
 2290 03f7 DF        		.byte	-33
 2291 03f8 E5        		.byte	-27
 2292 03f9 F2        		.byte	-14
 2293 03fa FA        		.byte	-6
 2294 03fb FE        		.byte	-2
 2295 03fc 03        		.byte	3
 2296 03fd 0C        		.byte	12
 2297 03fe 17        		.byte	23
 2298 03ff 19        		.byte	25
 2299 0400 0C        		.byte	12
 2300 0401 F9        		.byte	-7
 2301 0402 EE        		.byte	-18
 2302 0403 ED        		.byte	-19
 2303 0404 F0        		.byte	-16
 2304 0405 F3        		.byte	-13
 2305 0406 F4        		.byte	-12
 2306 0407 F8        		.byte	-8
 2307 0408 05        		.byte	5
 2308 0409 12        		.byte	18
 2309 040a 17        		.byte	23
 2310 040b 10        		.byte	16
 2311 040c 04        		.byte	4
 2312 040d FB        		.byte	-5
 2313 040e F7        		.byte	-9
 2314 040f F6        		.byte	-10
 2315 0410 F3        		.byte	-13
 2316 0411 EF        		.byte	-17
 2317 0412 F2        		.byte	-14
 2318 0413 FD        		.byte	-3
 2319 0414 09        		.byte	9
 2320 0415 10        		.byte	16
 2321 0416 0F        		.byte	15
 2322 0417 08        		.byte	8
 2323 0418 03        		.byte	3
 2324 0419 00        		.byte	0
 2325 041a FC        		.byte	-4
 2326 041b F5        		.byte	-11
 2327 041c EF        		.byte	-17
 2328 041d F0        		.byte	-16
 2329 041e F7        		.byte	-9
 2330 041f 01        		.byte	1
 2331 0420 09        		.byte	9
 2332 0421 0A        		.byte	10
 2333 0422 09        		.byte	9
 2334 0423 08        		.byte	8
 2335 0424 07        		.byte	7
 2336 0425 03        		.byte	3
 2337 0426 FB        		.byte	-5
 2338 0427 F4        		.byte	-12
 2339 0428 F1        		.byte	-15
 2340 0429 F5        		.byte	-11
 2341 042a FC        		.byte	-4
 2342 042b 01        		.byte	1
 2343 042c 04        		.byte	4
 2344 042d 07        		.byte	7
 2345 042e 09        		.byte	9
GAS LISTING /tmp/ccEQRkCa.s 			page 45


 2346 042f 0B        		.byte	11
 2347 0430 08        		.byte	8
 2348 0431 01        		.byte	1
 2349 0432 FA        		.byte	-6
 2350 0433 F6        		.byte	-10
 2351 0434 F6        		.byte	-10
 2352 0435 F9        		.byte	-7
 2353 0436 FB        		.byte	-5
 2354 0437 FE        		.byte	-2
 2355 0438 01        		.byte	1
 2356 0439 06        		.byte	6
 2357 043a 09        		.byte	9
 2358 043b 09        		.byte	9
 2359 043c 05        		.byte	5
 2360 043d FF        		.byte	-1
 2361 043e FA        		.byte	-6
 2362 043f F9        		.byte	-7
 2363 0440 F8        		.byte	-8
 2364 0441 F9        		.byte	-7
 2365 0442 FA        		.byte	-6
 2366 0443 FD        		.byte	-3
 2367 0444 02        		.byte	2
 2368 0445 06        		.byte	6
 2369 0446 08        		.byte	8
 2370 0447 05        		.byte	5
 2371 0448 03        		.byte	3
 2372 0449 00        		.byte	0
 2373 044a EF        		.byte	-17
 2374 044b EF        		.byte	-17
 2375 044c F9        		.byte	-7
 2376 044d F1        		.byte	-15
 2377 044e F4        		.byte	-12
 2378 044f FE        		.byte	-2
 2379 0450 FA        		.byte	-6
 2380 0451 00        		.byte	0
 2381 0452 04        		.byte	4
 2382 0453 FC        		.byte	-4
 2383 0454 F8        		.byte	-8
 2384 0455 F7        		.byte	-9
 2385 0456 F7        		.byte	-9
 2386 0457 F6        		.byte	-10
 2387 0458 F7        		.byte	-9
 2388 0459 FB        		.byte	-5
 2389 045a FA        		.byte	-6
 2390 045b 00        		.byte	0
 2391 045c 06        		.byte	6
 2392 045d 03        		.byte	3
 2393 045e 01        		.byte	1
 2394 045f 03        		.byte	3
 2395 0460 01        		.byte	1
 2396 0461 01        		.byte	1
 2397 0462 01        		.byte	1
 2398 0463 00        		.byte	0
 2399 0464 00        		.byte	0
 2400 0465 03        		.byte	3
 2401 0466 06        		.byte	6
 2402 0467 05        		.byte	5
GAS LISTING /tmp/ccEQRkCa.s 			page 46


 2403 0468 07        		.byte	7
 2404 0469 08        		.byte	8
 2405 046a 08        		.byte	8
 2406 046b 08        		.byte	8
 2407 046c 08        		.byte	8
 2408 046d 05        		.byte	5
 2409 046e 05        		.byte	5
 2410 046f 08        		.byte	8
 2411 0470 08        		.byte	8
 2412 0471 08        		.byte	8
 2413 0472 0A        		.byte	10
 2414 0473 09        		.byte	9
 2415 0474 0A        		.byte	10
 2416 0475 09        		.byte	9
 2417 0476 06        		.byte	6
 2418 0477 06        		.byte	6
 2419 0478 08        		.byte	8
 2420 0479 0A        		.byte	10
 2421 047a 0E        		.byte	14
 2422 047b 0F        		.byte	15
 2423 047c 16        		.byte	22
 2424 047d 20        		.byte	32
 2425 047e 00        		.byte	0
 2426 047f EB        		.byte	-21
 2427 0480 FC        		.byte	-4
 2428 0481 F4        		.byte	-12
 2429 0482 EE        		.byte	-18
 2430 0483 FB        		.byte	-5
 2431 0484 F1        		.byte	-15
 2432 0485 F1        		.byte	-15
 2433 0486 07        		.byte	7
 2434 0487 12        		.byte	18
 2435 0488 0A        		.byte	10
 2436 0489 01        		.byte	1
 2437 048a FE        		.byte	-2
 2438 048b F6        		.byte	-10
 2439 048c F4        		.byte	-12
 2440 048d F9        		.byte	-7
 2441 048e ED        		.byte	-19
 2442 048f E6        		.byte	-26
 2443 0490 F4        		.byte	-12
 2444 0491 FF        		.byte	-1
 2445 0492 03        		.byte	3
 2446 0493 08        		.byte	8
 2447 0494 06        		.byte	6
 2448 0495 00        		.byte	0
 2449 0496 02        		.byte	2
 2450 0497 04        		.byte	4
 2451 0498 FA        		.byte	-6
 2452 0499 F0        		.byte	-16
 2453 049a EF        		.byte	-17
 2454 049b F1        		.byte	-15
 2455 049c F7        		.byte	-9
 2456 049d 00        		.byte	0
 2457 049e 01        		.byte	1
 2458 049f FF        		.byte	-1
 2459 04a0 04        		.byte	4
GAS LISTING /tmp/ccEQRkCa.s 			page 47


 2460 04a1 09        		.byte	9
 2461 04a2 07        		.byte	7
 2462 04a3 01        		.byte	1
 2463 04a4 FA        		.byte	-6
 2464 04a5 F4        		.byte	-12
 2465 04a6 F4        		.byte	-12
 2466 04a7 F9        		.byte	-7
 2467 04a8 FB        		.byte	-5
 2468 04a9 FA        		.byte	-6
 2469 04aa FD        		.byte	-3
 2470 04ab 03        		.byte	3
 2471 04ac 07        		.byte	7
 2472 04ad 0A        		.byte	10
 2473 04ae 06        		.byte	6
 2474 04af FF        		.byte	-1
 2475 04b0 FB        		.byte	-5
 2476 04b1 FC        		.byte	-4
 2477 04b2 FB        		.byte	-5
 2478 04b3 F9        		.byte	-7
 2479 04b4 F8        		.byte	-8
 2480 04b5 FA        		.byte	-6
 2481 04b6 FE        		.byte	-2
 2482 04b7 05        		.byte	5
 2483 04b8 08        		.byte	8
 2484 04b9 06        		.byte	6
 2485 04ba 03        		.byte	3
 2486 04bb 02        		.byte	2
 2487 04bc 01        		.byte	1
 2488 04bd FE        		.byte	-2
 2489 04be FB        		.byte	-5
 2490 04bf F8        		.byte	-8
 2491 04c0 F7        		.byte	-9
 2492 04c1 FB        		.byte	-5
 2493 04c2 00        		.byte	0
 2494 04c3 02        		.byte	2
 2495 04c4 02        		.byte	2
 2496 04c5 03        		.byte	3
 2497 04c6 03        		.byte	3
 2498 04c7 03        		.byte	3
 2499 04c8 01        		.byte	1
 2500 04c9 FD        		.byte	-3
 2501 04ca FA        		.byte	-6
 2502 04cb F9        		.byte	-7
 2503 04cc FA        		.byte	-6
 2504 04cd FD        		.byte	-3
 2505 04ce FF        		.byte	-1
 2506 04cf 00        		.byte	0
 2507 04d0 02        		.byte	2
 2508 04d1 04        		.byte	4
 2509 04d2 05        		.byte	5
 2510 04d3 04        		.byte	4
 2511 04d4 01        		.byte	1
 2512 04d5 FE        		.byte	-2
 2513 04d6 FD        		.byte	-3
 2514 04d7 FC        		.byte	-4
 2515 04d8 FC        		.byte	-4
 2516 04d9 FD        		.byte	-3
GAS LISTING /tmp/ccEQRkCa.s 			page 48


 2517 04da FE        		.byte	-2
 2518 04db 00        		.byte	0
 2519 04dc 02        		.byte	2
 2520 04dd 04        		.byte	4
 2521 04de 04        		.byte	4
 2522 04df 03        		.byte	3
 2523 04e0 01        		.byte	1
 2524 04e1 00        		.byte	0
 2525 04e2 FE        		.byte	-2
 2526 04e3 FD        		.byte	-3
 2527 04e4 FC        		.byte	-4
 2528 04e5 FC        		.byte	-4
 2529 04e6 FD        		.byte	-3
 2530 04e7 FF        		.byte	-1
 2531 04e8 01        		.byte	1
 2532 04e9 FF        		.byte	-1
 2533 04ea FA        		.byte	-6
 2534 04eb FA        		.byte	-6
 2535 04ec FB        		.byte	-5
 2536 04ed FA        		.byte	-6
 2537 04ee FB        		.byte	-5
 2538 04ef FB        		.byte	-5
 2539 04f0 FC        		.byte	-4
 2540 04f1 FF        		.byte	-1
 2541 04f2 02        		.byte	2
 2542 04f3 03        		.byte	3
 2543 04f4 01        		.byte	1
 2544 04f5 01        		.byte	1
 2545 04f6 01        		.byte	1
 2546 04f7 00        		.byte	0
 2547 04f8 00        		.byte	0
 2548 04f9 FF        		.byte	-1
 2549 04fa FD        		.byte	-3
 2550 04fb FE        		.byte	-2
 2551 04fc 00        		.byte	0
 2552 04fd 00        		.byte	0
 2553 04fe FD        		.byte	-3
 2554 04ff FD        		.byte	-3
 2555 0500 FF        		.byte	-1
 2556 0501 FE        		.byte	-2
 2557 0502 FE        		.byte	-2
 2558 0503 FC        		.byte	-4
 2559 0504 FA        		.byte	-6
 2560 0505 FD        		.byte	-3
 2561 0506 FE        		.byte	-2
 2562 0507 FE        		.byte	-2
 2563 0508 FE        		.byte	-2
 2564 0509 FE        		.byte	-2
 2565 050a FE        		.byte	-2
 2566 050b FF        		.byte	-1
 2567 050c 00        		.byte	0
 2568 050d FE        		.byte	-2
 2569 050e FD        		.byte	-3
 2570 050f FF        		.byte	-1
 2571 0510 00        		.byte	0
 2572 0511 00        		.byte	0
 2573 0512 00        		.byte	0
GAS LISTING /tmp/ccEQRkCa.s 			page 49


 2574 0513 FF        		.byte	-1
 2575 0514 FF        		.byte	-1
 2576 0515 01        		.byte	1
 2577 0516 02        		.byte	2
 2578 0517 00        		.byte	0
 2579 0518 FE        		.byte	-2
 2580 0519 00        		.byte	0
 2581 051a 01        		.byte	1
 2582 051b 02        		.byte	2
 2583 051c 01        		.byte	1
 2584 051d 00        		.byte	0
 2585 051e 01        		.byte	1
 2586 051f 02        		.byte	2
 2587 0520 02        		.byte	2
 2588 0521 01        		.byte	1
 2589 0522 01        		.byte	1
 2590 0523 03        		.byte	3
 2591 0524 04        		.byte	4
 2592 0525 05        		.byte	5
 2593 0526 04        		.byte	4
 2594 0527 02        		.byte	2
 2595 0528 04        		.byte	4
 2596 0529 05        		.byte	5
 2597 052a 00        		.byte	0
 2598 052b FB        		.byte	-5
 2599 052c F9        		.byte	-7
 2600 052d F8        		.byte	-8
 2601 052e F9        		.byte	-7
 2602 052f FA        		.byte	-6
 2603 0530 FA        		.byte	-6
 2604 0531 FB        		.byte	-5
 2605 0532 FF        		.byte	-1
 2606 0533 02        		.byte	2
 2607 0534 02        		.byte	2
 2608 0535 FF        		.byte	-1
 2609 0536 FC        		.byte	-4
 2610 0537 FB        		.byte	-5
 2611 0538 FB        		.byte	-5
 2612 0539 FB        		.byte	-5
 2613 053a FA        		.byte	-6
 2614 053b FB        		.byte	-5
 2615 053c FF        		.byte	-1
 2616 053d 02        		.byte	2
 2617 053e 04        		.byte	4
 2618 053f 03        		.byte	3
 2619 0540 02        		.byte	2
 2620 0541 03        		.byte	3
 2621 0542 02        		.byte	2
 2622 0543 00        		.byte	0
 2623 0544 FE        		.byte	-2
 2624 0545 FD        		.byte	-3
 2625 0546 FD        		.byte	-3
 2626 0547 FF        		.byte	-1
 2627 0548 00        		.byte	0
 2628 0549 00        		.byte	0
 2629 054a 01        		.byte	1
 2630 054b 03        		.byte	3
GAS LISTING /tmp/ccEQRkCa.s 			page 50


 2631 054c 03        		.byte	3
 2632 054d 02        		.byte	2
 2633 054e 01        		.byte	1
 2634 054f 01        		.byte	1
 2635 0550 01        		.byte	1
 2636 0551 01        		.byte	1
 2637 0552 02        		.byte	2
 2638 0553 02        		.byte	2
 2639 0554 04        		.byte	4
 2640 0555 06        		.byte	6
 2641 0556 06        		.byte	6
 2642 0557 05        		.byte	5
 2643 0558 04        		.byte	4
 2644 0559 02        		.byte	2
 2645 055a 00        		.byte	0
 2646 055b FF        		.byte	-1
 2647 055c FE        		.byte	-2
 2648 055d FE        		.byte	-2
 2649 055e FF        		.byte	-1
 2650 055f 01        		.byte	1
 2651 0560 03        		.byte	3
 2652 0561 03        		.byte	3
 2653 0562 03        		.byte	3
 2654 0563 03        		.byte	3
 2655 0564 02        		.byte	2
 2656 0565 02        		.byte	2
 2657 0566 00        		.byte	0
 2658 0567 FD        		.byte	-3
 2659 0568 FE        		.byte	-2
 2660 0569 FD        		.byte	-3
 2661 056a FD        		.byte	-3
 2662 056b FF        		.byte	-1
 2663 056c FF        		.byte	-1
 2664 056d FF        		.byte	-1
 2665 056e 01        		.byte	1
 2666 056f 01        		.byte	1
 2667 0570 01        		.byte	1
 2668 0571 00        		.byte	0
 2669 0572 FF        		.byte	-1
 2670 0573 FE        		.byte	-2
 2671 0574 FF        		.byte	-1
 2672 0575 FE        		.byte	-2
 2673 0576 FD        		.byte	-3
 2674 0577 FE        		.byte	-2
 2675 0578 FD        		.byte	-3
 2676 0579 FD        		.byte	-3
 2677 057a 01        		.byte	1
 2678 057b FF        		.byte	-1
 2679 057c FF        		.byte	-1
 2680 057d 00        		.byte	0
 2681 057e 00        		.byte	0
 2682 057f 00        		.byte	0
 2683 0580 FF        		.byte	-1
 2684 0581 FE        		.byte	-2
 2685 0582 FD        		.byte	-3
 2686 0583 FE        		.byte	-2
 2687 0584 FE        		.byte	-2
GAS LISTING /tmp/ccEQRkCa.s 			page 51


 2688 0585 FD        		.byte	-3
 2689 0586 FD        		.byte	-3
 2690 0587 FF        		.byte	-1
 2691 0588 FF        		.byte	-1
 2692 0589 01        		.byte	1
 2693 058a 01        		.byte	1
 2694 058b FF        		.byte	-1
 2695 058c FF        		.byte	-1
 2696 058d 00        		.byte	0
 2697 058e FF        		.byte	-1
 2698 058f FE        		.byte	-2
 2699 0590 FD        		.byte	-3
 2700 0591 FD        		.byte	-3
 2701 0592 FE        		.byte	-2
 2702 0593 FF        		.byte	-1
 2703 0594 FF        		.byte	-1
 2704 0595 FF        		.byte	-1
 2705 0596 00        		.byte	0
 2706 0597 00        		.byte	0
 2707 0598 01        		.byte	1
 2708 0599 00        		.byte	0
 2709 059a FE        		.byte	-2
 2710 059b FE        		.byte	-2
 2711 059c FD        		.byte	-3
 2712 059d FD        		.byte	-3
 2713 059e FD        		.byte	-3
 2714 059f FD        		.byte	-3
 2715 05a0 FF        		.byte	-1
 2716 05a1 00        		.byte	0
 2717 05a2 00        		.byte	0
 2718 05a3 01        		.byte	1
 2719 05a4 00        		.byte	0
 2720 05a5 00        		.byte	0
 2721 05a6 FF        		.byte	-1
 2722 05a7 FE        		.byte	-2
 2723 05a8 FD        		.byte	-3
 2724 05a9 FD        		.byte	-3
 2725 05aa FD        		.byte	-3
 2726 05ab FE        		.byte	-2
 2727 05ac 00        		.byte	0
 2728 05ad FF        		.byte	-1
 2729 05ae FD        		.byte	-3
 2730 05af 00        		.byte	0
 2731 05b0 00        		.byte	0
 2732 05b1 FD        		.byte	-3
 2733 05b2 FE        		.byte	-2
 2734 05b3 FC        		.byte	-4
 2735 05b4 FC        		.byte	-4
 2736 05b5 FE        		.byte	-2
 2737 05b6 FE        		.byte	-2
 2738 05b7 FE        		.byte	-2
 2739 05b8 FE        		.byte	-2
 2740 05b9 FF        		.byte	-1
 2741 05ba 00        		.byte	0
 2742 05bb FF        		.byte	-1
 2743 05bc FF        		.byte	-1
 2744 05bd FE        		.byte	-2
GAS LISTING /tmp/ccEQRkCa.s 			page 52


 2745 05be FD        		.byte	-3
 2746 05bf FE        		.byte	-2
 2747 05c0 FE        		.byte	-2
 2748 05c1 FC        		.byte	-4
 2749 05c2 FC        		.byte	-4
 2750 05c3 FC        		.byte	-4
 2751 05c4 FB        		.byte	-5
 2752 05c5 FE        		.byte	-2
 2753 05c6 FD        		.byte	-3
 2754 05c7 FB        		.byte	-5
 2755 05c8 FD        		.byte	-3
 2756 05c9 FF        		.byte	-1
 2757 05ca FE        		.byte	-2
 2758 05cb FD        		.byte	-3
 2759 05cc FE        		.byte	-2
 2760 05cd FC        		.byte	-4
 2761 05ce FD        		.byte	-3
 2762 05cf FD        		.byte	-3
 2763 05d0 F9        		.byte	-7
 2764 05d1 FA        		.byte	-6
 2765 05d2 FB        		.byte	-5
 2766 05d3 F9        		.byte	-7
 2767 05d4 FB        		.byte	-5
 2768 05d5 FC        		.byte	-4
 2769 05d6 FB        		.byte	-5
 2770 05d7 FC        		.byte	-4
 2771 05d8 FE        		.byte	-2
 2772 05d9 FB        		.byte	-5
 2773 05da FB        		.byte	-5
 2774 05db FC        		.byte	-4
 2775 05dc FA        		.byte	-6
 2776 05dd FA        		.byte	-6
 2777 05de FB        		.byte	-5
 2778 05df F9        		.byte	-7
 2779 05e0 FA        		.byte	-6
 2780 05e1 FA        		.byte	-6
 2781 05e2 FB        		.byte	-5
 2782 05e3 FB        		.byte	-5
 2783 05e4 FA        		.byte	-6
 2784 05e5 FA        		.byte	-6
 2785 05e6 FB        		.byte	-5
 2786 05e7 FB        		.byte	-5
 2787 05e8 FA        		.byte	-6
 2788 05e9 FA        		.byte	-6
 2789 05ea FA        		.byte	-6
 2790 05eb FA        		.byte	-6
 2791 05ec FB        		.byte	-5
 2792 05ed FA        		.byte	-6
 2793 05ee F9        		.byte	-7
 2794 05ef FA        		.byte	-6
 2795 05f0 FA        		.byte	-6
 2796 05f1 FB        		.byte	-5
 2797 05f2 FB        		.byte	-5
 2798 05f3 FC        		.byte	-4
 2799 05f4 FD        		.byte	-3
 2800 05f5 FD        		.byte	-3
 2801 05f6 FD        		.byte	-3
GAS LISTING /tmp/ccEQRkCa.s 			page 53


 2802 05f7 FD        		.byte	-3
 2803 05f8 FD        		.byte	-3
 2804 05f9 FD        		.byte	-3
 2805 05fa FD        		.byte	-3
 2806 05fb FD        		.byte	-3
 2807 05fc FD        		.byte	-3
 2808 05fd FD        		.byte	-3
 2809 05fe FF        		.byte	-1
 2810 05ff FF        		.byte	-1
 2811 0600 FF        		.byte	-1
 2812 0601 01        		.byte	1
 2813 0602 01        		.byte	1
 2814 0603 01        		.byte	1
 2815 0604 01        		.byte	1
 2816 0605 01        		.byte	1
 2817 0606 01        		.byte	1
 2818 0607 03        		.byte	3
 2819 0608 04        		.byte	4
 2820 0609 04        		.byte	4
 2821 060a 05        		.byte	5
 2822 060b 06        		.byte	6
 2823 060c 06        		.byte	6
 2824 060d 07        		.byte	7
 2825 060e 07        		.byte	7
 2826 060f 07        		.byte	7
 2827 0610 08        		.byte	8
 2828 0611 09        		.byte	9
 2829 0612 0A        		.byte	10
 2830 0613 0B        		.byte	11
 2831 0614 0D        		.byte	13
 2832 0615 0E        		.byte	14
 2833 0616 0F        		.byte	15
 2834 0617 0F        		.byte	15
 2835 0618 10        		.byte	16
 2836 0619 11        		.byte	17
 2837 061a 12        		.byte	18
 2838 061b 13        		.byte	19
 2839 061c 14        		.byte	20
 2840 061d 14        		.byte	20
 2841 061e 15        		.byte	21
 2842 061f 16        		.byte	22
 2843 0620 16        		.byte	22
 2844 0621 18        		.byte	24
 2845 0622 19        		.byte	25
 2846 0623 19        		.byte	25
 2847 0624 1A        		.byte	26
 2848 0625 1B        		.byte	27
 2849 0626 1C        		.byte	28
 2850 0627 1C        		.byte	28
 2851 0628 1D        		.byte	29
 2852 0629 1D        		.byte	29
 2853 062a 1C        		.byte	28
 2854 062b 1D        		.byte	29
 2855 062c 1C        		.byte	28
 2856 062d 1B        		.byte	27
 2857 062e 1C        		.byte	28
 2858 062f 1B        		.byte	27
GAS LISTING /tmp/ccEQRkCa.s 			page 54


 2859 0630 1B        		.byte	27
 2860 0631 1B        		.byte	27
 2861 0632 1A        		.byte	26
 2862 0633 1A        		.byte	26
 2863 0634 17        		.byte	23
 2864 0635 16        		.byte	22
 2865 0636 15        		.byte	21
 2866 0637 14        		.byte	20
 2867 0638 12        		.byte	18
 2868 0639 11        		.byte	17
 2869 063a 10        		.byte	16
 2870 063b 0F        		.byte	15
 2871 063c 0D        		.byte	13
 2872 063d 0C        		.byte	12
 2873 063e 0B        		.byte	11
 2874 063f 08        		.byte	8
 2875 0640 08        		.byte	8
 2876 0641 07        		.byte	7
 2877 0642 05        		.byte	5
 2878 0643 04        		.byte	4
 2879 0644 02        		.byte	2
 2880 0645 02        		.byte	2
 2881 0646 01        		.byte	1
 2882 0647 00        		.byte	0
 2883 0648 FF        		.byte	-1
 2884 0649 FD        		.byte	-3
 2885 064a FB        		.byte	-5
 2886 064b F9        		.byte	-7
 2887 064c F8        		.byte	-8
 2888 064d F7        		.byte	-9
 2889 064e F5        		.byte	-11
 2890 064f F3        		.byte	-13
 2891 0650 F1        		.byte	-15
 2892 0651 EF        		.byte	-17
 2893 0652 ED        		.byte	-19
 2894 0653 EB        		.byte	-21
 2895 0654 EB        		.byte	-21
 2896 0655 EA        		.byte	-22
 2897 0656 E9        		.byte	-23
 2898 0657 E9        		.byte	-23
 2899 0658 EA        		.byte	-22
 2900 0659 E9        		.byte	-23
 2901 065a E9        		.byte	-23
 2902 065b E9        		.byte	-23
 2903 065c E8        		.byte	-24
 2904 065d E8        		.byte	-24
 2905 065e E9        		.byte	-23
 2906 065f E8        		.byte	-24
 2907 0660 E9        		.byte	-23
 2908 0661 E9        		.byte	-23
 2909 0662 EA        		.byte	-22
 2910 0663 EC        		.byte	-20
 2911 0664 EE        		.byte	-18
 2912 0665 F0        		.byte	-16
 2913 0666 F0        		.byte	-16
 2914 0667 F2        		.byte	-14
 2915 0668 F3        		.byte	-13
GAS LISTING /tmp/ccEQRkCa.s 			page 55


 2916 0669 F4        		.byte	-12
 2917 066a F6        		.byte	-10
 2918 066b F8        		.byte	-8
 2919 066c F9        		.byte	-7
 2920 066d FA        		.byte	-6
 2921 066e F9        		.byte	-7
 2922 066f F9        		.byte	-7
 2923 0670 F9        		.byte	-7
 2924 0671 F9        		.byte	-7
 2925 0672 F8        		.byte	-8
 2926 0673 F7        		.byte	-9
 2927 0674 F8        		.byte	-8
 2928 0675 F8        		.byte	-8
 2929 0676 F7        		.byte	-9
 2930 0677 F7        		.byte	-9
 2931 0678 F6        		.byte	-10
 2932 0679 F6        		.byte	-10
 2933 067a F6        		.byte	-10
 2934 067b F6        		.byte	-10
 2935 067c F6        		.byte	-10
 2936 067d F7        		.byte	-9
 2937 067e F7        		.byte	-9
 2938 067f F8        		.byte	-8
 2939 0680 F7        		.byte	-9
 2940 0681 F9        		.byte	-7
 2941 0682 FA        		.byte	-6
 2942 0683 FA        		.byte	-6
 2943 0684 FB        		.byte	-5
 2944 0685 FB        		.byte	-5
 2945 0686 FC        		.byte	-4
 2946 0687 FD        		.byte	-3
 2947 0688 FD        		.byte	-3
 2948 0689 FD        		.byte	-3
 2949 068a FF        		.byte	-1
 2950 068b 00        		.byte	0
 2951 068c 00        		.byte	0
 2952 068d 02        		.byte	2
 2953 068e 04        		.byte	4
 2954 068f 04        		.byte	4
 2955 0690 05        		.byte	5
 2956 0691 06        		.byte	6
 2957 0692 08        		.byte	8
 2958 0693 09        		.byte	9
 2959 0694 09        		.byte	9
 2960 0695 0A        		.byte	10
 2961 0696 0A        		.byte	10
 2962 0697 09        		.byte	9
 2963 0698 0A        		.byte	10
 2964 0699 0A        		.byte	10
 2965 069a 0B        		.byte	11
 2966 069b 0C        		.byte	12
 2967 069c 0D        		.byte	13
 2968 069d 0D        		.byte	13
 2969 069e 0F        		.byte	15
 2970 069f 0E        		.byte	14
 2971 06a0 0E        		.byte	14
 2972 06a1 0E        		.byte	14
GAS LISTING /tmp/ccEQRkCa.s 			page 56


 2973 06a2 0E        		.byte	14
 2974 06a3 0F        		.byte	15
 2975 06a4 0D        		.byte	13
 2976 06a5 0D        		.byte	13
 2977 06a6 0B        		.byte	11
 2978 06a7 0A        		.byte	10
 2979 06a8 0A        		.byte	10
 2980 06a9 08        		.byte	8
 2981 06aa 07        		.byte	7
 2982 06ab 06        		.byte	6
 2983 06ac 05        		.byte	5
 2984 06ad 04        		.byte	4
 2985 06ae 03        		.byte	3
 2986 06af 01        		.byte	1
 2987 06b0 01        		.byte	1
 2988 06b1 00        		.byte	0
 2989 06b2 FF        		.byte	-1
 2990 06b3 FF        		.byte	-1
 2991 06b4 FE        		.byte	-2
 2992 06b5 FD        		.byte	-3
 2993 06b6 FC        		.byte	-4
 2994 06b7 FB        		.byte	-5
 2995 06b8 F9        		.byte	-7
 2996 06b9 F8        		.byte	-8
 2997 06ba F8        		.byte	-8
 2998 06bb F8        		.byte	-8
 2999 06bc F7        		.byte	-9
 3000 06bd F6        		.byte	-10
 3001 06be F6        		.byte	-10
 3002 06bf F6        		.byte	-10
 3003 06c0 F5        		.byte	-11
 3004 06c1 F5        		.byte	-11
 3005 06c2 F4        		.byte	-12
 3006 06c3 F3        		.byte	-13
 3007 06c4 F3        		.byte	-13
 3008 06c5 F3        		.byte	-13
 3009 06c6 F1        		.byte	-15
 3010 06c7 F1        		.byte	-15
 3011 06c8 F0        		.byte	-16
 3012 06c9 F0        		.byte	-16
 3013 06ca F0        		.byte	-16
 3014 06cb EF        		.byte	-17
 3015 06cc F0        		.byte	-16
 3016 06cd F0        		.byte	-16
 3017 06ce F0        		.byte	-16
 3018 06cf F1        		.byte	-15
 3019 06d0 F3        		.byte	-13
 3020 06d1 F3        		.byte	-13
 3021 06d2 F5        		.byte	-11
 3022 06d3 F5        		.byte	-11
 3023 06d4 F5        		.byte	-11
 3024 06d5 F5        		.byte	-11
 3025 06d6 F5        		.byte	-11
 3026 06d7 F3        		.byte	-13
 3027 06d8 F4        		.byte	-12
 3028 06d9 F4        		.byte	-12
 3029 06da F3        		.byte	-13
GAS LISTING /tmp/ccEQRkCa.s 			page 57


 3030 06db F4        		.byte	-12
 3031 06dc F6        		.byte	-10
 3032 06dd F7        		.byte	-9
 3033 06de F8        		.byte	-8
 3034 06df FA        		.byte	-6
 3035 06e0 FC        		.byte	-4
 3036 06e1 FC        		.byte	-4
 3037 06e2 FE        		.byte	-2
 3038 06e3 FF        		.byte	-1
 3039 06e4 FF        		.byte	-1
 3040 06e5 01        		.byte	1
 3041 06e6 02        		.byte	2
 3042 06e7 01        		.byte	1
 3043 06e8 02        		.byte	2
 3044 06e9 02        		.byte	2
 3045 06ea 02        		.byte	2
 3046 06eb 02        		.byte	2
 3047 06ec 02        		.byte	2
 3048 06ed 02        		.byte	2
 3049 06ee 03        		.byte	3
 3050 06ef 04        		.byte	4
 3051 06f0 05        		.byte	5
 3052 06f1 05        		.byte	5
 3053 06f2 05        		.byte	5
 3054 06f3 04        		.byte	4
 3055 06f4 05        		.byte	5
 3056 06f5 04        		.byte	4
 3057 06f6 02        		.byte	2
 3058 06f7 02        		.byte	2
 3059 06f8 03        		.byte	3
 3060 06f9 02        		.byte	2
 3061 06fa 02        		.byte	2
 3062 06fb 02        		.byte	2
 3063 06fc 00        		.byte	0
 3064 06fd 01        		.byte	1
 3065 06fe 01        		.byte	1
 3066 06ff 01        		.byte	1
 3067 0700 01        		.byte	1
 3068 0701 01        		.byte	1
 3069 0702 01        		.byte	1
 3070 0703 01        		.byte	1
 3071 0704 01        		.byte	1
 3072 0705 01        		.byte	1
 3073 0706 FF        		.byte	-1
 3074 0707 01        		.byte	1
 3075 0708 FE        		.byte	-2
 3076 0709 FF        		.byte	-1
 3077 070a FE        		.byte	-2
 3078 070b FD        		.byte	-3
 3079 070c FE        		.byte	-2
 3080 070d FF        		.byte	-1
 3081 070e FF        		.byte	-1
 3082 070f 00        		.byte	0
 3083 0710 00        		.byte	0
 3084 0711 02        		.byte	2
 3085 0712 00        		.byte	0
 3086 0713 00        		.byte	0
GAS LISTING /tmp/ccEQRkCa.s 			page 58


 3087 0714 01        		.byte	1
 3088 0715 FF        		.byte	-1
 3089 0716 FF        		.byte	-1
 3090 0717 FE        		.byte	-2
 3091 0718 FD        		.byte	-3
 3092 0719 FC        		.byte	-4
 3093 071a FD        		.byte	-3
 3094 071b FC        		.byte	-4
 3095 071c FC        		.byte	-4
 3096 071d FB        		.byte	-5
 3097 071e FC        		.byte	-4
 3098 071f FC        		.byte	-4
 3099 0720 FB        		.byte	-5
 3100 0721 FD        		.byte	-3
 3101 0722 FA        		.byte	-6
 3102 0723 FB        		.byte	-5
 3103 0724 FB        		.byte	-5
 3104 0725 F9        		.byte	-7
 3105 0726 F9        		.byte	-7
 3106 0727 F8        		.byte	-8
 3107 0728 F7        		.byte	-9
 3108 0729 F8        		.byte	-8
 3109 072a F6        		.byte	-10
 3110 072b F8        		.byte	-8
 3111 072c F6        		.byte	-10
 3112 072d F8        		.byte	-8
 3113 072e F8        		.byte	-8
 3114 072f F7        		.byte	-9
 3115 0730 FB        		.byte	-5
 3116 0731 F9        		.byte	-7
 3117 0732 FC        		.byte	-4
 3118 0733 FD        		.byte	-3
 3119 0734 FB        		.byte	-5
 3120 0735 FF        		.byte	-1
 3121 0736 FC        		.byte	-4
 3122 0737 FD        		.byte	-3
 3123 0738 FF        		.byte	-1
 3124 0739 FB        		.byte	-5
 3125 073a FE        		.byte	-2
 3126 073b FC        		.byte	-4
 3127 073c FB        		.byte	-5
 3128 073d FC        		.byte	-4
 3129 073e FB        		.byte	-5
 3130 073f FC        		.byte	-4
 3131 0740 FB        		.byte	-5
 3132 0741 FB        		.byte	-5
 3133 0742 FC        		.byte	-4
 3134 0743 FA        		.byte	-6
 3135 0744 FB        		.byte	-5
 3136 0745 FD        		.byte	-3
 3137 0746 FC        		.byte	-4
 3138 0747 FD        		.byte	-3
 3139 0748 FE        		.byte	-2
 3140 0749 FC        		.byte	-4
 3141 074a FD        		.byte	-3
 3142 074b FC        		.byte	-4
 3143 074c FD        		.byte	-3
GAS LISTING /tmp/ccEQRkCa.s 			page 59


 3144 074d FC        		.byte	-4
 3145 074e FC        		.byte	-4
 3146 074f FA        		.byte	-6
 3147 0750 FC        		.byte	-4
 3148 0751 FB        		.byte	-5
 3149 0752 FC        		.byte	-4
 3150 0753 FC        		.byte	-4
 3151 0754 FC        		.byte	-4
 3152 0755 FD        		.byte	-3
 3153 0756 FD        		.byte	-3
 3154 0757 FE        		.byte	-2
 3155 0758 FD        		.byte	-3
 3156 0759 FD        		.byte	-3
 3157 075a FE        		.byte	-2
 3158 075b FD        		.byte	-3
 3159 075c FD        		.byte	-3
 3160 075d FF        		.byte	-1
 3161 075e FD        		.byte	-3
 3162 075f FF        		.byte	-1
 3163 0760 FF        		.byte	-1
 3164 0761 FF        		.byte	-1
 3165 0762 FF        		.byte	-1
 3166 0763 FF        		.byte	-1
 3167 0764 00        		.byte	0
 3168 0765 00        		.byte	0
 3169 0766 00        		.byte	0
 3170 0767 00        		.byte	0
 3171 0768 FF        		.byte	-1
 3172 0769 00        		.byte	0
 3173 076a 00        		.byte	0
 3174 076b 00        		.byte	0
 3175 076c 01        		.byte	1
 3176 076d 00        		.byte	0
 3177 076e 02        		.byte	2
 3178 076f 01        		.byte	1
 3179 0770 01        		.byte	1
 3180 0771 01        		.byte	1
 3181 0772 03        		.byte	3
 3182 0773 01        		.byte	1
 3183 0774 03        		.byte	3
 3184 0775 02        		.byte	2
 3185 0776 01        		.byte	1
 3186 0777 02        		.byte	2
 3187 0778 02        		.byte	2
 3188 0779 01        		.byte	1
 3189 077a 01        		.byte	1
 3190 077b 03        		.byte	3
 3191 077c 01        		.byte	1
 3192 077d 01        		.byte	1
 3193 077e 03        		.byte	3
 3194 077f 02        		.byte	2
 3195 0780 02        		.byte	2
 3196 0781 03        		.byte	3
 3197 0782 01        		.byte	1
 3198 0783 02        		.byte	2
 3199 0784 02        		.byte	2
 3200 0785 01        		.byte	1
GAS LISTING /tmp/ccEQRkCa.s 			page 60


 3201 0786 03        		.byte	3
 3202 0787 01        		.byte	1
 3203 0788 02        		.byte	2
 3204 0789 02        		.byte	2
 3205 078a 02        		.byte	2
 3206 078b 02        		.byte	2
 3207 078c 01        		.byte	1
 3208 078d 02        		.byte	2
 3209 078e 01        		.byte	1
 3210 078f 01        		.byte	1
 3211 0790 03        		.byte	3
 3212 0791 00        		.byte	0
 3213 0792 02        		.byte	2
 3214 0793 03        		.byte	3
 3215 0794 01        		.byte	1
 3216 0795 04        		.byte	4
 3217 0796 02        		.byte	2
 3218 0797 03        		.byte	3
 3219 0798 03        		.byte	3
 3220 0799 02        		.byte	2
 3221 079a 02        		.byte	2
 3222 079b 01        		.byte	1
 3223 079c 01        		.byte	1
 3224 079d 02        		.byte	2
 3225 079e 01        		.byte	1
 3226 079f 01        		.byte	1
 3227 07a0 01        		.byte	1
 3228 07a1 01        		.byte	1
 3229 07a2 00        		.byte	0
 3230 07a3 02        		.byte	2
 3231 07a4 00        		.byte	0
 3232 07a5 01        		.byte	1
 3233 07a6 01        		.byte	1
 3234 07a7 00        		.byte	0
 3235 07a8 01        		.byte	1
 3236 07a9 FF        		.byte	-1
 3237 07aa 00        		.byte	0
 3238 07ab 00        		.byte	0
 3239 07ac 00        		.byte	0
 3240 07ad FF        		.byte	-1
 3241 07ae 00        		.byte	0
 3242 07af 00        		.byte	0
 3243 07b0 00        		.byte	0
 3244 07b1 FF        		.byte	-1
 3245 07b2 00        		.byte	0
 3246 07b3 00        		.byte	0
 3247 07b4 00        		.byte	0
 3248 07b5 00        		.byte	0
 3249 07b6 00        		.byte	0
 3250 07b7 00        		.byte	0
 3251 07b8 00        		.byte	0
 3252 07b9 00        		.byte	0
 3253 07ba 01        		.byte	1
 3254 07bb FF        		.byte	-1
 3255 07bc FF        		.byte	-1
 3256 07bd 01        		.byte	1
 3257 07be FF        		.byte	-1
GAS LISTING /tmp/ccEQRkCa.s 			page 61


 3258 07bf 00        		.byte	0
 3259 07c0 00        		.byte	0
 3260 07c1 00        		.byte	0
 3261 07c2 FF        		.byte	-1
 3262 07c3 00        		.byte	0
 3263 07c4 FF        		.byte	-1
 3264 07c5 FE        		.byte	-2
 3265 07c6 00        		.byte	0
 3266 07c7 FE        		.byte	-2
 3267 07c8 FF        		.byte	-1
 3268 07c9 FE        		.byte	-2
 3269 07ca FF        		.byte	-1
 3270 07cb FE        		.byte	-2
 3271 07cc FE        		.byte	-2
 3272 07cd FF        		.byte	-1
 3273 07ce FD        		.byte	-3
 3274 07cf 00        		.byte	0
 3275 07d0 FE        		.byte	-2
 3276 07d1 FF        		.byte	-1
 3277 07d2 00        		.byte	0
 3278 07d3 FE        		.byte	-2
 3279 07d4 FE        		.byte	-2
 3280 07d5 00        		.byte	0
 3281 07d6 FE        		.byte	-2
 3282 07d7 FF        		.byte	-1
 3283 07d8 01        		.byte	1
 3284 07d9 FE        		.byte	-2
 3285 07da 01        		.byte	1
 3286 07db 00        		.byte	0
 3287 07dc FF        		.byte	-1
 3288 07dd 01        		.byte	1
 3289 07de 00        		.byte	0
 3290 07df 00        		.byte	0
 3291 07e0 01        		.byte	1
 3292 07e1 00        		.byte	0
 3293 07e2 02        		.byte	2
 3294 07e3 00        		.byte	0
 3295 07e4 02        		.byte	2
 3296 07e5 01        		.byte	1
 3297 07e6 01        		.byte	1
 3298 07e7 03        		.byte	3
 3299 07e8 FF        		.byte	-1
 3300 07e9 02        		.byte	2
 3301 07ea 01        		.byte	1
 3302 07eb 01        		.byte	1
 3303 07ec 02        		.byte	2
 3304 07ed FF        		.byte	-1
 3305 07ee 01        		.byte	1
 3306 07ef 01        		.byte	1
 3307 07f0 00        		.byte	0
 3308 07f1 01        		.byte	1
 3309 07f2 00        		.byte	0
 3310 07f3 FF        		.byte	-1
 3311 07f4 00        		.byte	0
 3312 07f5 FF        		.byte	-1
 3313 07f6 00        		.byte	0
 3314 07f7 FF        		.byte	-1
GAS LISTING /tmp/ccEQRkCa.s 			page 62


 3315 07f8 01        		.byte	1
 3316 07f9 FE        		.byte	-2
 3317 07fa 01        		.byte	1
 3318 07fb FF        		.byte	-1
 3319 07fc 00        		.byte	0
 3320 07fd 01        		.byte	1
 3321 07fe 00        		.byte	0
 3322 07ff FF        		.byte	-1
 3323 0800 01        		.byte	1
 3324 0801 00        		.byte	0
 3325 0802 00        		.byte	0
 3326 0803 00        		.byte	0
 3327 0804 01        		.byte	1
 3328 0805 00        		.byte	0
 3329 0806 01        		.byte	1
 3330 0807 01        		.byte	1
 3331 0808 00        		.byte	0
 3332 0809 02        		.byte	2
 3333 080a 01        		.byte	1
 3334 080b 00        		.byte	0
 3335 080c 02        		.byte	2
 3336 080d 00        		.byte	0
 3337 080e 01        		.byte	1
 3338 080f 02        		.byte	2
 3339 0810 FF        		.byte	-1
 3340 0811 03        		.byte	3
 3341 0812 01        		.byte	1
 3342 0813 00        		.byte	0
 3343 0814 03        		.byte	3
 3344 0815 00        		.byte	0
 3345 0816 02        		.byte	2
 3346 0817 03        		.byte	3
 3347 0818 01        		.byte	1
 3348 0819 02        		.byte	2
 3349 081a 02        		.byte	2
 3350 081b 02        		.byte	2
 3351 081c 02        		.byte	2
 3352 081d 01        		.byte	1
 3353 081e 03        		.byte	3
 3354 081f 02        		.byte	2
 3355 0820 02        		.byte	2
 3356 0821 03        		.byte	3
 3357 0822 02        		.byte	2
 3358 0823 02        		.byte	2
 3359 0824 03        		.byte	3
 3360 0825 01        		.byte	1
 3361 0826 03        		.byte	3
 3362 0827 02        		.byte	2
 3363 0828 02        		.byte	2
 3364 0829 02        		.byte	2
 3365 082a 01        		.byte	1
 3366 082b 02        		.byte	2
 3367 082c 03        		.byte	3
 3368 082d 01        		.byte	1
 3369 082e 03        		.byte	3
 3370 082f 02        		.byte	2
 3371 0830 01        		.byte	1
GAS LISTING /tmp/ccEQRkCa.s 			page 63


 3372 0831 03        		.byte	3
 3373 0832 02        		.byte	2
 3374 0833 02        		.byte	2
 3375 0834 03        		.byte	3
 3376 0835 02        		.byte	2
 3377 0836 03        		.byte	3
 3378 0837 03        		.byte	3
 3379 0838 02        		.byte	2
 3380 0839 04        		.byte	4
 3381 083a 02        		.byte	2
 3382 083b 03        		.byte	3
 3383 083c 03        		.byte	3
 3384 083d 02        		.byte	2
 3385 083e 03        		.byte	3
 3386 083f 03        		.byte	3
 3387 0840 02        		.byte	2
 3388 0841 03        		.byte	3
 3389 0842 02        		.byte	2
 3390 0843 02        		.byte	2
 3391 0844 01        		.byte	1
 3392 0845 02        		.byte	2
 3393 0846 01        		.byte	1
 3394 0847 01        		.byte	1
 3395 0848 01        		.byte	1
 3396 0849 00        		.byte	0
 3397 084a 01        		.byte	1
 3398 084b 00        		.byte	0
 3399 084c 00        		.byte	0
 3400 084d 01        		.byte	1
 3401 084e FF        		.byte	-1
 3402 084f 00        		.byte	0
 3403 0850 00        		.byte	0
 3404 0851 FF        		.byte	-1
 3405 0852 00        		.byte	0
 3406 0853 00        		.byte	0
 3407 0854 FF        		.byte	-1
 3408 0855 FF        		.byte	-1
 3409 0856 01        		.byte	1
 3410 0857 FF        		.byte	-1
 3411 0858 00        		.byte	0
 3412 0859 00        		.byte	0
 3413 085a 00        		.byte	0
 3414 085b 00        		.byte	0
 3415 085c 00        		.byte	0
 3416 085d 01        		.byte	1
 3417 085e 00        		.byte	0
 3418 085f 00        		.byte	0
 3419 0860 00        		.byte	0
 3420 0861 01        		.byte	1
 3421 0862 00        		.byte	0
 3422 0863 00        		.byte	0
 3423 0864 01        		.byte	1
 3424 0865 00        		.byte	0
 3425 0866 00        		.byte	0
 3426 0867 02        		.byte	2
 3427 0868 00        		.byte	0
 3428 0869 01        		.byte	1
GAS LISTING /tmp/ccEQRkCa.s 			page 64


 3429 086a 01        		.byte	1
 3430 086b 00        		.byte	0
 3431 086c 01        		.byte	1
 3432 086d 01        		.byte	1
 3433 086e 01        		.byte	1
 3434 086f 01        		.byte	1
 3435 0870 01        		.byte	1
 3436 0871 01        		.byte	1
 3437 0872 01        		.byte	1
 3438 0873 02        		.byte	2
 3439 0874 00        		.byte	0
 3440 0875 02        		.byte	2
 3441 0876 01        		.byte	1
 3442 0877 01        		.byte	1
 3443 0878 01        		.byte	1
 3444 0879 01        		.byte	1
 3445 087a 02        		.byte	2
 3446 087b 01        		.byte	1
 3447 087c 01        		.byte	1
 3448 087d 02        		.byte	2
 3449 087e 00        		.byte	0
 3450 087f 02        		.byte	2
 3451 0880 01        		.byte	1
 3452 0881 01        		.byte	1
 3453 0882 01        		.byte	1
 3454 0883 01        		.byte	1
 3455 0884 02        		.byte	2
 3456 0885 FF        		.byte	-1
 3457 0886 02        		.byte	2
 3458 0887 00        		.byte	0
 3459 0888 00        		.byte	0
 3460 0889 01        		.byte	1
 3461 088a FE        		.byte	-2
 3462 088b 01        		.byte	1
 3463 088c FE        		.byte	-2
 3464 088d 00        		.byte	0
 3465 088e 00        		.byte	0
 3466 088f FE        		.byte	-2
 3467 0890 01        		.byte	1
 3468 0891 FE        		.byte	-2
 3469 0892 00        		.byte	0
 3470 0893 FF        		.byte	-1
 3471 0894 FF        		.byte	-1
 3472 0895 01        		.byte	1
 3473 0896 FF        		.byte	-1
 3474 0897 00        		.byte	0
 3475 0898 01        		.byte	1
 3476 0899 00        		.byte	0
 3477 089a 01        		.byte	1
 3478 089b 01        		.byte	1
 3479 089c 02        		.byte	2
 3480 089d 01        		.byte	1
 3481 089e 02        		.byte	2
 3482 089f 01        		.byte	1
 3483 08a0 01        		.byte	1
 3484 08a1 01        		.byte	1
 3485 08a2 01        		.byte	1
GAS LISTING /tmp/ccEQRkCa.s 			page 65


 3486 08a3 01        		.byte	1
 3487 08a4 01        		.byte	1
 3488 08a5 00        		.byte	0
 3489 08a6 01        		.byte	1
 3490 08a7 00        		.byte	0
 3491 08a8 01        		.byte	1
 3492 08a9 01        		.byte	1
 3493 08aa FF        		.byte	-1
 3494 08ab 01        		.byte	1
 3495 08ac 00        		.byte	0
 3496 08ad 00        		.byte	0
 3497 08ae 01        		.byte	1
 3498 08af 00        		.byte	0
 3499 08b0 00        		.byte	0
 3500 08b1 00        		.byte	0
 3501 08b2 00        		.byte	0
 3502 08b3 01        		.byte	1
 3503 08b4 01        		.byte	1
 3504 08b5 01        		.byte	1
 3505 08b6 00        		.byte	0
 3506 08b7 01        		.byte	1
 3507 08b8 01        		.byte	1
 3508 08b9 01        		.byte	1
 3509 08ba 00        		.byte	0
 3510 08bb 02        		.byte	2
 3511 08bc 00        		.byte	0
 3512 08bd 00        		.byte	0
 3513 08be 01        		.byte	1
 3514 08bf 00        		.byte	0
 3515 08c0 01        		.byte	1
 3516 08c1 00        		.byte	0
 3517 08c2 00        		.byte	0
 3518 08c3 01        		.byte	1
 3519 08c4 01        		.byte	1
 3520 08c5 00        		.byte	0
 3521 08c6 00        		.byte	0
 3522 08c7 00        		.byte	0
 3523 08c8 01        		.byte	1
 3524 08c9 00        		.byte	0
 3525 08ca 01        		.byte	1
 3526 08cb 00        		.byte	0
 3527 08cc 00        		.byte	0
 3528 08cd 01        		.byte	1
 3529 08ce 00        		.byte	0
 3530 08cf 01        		.byte	1
 3531 08d0 01        		.byte	1
 3532 08d1 01        		.byte	1
 3533 08d2 01        		.byte	1
 3534 08d3 00        		.byte	0
 3535 08d4 01        		.byte	1
 3536 08d5 01        		.byte	1
 3537 08d6 00        		.byte	0
 3538 08d7 02        		.byte	2
 3539 08d8 01        		.byte	1
 3540 08d9 01        		.byte	1
 3541 08da 02        		.byte	2
 3542 08db 01        		.byte	1
GAS LISTING /tmp/ccEQRkCa.s 			page 66


 3543 08dc 01        		.byte	1
 3544 08dd 02        		.byte	2
 3545 08de 01        		.byte	1
 3546 08df 01        		.byte	1
 3547 08e0 01        		.byte	1
 3548 08e1 01        		.byte	1
 3549 08e2 02        		.byte	2
 3550 08e3 01        		.byte	1
 3551 08e4 02        		.byte	2
 3552 08e5 FF        		.byte	-1
 3553 08e6 02        		.byte	2
 3554 08e7 01        		.byte	1
 3555 08e8 00        		.byte	0
 3556 08e9 02        		.byte	2
 3557 08ea 00        		.byte	0
 3558 08eb 01        		.byte	1
 3559 08ec 01        		.byte	1
 3560 08ed 01        		.byte	1
 3561 08ee 01        		.byte	1
 3562 08ef 01        		.byte	1
 3563 08f0 01        		.byte	1
 3564 08f1 01        		.byte	1
 3565 08f2 01        		.byte	1
 3566 08f3 01        		.byte	1
 3567 08f4 00        		.byte	0
 3568 08f5 01        		.byte	1
 3569 08f6 00        		.byte	0
 3570 08f7 01        		.byte	1
 3571 08f8 01        		.byte	1
 3572 08f9 FF        		.byte	-1
 3573 08fa 01        		.byte	1
 3574 08fb 00        		.byte	0
 3575 08fc 01        		.byte	1
 3576 08fd 01        		.byte	1
 3577 08fe 00        		.byte	0
 3578 08ff 01        		.byte	1
 3579 0900 00        		.byte	0
 3580 0901 01        		.byte	1
 3581 0902 01        		.byte	1
 3582 0903 00        		.byte	0
 3583 0904 01        		.byte	1
 3584 0905 00        		.byte	0
 3585 0906 01        		.byte	1
 3586 0907 00        		.byte	0
 3587 0908 01        		.byte	1
 3588 0909 00        		.byte	0
 3589 090a 00        		.byte	0
 3590 090b 00        		.byte	0
 3591 090c 00        		.byte	0
 3592 090d 01        		.byte	1
 3593 090e FF        		.byte	-1
 3594 090f 01        		.byte	1
 3595 0910 FF        		.byte	-1
 3596 0911 00        		.byte	0
 3597 0912 00        		.byte	0
 3598 0913 00        		.byte	0
 3599 0914 01        		.byte	1
GAS LISTING /tmp/ccEQRkCa.s 			page 67


 3600 0915 FF        		.byte	-1
 3601 0916 00        		.byte	0
 3602 0917 FF        		.byte	-1
 3603 0918 00        		.byte	0
 3604 0919 00        		.byte	0
 3605 091a FF        		.byte	-1
 3606 091b 01        		.byte	1
 3607 091c FF        		.byte	-1
 3608 091d 00        		.byte	0
 3609 091e FF        		.byte	-1
 3610 091f FF        		.byte	-1
 3611 0920 00        		.byte	0
 3612 0921 FF        		.byte	-1
 3613 0922 00        		.byte	0
 3614 0923 00        		.byte	0
 3615 0924 FF        		.byte	-1
 3616 0925 FF        		.byte	-1
 3617 0926 00        		.byte	0
 3618 0927 FF        		.byte	-1
 3619 0928 FF        		.byte	-1
 3620 0929 FF        		.byte	-1
 3621 092a FF        		.byte	-1
 3622 092b FE        		.byte	-2
 3623 092c 00        		.byte	0
 3624 092d FE        		.byte	-2
 3625 092e FF        		.byte	-1
 3626 092f FF        		.byte	-1
 3627 0930 FD        		.byte	-3
 3628 0931 01        		.byte	1
 3629 0932 FD        		.byte	-3
 3630 0933 00        		.byte	0
 3631 0934 00        		.byte	0
 3632 0935 FF        		.byte	-1
 3633 0936 01        		.byte	1
 3634 0937 FF        		.byte	-1
 3635 0938 00        		.byte	0
 3636 0939 01        		.byte	1
 3637 093a FE        		.byte	-2
 3638 093b 01        		.byte	1
 3639 093c 00        		.byte	0
 3640 093d 00        		.byte	0
 3641 093e 01        		.byte	1
 3642 093f 00        		.byte	0
 3643 0940 01        		.byte	1
 3644 0941 00        		.byte	0
 3645 0942 00        		.byte	0
 3646 0943 00        		.byte	0
 3647 0944 01        		.byte	1
 3648 0945 00        		.byte	0
 3649 0946 01        		.byte	1
 3650 0947 00        		.byte	0
 3651 0948 00        		.byte	0
 3652 0949 00        		.byte	0
 3653 094a FF        		.byte	-1
 3654 094b 00        		.byte	0
 3655 094c 00        		.byte	0
 3656 094d 00        		.byte	0
GAS LISTING /tmp/ccEQRkCa.s 			page 68


 3657 094e 00        		.byte	0
 3658 094f 00        		.byte	0
 3659 0950 00        		.byte	0
 3660 0951 00        		.byte	0
 3661 0952 01        		.byte	1
 3662 0953 00        		.byte	0
 3663 0954 00        		.byte	0
 3664 0955 00        		.byte	0
 3665 0956 00        		.byte	0
 3666 0957 00        		.byte	0
 3667 0958 00        		.byte	0
 3668 0959 00        		.byte	0
 3669 095a 00        		.byte	0
 3670 095b 00        		.byte	0
 3671 095c 00        		.byte	0
 3672 095d 00        		.byte	0
 3673 095e 00        		.byte	0
 3674 095f 01        		.byte	1
 3675 0960 FF        		.byte	-1
 3676 0961 FF        		.byte	-1
 3677 0962 00        		.byte	0
 3678 0963 FF        		.byte	-1
 3679 0964 FF        		.byte	-1
 3680 0965 FF        		.byte	-1
 3681 0966 FF        		.byte	-1
 3682 0967 FF        		.byte	-1
 3683 0968 00        		.byte	0
 3684 0969 FF        		.byte	-1
 3685 096a 00        		.byte	0
 3686 096b 00        		.byte	0
 3687 096c 00        		.byte	0
 3688 096d FF        		.byte	-1
 3689 096e 00        		.byte	0
 3690 096f 00        		.byte	0
 3691 0970 FF        		.byte	-1
 3692 0971 01        		.byte	1
 3693 0972 FF        		.byte	-1
 3694 0973 00        		.byte	0
 3695 0974 00        		.byte	0
 3696 0975 00        		.byte	0
 3697 0976 FF        		.byte	-1
 3698 0977 01        		.byte	1
 3699 0978 FF        		.byte	-1
 3700 0979 00        		.byte	0
 3701 097a FF        		.byte	-1
 3702 097b FF        		.byte	-1
 3703 097c 00        		.byte	0
 3704 097d FE        		.byte	-2
 3705 097e 00        		.byte	0
 3706 097f FF        		.byte	-1
 3707 0980 FF        		.byte	-1
 3708 0981 00        		.byte	0
 3709 0982 FE        		.byte	-2
 3710 0983 00        		.byte	0
 3711 0984 FF        		.byte	-1
 3712 0985 00        		.byte	0
 3713 0986 FF        		.byte	-1
GAS LISTING /tmp/ccEQRkCa.s 			page 69


 3714 0987 00        		.byte	0
 3715 0988 FF        		.byte	-1
 3716 0989 FF        		.byte	-1
 3717 098a FF        		.byte	-1
 3718 098b 00        		.byte	0
 3719 098c FF        		.byte	-1
 3720 098d FF        		.byte	-1
 3721 098e 00        		.byte	0
 3722 098f FF        		.byte	-1
 3723 0990 00        		.byte	0
 3724 0991 FF        		.byte	-1
 3725 0992 00        		.byte	0
 3726 0993 FF        		.byte	-1
 3727 0994 00        		.byte	0
 3728 0995 FF        		.byte	-1
 3729 0996 FE        		.byte	-2
 3730 0997 FF        		.byte	-1
 3731 0998 FE        		.byte	-2
 3732 0999 FF        		.byte	-1
 3733 099a FF        		.byte	-1
 3734 099b FE        		.byte	-2
 3735 099c FE        		.byte	-2
 3736 099d FE        		.byte	-2
 3737 099e FE        		.byte	-2
 3738 099f FE        		.byte	-2
 3739 09a0 FD        		.byte	-3
 3740 09a1 FD        		.byte	-3
 3741 09a2 FD        		.byte	-3
 3742 09a3 FD        		.byte	-3
 3743 09a4 FD        		.byte	-3
 3744 09a5 FD        		.byte	-3
 3745 09a6 FD        		.byte	-3
 3746 09a7 FE        		.byte	-2
 3747 09a8 FC        		.byte	-4
 3748 09a9 FE        		.byte	-2
 3749 09aa FD        		.byte	-3
 3750 09ab FD        		.byte	-3
 3751 09ac FE        		.byte	-2
 3752 09ad FD        		.byte	-3
 3753 09ae FD        		.byte	-3
 3754 09af FE        		.byte	-2
 3755 09b0 FD        		.byte	-3
 3756 09b1 FF        		.byte	-1
 3757 09b2 FD        		.byte	-3
 3758 09b3 FE        		.byte	-2
 3759 09b4 FD        		.byte	-3
 3760 09b5 FE        		.byte	-2
 3761 09b6 FE        		.byte	-2
 3762 09b7 FE        		.byte	-2
 3763 09b8 FE        		.byte	-2
 3764 09b9 FE        		.byte	-2
 3765 09ba FE        		.byte	-2
 3766 09bb FE        		.byte	-2
 3767 09bc FE        		.byte	-2
 3768 09bd FE        		.byte	-2
 3769 09be FE        		.byte	-2
 3770 09bf FD        		.byte	-3
GAS LISTING /tmp/ccEQRkCa.s 			page 70


 3771 09c0 FE        		.byte	-2
 3772 09c1 FE        		.byte	-2
 3773 09c2 FD        		.byte	-3
 3774 09c3 FF        		.byte	-1
 3775 09c4 FD        		.byte	-3
 3776 09c5 FE        		.byte	-2
 3777 09c6 FD        		.byte	-3
 3778 09c7 FD        		.byte	-3
 3779 09c8 FE        		.byte	-2
 3780 09c9 FC        		.byte	-4
 3781 09ca FF        		.byte	-1
 3782 09cb FD        		.byte	-3
 3783 09cc FE        		.byte	-2
 3784 09cd FE        		.byte	-2
 3785 09ce FD        		.byte	-3
 3786 09cf FF        		.byte	-1
 3787 09d0 FD        		.byte	-3
 3788 09d1 FE        		.byte	-2
 3789 09d2 FD        		.byte	-3
 3790 09d3 FF        		.byte	-1
 3791 09d4 FD        		.byte	-3
 3792 09d5 FE        		.byte	-2
 3793 09d6 FE        		.byte	-2
 3794 09d7 FD        		.byte	-3
 3795 09d8 FF        		.byte	-1
 3796 09d9 FD        		.byte	-3
 3797 09da FF        		.byte	-1
 3798 09db FE        		.byte	-2
 3799 09dc FE        		.byte	-2
 3800 09dd FE        		.byte	-2
 3801 09de FE        		.byte	-2
 3802 09df FE        		.byte	-2
 3803 09e0 FE        		.byte	-2
 3804 09e1 FE        		.byte	-2
 3805 09e2 FE        		.byte	-2
 3806 09e3 FF        		.byte	-1
 3807 09e4 FE        		.byte	-2
 3808 09e5 FF        		.byte	-1
 3809 09e6 FE        		.byte	-2
 3810 09e7 FE        		.byte	-2
 3811 09e8 00        		.byte	0
 3812 09e9 FE        		.byte	-2
 3813 09ea 00        		.byte	0
 3814 09eb FF        		.byte	-1
 3815 09ec FE        		.byte	-2
 3816 09ed 00        		.byte	0
 3817 09ee FF        		.byte	-1
 3818 09ef FF        		.byte	-1
 3819 09f0 00        		.byte	0
 3820 09f1 FE        		.byte	-2
 3821 09f2 00        		.byte	0
 3822 09f3 FF        		.byte	-1
 3823 09f4 00        		.byte	0
 3824 09f5 00        		.byte	0
 3825 09f6 FE        		.byte	-2
 3826 09f7 00        		.byte	0
 3827 09f8 FF        		.byte	-1
GAS LISTING /tmp/ccEQRkCa.s 			page 71


 3828 09f9 FF        		.byte	-1
 3829 09fa 00        		.byte	0
 3830 09fb FF        		.byte	-1
 3831 09fc FF        		.byte	-1
 3832 09fd 00        		.byte	0
 3833 09fe FF        		.byte	-1
 3834 09ff FF        		.byte	-1
 3835 0a00 00        		.byte	0
 3836 0a01 FF        		.byte	-1
 3837 0a02 00        		.byte	0
 3838 0a03 FF        		.byte	-1
 3839 0a04 FF        		.byte	-1
 3840 0a05 FF        		.byte	-1
 3841 0a06 FF        		.byte	-1
 3842 0a07 FF        		.byte	-1
 3843 0a08 00        		.byte	0
 3844 0a09 FF        		.byte	-1
 3845 0a0a 00        		.byte	0
 3846 0a0b FF        		.byte	-1
 3847 0a0c FF        		.byte	-1
 3848 0a0d 00        		.byte	0
 3849 0a0e FE        		.byte	-2
 3850 0a0f FF        		.byte	-1
 3851 0a10 FF        		.byte	-1
 3852 0a11 FE        		.byte	-2
 3853 0a12 FF        		.byte	-1
 3854 0a13 FD        		.byte	-3
 3855 0a14 00        		.byte	0
 3856 0a15 FC        		.byte	-4
 3857 0a16 00        		.byte	0
 3858 0a17 FF        		.byte	-1
 3859 0a18 FE        		.byte	-2
 3860 0a19 00        		.byte	0
 3861 0a1a FE        		.byte	-2
 3862 0a1b 00        		.byte	0
 3863 0a1c FE        		.byte	-2
 3864 0a1d 00        		.byte	0
 3865 0a1e FF        		.byte	-1
 3866 0a1f FE        		.byte	-2
 3867 0a20 01        		.byte	1
 3868 0a21 FE        		.byte	-2
 3869 0a22 00        		.byte	0
 3870 0a23 FF        		.byte	-1
 3871 0a24 00        		.byte	0
 3872 0a25 FF        		.byte	-1
 3873 0a26 FF        		.byte	-1
 3874 0a27 01        		.byte	1
 3875 0a28 FE        		.byte	-2
 3876 0a29 01        		.byte	1
 3877 0a2a 00        		.byte	0
 3878 0a2b 00        		.byte	0
 3879 0a2c FF        		.byte	-1
 3880 0a2d 00        		.byte	0
 3881 0a2e FF        		.byte	-1
 3882 0a2f FF        		.byte	-1
 3883 0a30 01        		.byte	1
 3884 0a31 FF        		.byte	-1
GAS LISTING /tmp/ccEQRkCa.s 			page 72


 3885 0a32 FF        		.byte	-1
 3886 0a33 FF        		.byte	-1
 3887 0a34 FF        		.byte	-1
 3888 0a35 FF        		.byte	-1
 3889 0a36 FF        		.byte	-1
 3890 0a37 FF        		.byte	-1
 3891 0a38 FF        		.byte	-1
 3892 0a39 FE        		.byte	-2
 3893 0a3a FF        		.byte	-1
 3894 0a3b FE        		.byte	-2
 3895 0a3c FF        		.byte	-1
 3896 0a3d FE        		.byte	-2
 3897 0a3e FE        		.byte	-2
 3898 0a3f FE        		.byte	-2
 3899 0a40 FE        		.byte	-2
 3900 0a41 FF        		.byte	-1
 3901 0a42 FD        		.byte	-3
 3902 0a43 FE        		.byte	-2
 3903 0a44 FE        		.byte	-2
 3904 0a45 FE        		.byte	-2
 3905 0a46 FD        		.byte	-3
 3906 0a47 FF        		.byte	-1
 3907 0a48 FE        		.byte	-2
 3908 0a49 FD        		.byte	-3
 3909 0a4a FF        		.byte	-1
 3910 0a4b FE        		.byte	-2
 3911 0a4c FE        		.byte	-2
 3912 0a4d FF        		.byte	-1
 3913 0a4e FE        		.byte	-2
 3914 0a4f FE        		.byte	-2
 3915 0a50 FF        		.byte	-1
 3916 0a51 FF        		.byte	-1
 3917 0a52 FE        		.byte	-2
 3918 0a53 FF        		.byte	-1
 3919 0a54 FF        		.byte	-1
 3920 0a55 FF        		.byte	-1
 3921 0a56 FF        		.byte	-1
 3922 0a57 FF        		.byte	-1
 3923 0a58 FE        		.byte	-2
 3924 0a59 FF        		.byte	-1
 3925 0a5a FF        		.byte	-1
 3926 0a5b FF        		.byte	-1
 3927 0a5c FE        		.byte	-2
 3928 0a5d 00        		.byte	0
 3929 0a5e FE        		.byte	-2
 3930 0a5f FF        		.byte	-1
 3931 0a60 FF        		.byte	-1
 3932 0a61 FF        		.byte	-1
 3933 0a62 FE        		.byte	-2
 3934 0a63 FF        		.byte	-1
 3935 0a64 FF        		.byte	-1
 3936 0a65 FE        		.byte	-2
 3937 0a66 FF        		.byte	-1
 3938 0a67 00        		.byte	0
 3939 0a68 FE        		.byte	-2
 3940 0a69 00        		.byte	0
 3941 0a6a FF        		.byte	-1
GAS LISTING /tmp/ccEQRkCa.s 			page 73


 3942 0a6b FF        		.byte	-1
 3943 0a6c FF        		.byte	-1
 3944 0a6d FF        		.byte	-1
 3945 0a6e FF        		.byte	-1
 3946 0a6f FF        		.byte	-1
 3947 0a70 00        		.byte	0
 3948 0a71 FE        		.byte	-2
 3949 0a72 FF        		.byte	-1
 3950 0a73 FE        		.byte	-2
 3951 0a74 FF        		.byte	-1
 3952 0a75 FF        		.byte	-1
 3953 0a76 FF        		.byte	-1
 3954 0a77 FF        		.byte	-1
 3955 0a78 FF        		.byte	-1
 3956 0a79 FF        		.byte	-1
 3957 0a7a FF        		.byte	-1
 3958 0a7b 00        		.byte	0
 3959 0a7c FF        		.byte	-1
 3960 0a7d 00        		.byte	0
 3961 0a7e FF        		.byte	-1
 3962 0a7f FF        		.byte	-1
 3963 0a80 FF        		.byte	-1
 3964 0a81 FF        		.byte	-1
 3965 0a82 FE        		.byte	-2
 3966 0a83 00        		.byte	0
 3967 0a84 FD        		.byte	-3
 3968 0a85 00        		.byte	0
 3969 0a86 FF        		.byte	-1
 3970 0a87 FE        		.byte	-2
 3971 0a88 01        		.byte	1
 3972 0a89 FE        		.byte	-2
 3973 0a8a FF        		.byte	-1
 3974 0a8b 00        		.byte	0
 3975 0a8c FE        		.byte	-2
 3976 0a8d FF        		.byte	-1
 3977 0a8e FF        		.byte	-1
 3978 0a8f 00        		.byte	0
 3979 0a90 FE        		.byte	-2
 3980 0a91 FF        		.byte	-1
 3981 0a92 FF        		.byte	-1
 3982 0a93 FE        		.byte	-2
 3983 0a94 FF        		.byte	-1
 3984 0a95 FE        		.byte	-2
 3985 0a96 FF        		.byte	-1
 3986 0a97 FE        		.byte	-2
 3987 0a98 FE        		.byte	-2
 3988 0a99 00        		.byte	0
 3989 0a9a FD        		.byte	-3
 3990 0a9b 00        		.byte	0
 3991 0a9c FF        		.byte	-1
 3992 0a9d FD        		.byte	-3
 3993 0a9e 01        		.byte	1
 3994 0a9f FE        		.byte	-2
 3995 0aa0 FE        		.byte	-2
 3996 0aa1 01        		.byte	1
 3997 0aa2 FE        		.byte	-2
 3998 0aa3 FF        		.byte	-1
GAS LISTING /tmp/ccEQRkCa.s 			page 74


 3999 0aa4 00        		.byte	0
 4000 0aa5 FE        		.byte	-2
 4001 0aa6 00        		.byte	0
 4002 0aa7 FF        		.byte	-1
 4003 0aa8 00        		.byte	0
 4004 0aa9 FF        		.byte	-1
 4005 0aaa FF        		.byte	-1
 4006 0aab 00        		.byte	0
 4007 0aac FE        		.byte	-2
 4008 0aad 00        		.byte	0
 4009 0aae FF        		.byte	-1
 4010 0aaf FF        		.byte	-1
 4011 0ab0 FF        		.byte	-1
 4012 0ab1 FF        		.byte	-1
 4013 0ab2 FE        		.byte	-2
 4014 0ab3 00        		.byte	0
 4015 0ab4 FF        		.byte	-1
 4016 0ab5 FF        		.byte	-1
 4017 0ab6 00        		.byte	0
 4018 0ab7 FF        		.byte	-1
 4019 0ab8 00        		.byte	0
 4020 0ab9 FE        		.byte	-2
 4021 0aba 00        		.byte	0
 4022 0abb FF        		.byte	-1
 4023 0abc FE        		.byte	-2
 4024 0abd 01        		.byte	1
 4025 0abe FD        		.byte	-3
 4026 0abf 01        		.byte	1
 4027 0ac0 FE        		.byte	-2
 4028 0ac1 00        		.byte	0
 4029 0ac2 00        		.byte	0
 4030 0ac3 FF        		.byte	-1
 4031 0ac4 01        		.byte	1
 4032 0ac5 FF        		.byte	-1
 4033 0ac6 01        		.byte	1
 4034 0ac7 FF        		.byte	-1
 4035 0ac8 00        		.byte	0
 4036 0ac9 01        		.byte	1
 4037 0aca FF        		.byte	-1
 4038 0acb 01        		.byte	1
 4039 0acc 01        		.byte	1
 4040 0acd 00        		.byte	0
 4041 0ace 01        		.byte	1
 4042 0acf 01        		.byte	1
 4043 0ad0 00        		.byte	0
 4044 0ad1 00        		.byte	0
 4045 0ad2 00        		.byte	0
 4046 0ad3 00        		.byte	0
 4047 0ad4 00        		.byte	0
 4048 0ad5 00        		.byte	0
 4049 0ad6 00        		.byte	0
 4050 0ad7 00        		.byte	0
 4051 0ad8 FF        		.byte	-1
 4052 0ad9 00        		.byte	0
 4053 0ada FF        		.byte	-1
 4054 0adb 00        		.byte	0
 4055 0adc 00        		.byte	0
GAS LISTING /tmp/ccEQRkCa.s 			page 75


 4056 0add FF        		.byte	-1
 4057 0ade 00        		.byte	0
 4058 0adf FE        		.byte	-2
 4059 0ae0 00        		.byte	0
 4060 0ae1 FF        		.byte	-1
 4061 0ae2 FF        		.byte	-1
 4062 0ae3 00        		.byte	0
 4063 0ae4 FD        		.byte	-3
 4064 0ae5 00        		.byte	0
 4065 0ae6 FE        		.byte	-2
 4066 0ae7 FF        		.byte	-1
 4067 0ae8 FF        		.byte	-1
 4068 0ae9 FF        		.byte	-1
 4069 0aea FF        		.byte	-1
 4070 0aeb FE        		.byte	-2
 4071 0aec 00        		.byte	0
 4072 0aed FE        		.byte	-2
 4073 0aee FE        		.byte	-2
 4074 0aef FF        		.byte	-1
 4075 0af0 FE        		.byte	-2
 4076 0af1 FF        		.byte	-1
 4077 0af2 FE        		.byte	-2
 4078 0af3 FE        		.byte	-2
 4079 0af4 FF        		.byte	-1
 4080 0af5 FD        		.byte	-3
 4081 0af6 00        		.byte	0
 4082 0af7 FD        		.byte	-3
 4083 0af8 FF        		.byte	-1
 4084 0af9 FF        		.byte	-1
 4085 0afa FD        		.byte	-3
 4086 0afb 00        		.byte	0
 4087 0afc FD        		.byte	-3
 4088 0afd 00        		.byte	0
 4089 0afe FE        		.byte	-2
 4090 0aff FF        		.byte	-1
 4091 0b00 FF        		.byte	-1
 4092 0b01 FE        		.byte	-2
 4093 0b02 FF        		.byte	-1
 4094 0b03 00        		.byte	0
 4095 0b04 FD        		.byte	-3
 4096 0b05 01        		.byte	1
 4097 0b06 FD        		.byte	-3
 4098 0b07 00        		.byte	0
 4099 0b08 FF        		.byte	-1
 4100 0b09 FE        		.byte	-2
 4101 0b0a 01        		.byte	1
 4102 0b0b FE        		.byte	-2
 4103 0b0c 01        		.byte	1
 4104 0b0d FF        		.byte	-1
 4105 0b0e 00        		.byte	0
 4106 0b0f 00        		.byte	0
 4107 0b10 FF        		.byte	-1
 4108 0b11 01        		.byte	1
 4109 0b12 FE        		.byte	-2
 4110 0b13 00        		.byte	0
 4111 0b14 00        		.byte	0
 4112 0b15 FE        		.byte	-2
GAS LISTING /tmp/ccEQRkCa.s 			page 76


 4113 0b16 01        		.byte	1
 4114 0b17 FF        		.byte	-1
 4115 0b18 00        		.byte	0
 4116 0b19 00        		.byte	0
 4117 0b1a FE        		.byte	-2
 4118 0b1b 01        		.byte	1
 4119 0b1c FD        		.byte	-3
 4120 0b1d 01        		.byte	1
 4121 0b1e FF        		.byte	-1
 4122 0b1f FE        		.byte	-2
 4123 0b20 00        		.byte	0
 4124 0b21 FE        		.byte	-2
 4125 0b22 FF        		.byte	-1
 4126 0b23 FE        		.byte	-2
 4127 0b24 FF        		.byte	-1
 4128 0b25 FF        		.byte	-1
 4129 0b26 FE        		.byte	-2
 4130 0b27 00        		.byte	0
 4131 0b28 FE        		.byte	-2
 4132 0b29 00        		.byte	0
 4133 0b2a FF        		.byte	-1
 4134 0b2b FF        		.byte	-1
 4135 0b2c 00        		.byte	0
 4136 0b2d FF        		.byte	-1
 4137 0b2e 00        		.byte	0
 4138 0b2f FF        		.byte	-1
 4139 0b30 01        		.byte	1
 4140 0b31 FF        		.byte	-1
 4141 0b32 00        		.byte	0
 4142 0b33 01        		.byte	1
 4143 0b34 FE        		.byte	-2
 4144 0b35 01        		.byte	1
 4145 0b36 FE        		.byte	-2
 4146 0b37 00        		.byte	0
 4147 0b38 FF        		.byte	-1
 4148 0b39 FF        		.byte	-1
 4149 0b3a 00        		.byte	0
 4150 0b3b FF        		.byte	-1
 4151 0b3c 00        		.byte	0
 4152 0b3d FF        		.byte	-1
 4153 0b3e FF        		.byte	-1
 4154 0b3f 00        		.byte	0
 4155 0b40 FE        		.byte	-2
 4156 0b41 00        		.byte	0
 4157 0b42 FD        		.byte	-3
 4158 0b43 00        		.byte	0
 4159 0b44 FE        		.byte	-2
 4160 0b45 FF        		.byte	-1
 4161 0b46 00        		.byte	0
 4162 0b47 FE        		.byte	-2
 4163 0b48 FF        		.byte	-1
 4164 0b49 FF        		.byte	-1
 4165 0b4a FE        		.byte	-2
 4166 0b4b FF        		.byte	-1
 4167 0b4c FF        		.byte	-1
 4168 0b4d FF        		.byte	-1
 4169 0b4e FE        		.byte	-2
GAS LISTING /tmp/ccEQRkCa.s 			page 77


 4170 0b4f 00        		.byte	0
 4171 0b50 FE        		.byte	-2
 4172 0b51 00        		.byte	0
 4173 0b52 FE        		.byte	-2
 4174 0b53 FF        		.byte	-1
 4175 0b54 FF        		.byte	-1
 4176 0b55 FF        		.byte	-1
 4177 0b56 FF        		.byte	-1
 4178 0b57 00        		.byte	0
 4179 0b58 FE        		.byte	-2
 4180 0b59 00        		.byte	0
 4181 0b5a FF        		.byte	-1
 4182 0b5b FF        		.byte	-1
 4183 0b5c 00        		.byte	0
 4184 0b5d 00        		.byte	0
 4185 0b5e FF        		.byte	-1
 4186 0b5f 00        		.byte	0
 4187 0b60 FF        		.byte	-1
 4188 0b61 00        		.byte	0
 4189 0b62 00        		.byte	0
 4190 0b63 FF        		.byte	-1
 4191 0b64 FE        		.byte	-2
 4192 0b65 01        		.byte	1
 4193 0b66 FE        		.byte	-2
 4194 0b67 00        		.byte	0
 4195 0b68 FF        		.byte	-1
 4196 0b69 FF        		.byte	-1
 4197 0b6a FF        		.byte	-1
 4198 0b6b FF        		.byte	-1
 4199 0b6c FE        		.byte	-2
 4200 0b6d FF        		.byte	-1
 4201 0b6e FE        		.byte	-2
 4202 0b6f FF        		.byte	-1
 4203 0b70 FE        		.byte	-2
 4204 0b71 FF        		.byte	-1
 4205 0b72 FE        		.byte	-2
 4206 0b73 FF        		.byte	-1
 4207 0b74 FE        		.byte	-2
 4208 0b75 FE        		.byte	-2
 4209 0b76 FE        		.byte	-2
 4210 0b77 00        		.byte	0
 4211 0b78 FE        		.byte	-2
 4212 0b79 00        		.byte	0
 4213 0b7a FF        		.byte	-1
 4214 0b7b FF        		.byte	-1
 4215 0b7c FF        		.byte	-1
 4216 0b7d 00        		.byte	0
 4217 0b7e FF        		.byte	-1
 4218 0b7f 00        		.byte	0
 4219 0b80 FF        		.byte	-1
 4220 0b81 00        		.byte	0
 4221 0b82 FF        		.byte	-1
 4222 0b83 00        		.byte	0
 4223 0b84 FF        		.byte	-1
 4224 0b85 00        		.byte	0
 4225 0b86 00        		.byte	0
 4226 0b87 00        		.byte	0
GAS LISTING /tmp/ccEQRkCa.s 			page 78


 4227 0b88 00        		.byte	0
 4228 0b89 00        		.byte	0
 4229 0b8a FF        		.byte	-1
 4230 0b8b 00        		.byte	0
 4231 0b8c 00        		.byte	0
 4232 0b8d 00        		.byte	0
 4233 0b8e 00        		.byte	0
 4234 0b8f 00        		.byte	0
 4235 0b90 00        		.byte	0
 4236 0b91 00        		.byte	0
 4237 0b92 00        		.byte	0
 4238 0b93 00        		.byte	0
 4239 0b94 FF        		.byte	-1
 4240 0b95 01        		.byte	1
 4241 0b96 FF        		.byte	-1
 4242 0b97 00        		.byte	0
 4243 0b98 00        		.byte	0
 4244 0b99 00        		.byte	0
 4245 0b9a 00        		.byte	0
 4246 0b9b 00        		.byte	0
 4247 0b9c 00        		.byte	0
 4248 0b9d 00        		.byte	0
 4249 0b9e 00        		.byte	0
 4250 0b9f 00        		.byte	0
 4251 0ba0 00        		.byte	0
 4252 0ba1 00        		.byte	0
 4253 0ba2 00        		.byte	0
 4254 0ba3 FF        		.byte	-1
 4255 0ba4 01        		.byte	1
 4256 0ba5 00        		.byte	0
 4257 0ba6 FF        		.byte	-1
 4258 0ba7 01        		.byte	1
 4259 0ba8 00        		.byte	0
 4260 0ba9 00        		.byte	0
 4261 0baa 00        		.byte	0
 4262 0bab 00        		.byte	0
 4263 0bac FF        		.byte	-1
 4264 0bad 00        		.byte	0
 4265 0bae 00        		.byte	0
 4266 0baf FF        		.byte	-1
 4267 0bb0 00        		.byte	0
 4268 0bb1 00        		.byte	0
 4269 0bb2 00        		.byte	0
 4270 0bb3 00        		.byte	0
 4271 0bb4 FF        		.byte	-1
 4272 0bb5 00        		.byte	0
 4273 0bb6 FF        		.byte	-1
 4274 0bb7 00        		.byte	0
 4275 0bb8 00        		.byte	0
 4276 0bb9 FF        		.byte	-1
 4277 0bba 02        		.byte	2
 4278 0bbb 00        		.byte	0
 4279 0bbc 01        		.byte	1
 4280 0bbd 01        		.byte	1
 4281 0bbe 00        		.byte	0
 4282 0bbf 01        		.byte	1
 4283 0bc0 00        		.byte	0
GAS LISTING /tmp/ccEQRkCa.s 			page 79


 4284 0bc1 01        		.byte	1
 4285 0bc2 01        		.byte	1
 4286 0bc3 00        		.byte	0
 4287 0bc4 02        		.byte	2
 4288 0bc5 00        		.byte	0
 4289 0bc6 00        		.byte	0
 4290 0bc7 01        		.byte	1
 4291 0bc8 00        		.byte	0
 4292 0bc9 00        		.byte	0
 4293 0bca 00        		.byte	0
 4294 0bcb 00        		.byte	0
 4295 0bcc 00        		.byte	0
 4296 0bcd 00        		.byte	0
 4297 0bce 00        		.byte	0
 4298 0bcf 00        		.byte	0
 4299 0bd0 FF        		.byte	-1
 4300 0bd1 00        		.byte	0
 4301 0bd2 00        		.byte	0
 4302 0bd3 00        		.byte	0
 4303 0bd4 FF        		.byte	-1
 4304 0bd5 01        		.byte	1
 4305 0bd6 FE        		.byte	-2
 4306 0bd7 01        		.byte	1
 4307 0bd8 FE        		.byte	-2
 4308 0bd9 01        		.byte	1
 4309 0bda FF        		.byte	-1
 4310 0bdb FF        		.byte	-1
 4311 0bdc 01        		.byte	1
 4312 0bdd FF        		.byte	-1
 4313 0bde 01        		.byte	1
 4314 0bdf 00        		.byte	0
 4315 0be0 FF        		.byte	-1
 4316 0be1 01        		.byte	1
 4317 0be2 FF        		.byte	-1
 4318 0be3 00        		.byte	0
 4319 0be4 00        		.byte	0
 4320 0be5 00        		.byte	0
 4321 0be6 01        		.byte	1
 4322 0be7 FF        		.byte	-1
 4323 0be8 00        		.byte	0
 4324 0be9 00        		.byte	0
 4325 0bea FF        		.byte	-1
 4326 0beb 01        		.byte	1
 4327 0bec 00        		.byte	0
 4328 0bed 00        		.byte	0
 4329 0bee 00        		.byte	0
 4330 0bef 00        		.byte	0
 4331 0bf0 00        		.byte	0
 4332 0bf1 00        		.byte	0
 4333 0bf2 00        		.byte	0
 4334 0bf3 00        		.byte	0
 4335 0bf4 FF        		.byte	-1
 4336 0bf5 01        		.byte	1
 4337 0bf6 00        		.byte	0
 4338 0bf7 00        		.byte	0
 4339 0bf8 00        		.byte	0
 4340 0bf9 00        		.byte	0
GAS LISTING /tmp/ccEQRkCa.s 			page 80


 4341 0bfa FF        		.byte	-1
 4342 0bfb 00        		.byte	0
 4343 0bfc 00        		.byte	0
 4344 0bfd FF        		.byte	-1
 4345 0bfe 00        		.byte	0
 4346 0bff FF        		.byte	-1
 4347 0c00 FF        		.byte	-1
 4348 0c01 00        		.byte	0
 4349 0c02 FE        		.byte	-2
 4350 0c03 00        		.byte	0
 4351 0c04 FF        		.byte	-1
 4352 0c05 FF        		.byte	-1
 4353 0c06 00        		.byte	0
 4354 0c07 FF        		.byte	-1
 4355 0c08 01        		.byte	1
 4356 0c09 FF        		.byte	-1
 4357 0c0a FF        		.byte	-1
 4358 0c0b 00        		.byte	0
 4359 0c0c FF        		.byte	-1
 4360 0c0d 00        		.byte	0
 4361 0c0e FF        		.byte	-1
 4362 0c0f FF        		.byte	-1
 4363 0c10 00        		.byte	0
 4364 0c11 FE        		.byte	-2
 4365 0c12 00        		.byte	0
 4366 0c13 FF        		.byte	-1
 4367 0c14 FF        		.byte	-1
 4368 0c15 00        		.byte	0
 4369 0c16 FF        		.byte	-1
 4370 0c17 00        		.byte	0
 4371 0c18 00        		.byte	0
 4372 0c19 FF        		.byte	-1
 4373 0c1a 00        		.byte	0
 4374 0c1b FF        		.byte	-1
 4375 0c1c 00        		.byte	0
 4376 0c1d FF        		.byte	-1
 4377 0c1e 00        		.byte	0
 4378 0c1f 00        		.byte	0
 4379 0c20 00        		.byte	0
 4380 0c21 00        		.byte	0
 4381 0c22 00        		.byte	0
 4382 0c23 FF        		.byte	-1
 4383 0c24 00        		.byte	0
 4384 0c25 00        		.byte	0
 4385 0c26 00        		.byte	0
 4386 0c27 00        		.byte	0
 4387 0c28 01        		.byte	1
 4388 0c29 00        		.byte	0
 4389 0c2a 00        		.byte	0
 4390 0c2b 00        		.byte	0
 4391 0c2c 00        		.byte	0
 4392 0c2d 01        		.byte	1
 4393 0c2e 00        		.byte	0
 4394 0c2f 01        		.byte	1
 4395 0c30 00        		.byte	0
 4396 0c31 01        		.byte	1
 4397 0c32 FF        		.byte	-1
GAS LISTING /tmp/ccEQRkCa.s 			page 81


 4398 0c33 01        		.byte	1
 4399 0c34 00        		.byte	0
 4400 0c35 00        		.byte	0
 4401 0c36 00        		.byte	0
 4402 0c37 01        		.byte	1
 4403 0c38 00        		.byte	0
 4404 0c39 01        		.byte	1
 4405 0c3a FF        		.byte	-1
 4406 0c3b 01        		.byte	1
 4407 0c3c FF        		.byte	-1
 4408 0c3d 01        		.byte	1
 4409 0c3e 00        		.byte	0
 4410 0c3f 00        		.byte	0
 4411 0c40 00        		.byte	0
 4412 0c41 00        		.byte	0
 4413 0c42 00        		.byte	0
 4414 0c43 01        		.byte	1
 4415 0c44 FF        		.byte	-1
 4416 0c45 02        		.byte	2
 4417 0c46 FF        		.byte	-1
 4418 0c47 01        		.byte	1
 4419 0c48 00        		.byte	0
 4420 0c49 00        		.byte	0
 4421 0c4a 00        		.byte	0
 4422 0c4b 00        		.byte	0
 4423 0c4c FF        		.byte	-1
 4424 0c4d 01        		.byte	1
 4425 0c4e 00        		.byte	0
 4426 0c4f 00        		.byte	0
 4427 0c50 00        		.byte	0
 4428 0c51 00        		.byte	0
 4429 0c52 00        		.byte	0
 4430 0c53 01        		.byte	1
 4431 0c54 FF        		.byte	-1
 4432 0c55 01        		.byte	1
 4433 0c56 FF        		.byte	-1
 4434 0c57 01        		.byte	1
 4435 0c58 FF        		.byte	-1
 4436 0c59 00        		.byte	0
 4437 0c5a 00        		.byte	0
 4438 0c5b FF        		.byte	-1
 4439 0c5c 00        		.byte	0
 4440 0c5d FF        		.byte	-1
 4441 0c5e FF        		.byte	-1
 4442 0c5f 00        		.byte	0
 4443 0c60 FF        		.byte	-1
 4444 0c61 00        		.byte	0
 4445 0c62 FF        		.byte	-1
 4446 0c63 01        		.byte	1
 4447 0c64 FE        		.byte	-2
 4448 0c65 01        		.byte	1
 4449 0c66 FF        		.byte	-1
 4450 0c67 FF        		.byte	-1
 4451 0c68 00        		.byte	0
 4452 0c69 FF        		.byte	-1
 4453 0c6a FF        		.byte	-1
 4454 0c6b 00        		.byte	0
GAS LISTING /tmp/ccEQRkCa.s 			page 82


 4455 0c6c FF        		.byte	-1
 4456 0c6d FF        		.byte	-1
 4457 0c6e FF        		.byte	-1
 4458 0c6f FF        		.byte	-1
 4459 0c70 00        		.byte	0
 4460 0c71 FE        		.byte	-2
 4461 0c72 01        		.byte	1
 4462 0c73 FE        		.byte	-2
 4463 0c74 00        		.byte	0
 4464 0c75 00        		.byte	0
 4465 0c76 FE        		.byte	-2
 4466 0c77 00        		.byte	0
 4467 0c78 FF        		.byte	-1
 4468 0c79 FF        		.byte	-1
 4469 0c7a 00        		.byte	0
 4470 0c7b FE        		.byte	-2
 4471 0c7c 00        		.byte	0
 4472 0c7d FE        		.byte	-2
 4473 0c7e 00        		.byte	0
 4474 0c7f FF        		.byte	-1
 4475 0c80 FF        		.byte	-1
 4476 0c81 00        		.byte	0
 4477 0c82 FE        		.byte	-2
 4478 0c83 00        		.byte	0
 4479 0c84 FF        		.byte	-1
 4480 0c85 00        		.byte	0
 4481 0c86 FF        		.byte	-1
 4482 0c87 FF        		.byte	-1
 4483 0c88 00        		.byte	0
 4484 0c89 FF        		.byte	-1
 4485 0c8a 00        		.byte	0
 4486 0c8b 00        		.byte	0
 4487 0c8c FF        		.byte	-1
 4488 0c8d 00        		.byte	0
 4489 0c8e FF        		.byte	-1
 4490 0c8f 00        		.byte	0
 4491 0c90 FF        		.byte	-1
 4492 0c91 00        		.byte	0
 4493 0c92 00        		.byte	0
 4494 0c93 FE        		.byte	-2
 4495 0c94 00        		.byte	0
 4496 0c95 FF        		.byte	-1
 4497 0c96 FF        		.byte	-1
 4498 0c97 00        		.byte	0
 4499 0c98 FF        		.byte	-1
 4500 0c99 00        		.byte	0
 4501 0c9a FF        		.byte	-1
 4502 0c9b FF        		.byte	-1
 4503 0c9c FF        		.byte	-1
 4504 0c9d FF        		.byte	-1
 4505 0c9e 00        		.byte	0
 4506 0c9f FF        		.byte	-1
 4507 0ca0 FF        		.byte	-1
 4508 0ca1 FF        		.byte	-1
 4509 0ca2 FF        		.byte	-1
 4510 0ca3 FF        		.byte	-1
 4511 0ca4 FF        		.byte	-1
GAS LISTING /tmp/ccEQRkCa.s 			page 83


 4512 0ca5 00        		.byte	0
 4513 0ca6 FF        		.byte	-1
 4514 0ca7 FF        		.byte	-1
 4515 0ca8 00        		.byte	0
 4516 0ca9 FF        		.byte	-1
 4517 0caa 00        		.byte	0
 4518 0cab FF        		.byte	-1
 4519 0cac FF        		.byte	-1
 4520 0cad FF        		.byte	-1
 4521 0cae FF        		.byte	-1
 4522 0caf FF        		.byte	-1
 4523 0cb0 00        		.byte	0
 4524 0cb1 FF        		.byte	-1
 4525 0cb2 FF        		.byte	-1
 4526 0cb3 FF        		.byte	-1
 4527 0cb4 FF        		.byte	-1
 4528 0cb5 00        		.byte	0
 4529 0cb6 FF        		.byte	-1
 4530 0cb7 00        		.byte	0
 4531 0cb8 FF        		.byte	-1
 4532 0cb9 FF        		.byte	-1
 4533 0cba FF        		.byte	-1
 4534 0cbb FF        		.byte	-1
 4535 0cbc 00        		.byte	0
 4536 0cbd FF        		.byte	-1
 4537 0cbe 00        		.byte	0
 4538 0cbf 00        		.byte	0
 4539 0cc0 FF        		.byte	-1
 4540 0cc1 00        		.byte	0
 4541 0cc2 FF        		.byte	-1
 4542 0cc3 00        		.byte	0
 4543 0cc4 00        		.byte	0
 4544 0cc5 00        		.byte	0
 4545 0cc6 00        		.byte	0
 4546 0cc7 00        		.byte	0
 4547 0cc8 00        		.byte	0
 4548 0cc9 00        		.byte	0
 4549 0cca 00        		.byte	0
 4550 0ccb 00        		.byte	0
 4551 0ccc 00        		.byte	0
 4552 0ccd 00        		.byte	0
 4553 0cce 00        		.byte	0
 4554 0ccf 00        		.byte	0
 4555 0cd0 00        		.byte	0
 4556 0cd1 00        		.byte	0
 4557 0cd2 00        		.byte	0
 4558 0cd3 00        		.byte	0
 4559 0cd4 00        		.byte	0
 4560 0cd5 00        		.byte	0
 4561 0cd6 00        		.byte	0
 4562 0cd7 00        		.byte	0
 4563 0cd8 00        		.byte	0
 4564 0cd9 00        		.byte	0
 4565 0cda 00        		.byte	0
 4566 0cdb 00        		.byte	0
 4567 0cdc 00        		.byte	0
 4568 0cdd 00        		.byte	0
GAS LISTING /tmp/ccEQRkCa.s 			page 84


 4569 0cde 00        		.byte	0
 4570 0cdf 00        		.byte	0
 4571 0ce0 00        		.byte	0
 4572 0ce1 00        		.byte	0
 4573 0ce2 00        		.byte	0
 4574 0ce3 00        		.byte	0
 4575 0ce4 00        		.byte	0
 4576 0ce5 00        		.byte	0
 4577 0ce6 00        		.byte	0
 4578 0ce7 00        		.byte	0
 4579 0ce8 00        		.byte	0
 4580 0ce9 00        		.byte	0
 4581 0cea 00        		.byte	0
 4582 0ceb 00        		.byte	0
 4583 0cec 00        		.byte	0
 4584 0ced 00        		.byte	0
 4585 0cee 00        		.byte	0
 4586 0cef 00        		.byte	0
 4587 0cf0 00        		.byte	0
 4588 0cf1 00        		.byte	0
 4589 0cf2 00        		.byte	0
 4590 0cf3 00        		.byte	0
 4591 0cf4 00        		.byte	0
 4592 0cf5 00        		.byte	0
 4593 0cf6 00        		.byte	0
 4594 0cf7 00        		.byte	0
 4595 0cf8 00        		.byte	0
 4596 0cf9 00        		.byte	0
 4597 0cfa 00        		.byte	0
 4598 0cfb 00        		.byte	0
 4599 0cfc 00        		.byte	0
 4600 0cfd 00        		.byte	0
 4601 0cfe 00        		.byte	0
 4602 0cff 00        		.byte	0
 4603 0d00 00        		.byte	0
 4604 0d01 00        		.byte	0
 4605 0d02 00        		.byte	0
 4606 0d03 00        		.byte	0
 4607 0d04 00        		.byte	0
 4608 0d05 00        		.byte	0
 4609 0d06 00        		.byte	0
 4610 0d07 00        		.byte	0
 4611 0d08 00        		.byte	0
 4612 0d09 00        		.byte	0
 4613 0d0a 00        		.byte	0
 4614 0d0b 00        		.byte	0
 4615 0d0c 00        		.byte	0
 4616 0d0d 00        		.byte	0
 4617 0d0e 00        		.byte	0
 4618 0d0f 00        		.byte	0
 4619 0d10 00        		.byte	0
 4620 0d11 00        		.byte	0
 4621 0d12 00        		.byte	0
 4622 0d13 00        		.byte	0
 4623 0d14 00        		.byte	0
 4624 0d15 00        		.byte	0
 4625 0d16 00        		.byte	0
GAS LISTING /tmp/ccEQRkCa.s 			page 85


 4626 0d17 00        		.byte	0
 4627 0d18 00        		.byte	0
 4628 0d19 00        		.byte	0
 4629 0d1a 00        		.byte	0
 4630 0d1b 00        		.byte	0
 4631 0d1c 00        		.byte	0
 4632 0d1d 00        		.byte	0
 4633 0d1e 00        		.byte	0
 4634 0d1f 00        		.byte	0
 4635 0d20 00        		.byte	0
 4636 0d21 00        		.byte	0
 4637 0d22 00        		.byte	0
 4638 0d23 00        		.byte	0
 4639 0d24 00        		.byte	0
 4640 0d25 00        		.byte	0
 4641 0d26 00        		.byte	0
 4642 0d27 00        		.byte	0
 4643 0d28 00        		.byte	0
 4644 0d29 00        		.byte	0
 4645 0d2a 00        		.byte	0
 4646 0d2b 00        		.byte	0
 4647 0d2c 00        		.byte	0
 4648 0d2d 00        		.byte	0
 4649 0d2e 00        		.byte	0
 4650 0d2f 00        		.byte	0
 4651 0d30 00        		.byte	0
 4652 0d31 00        		.byte	0
 4653 0d32 00        		.byte	0
 4654 0d33 00        		.byte	0
 4655 0d34 00        		.byte	0
 4656 0d35 00        		.byte	0
 4657 0d36 00        		.byte	0
 4658 0d37 00        		.byte	0
 4659 0d38 00        		.byte	0
 4660 0d39 00        		.byte	0
 4661 0d3a 00        		.byte	0
 4662 0d3b 00        		.byte	0
 4663 0d3c 00        		.byte	0
 4664 0d3d 00        		.byte	0
 4665 0d3e 00        		.byte	0
 4666 0d3f 00        		.byte	0
 4667 0d40 00        		.byte	0
 4668 0d41 00        		.byte	0
 4669 0d42 00        		.byte	0
 4670 0d43 00        		.byte	0
 4671 0d44 00        		.byte	0
 4672 0d45 00        		.byte	0
 4673 0d46 00        		.byte	0
 4674 0d47 00        		.byte	0
 4675 0d48 00        		.byte	0
 4676 0d49 00        		.byte	0
 4677 0d4a 00        		.byte	0
 4678 0d4b 00        		.byte	0
 4679 0d4c 00        		.byte	0
 4680 0d4d 00        		.byte	0
 4681 0d4e 00        		.byte	0
 4682 0d4f 00        		.byte	0
GAS LISTING /tmp/ccEQRkCa.s 			page 86


 4683 0d50 00        		.byte	0
 4684 0d51 00        		.byte	0
 4685 0d52 00        		.byte	0
 4686 0d53 00        		.byte	0
 4687 0d54 00        		.byte	0
 4688 0d55 00        		.byte	0
 4689 0d56 00        		.byte	0
 4690 0d57 00        		.byte	0
 4691 0d58 00        		.byte	0
 4692 0d59 00        		.byte	0
 4693 0d5a 00        		.byte	0
 4694 0d5b 00        		.byte	0
 4695 0d5c 00        		.byte	0
 4696 0d5d 00        		.byte	0
 4697 0d5e 00        		.byte	0
 4698 0d5f 00        		.byte	0
 4699 0d60 00        		.byte	0
 4700 0d61 00        		.byte	0
 4701 0d62 00        		.byte	0
 4702 0d63 00        		.byte	0
 4703 0d64 00        		.byte	0
 4704 0d65 00        		.byte	0
 4705 0d66 00        		.byte	0
 4706 0d67 00        		.byte	0
 4707 0d68 00        		.byte	0
 4708 0d69 00        		.byte	0
 4709 0d6a 00        		.byte	0
 4710 0d6b 00        		.byte	0
 4711 0d6c 00        		.byte	0
 4712 0d6d 00        		.byte	0
 4713 0d6e 00        		.byte	0
 4714 0d6f 00        		.byte	0
 4715 0d70 00        		.byte	0
 4716 0d71 00        		.byte	0
 4717 0d72 00        		.byte	0
 4718 0d73 00        		.byte	0
 4719 0d74 00        		.byte	0
 4720 0d75 00        		.byte	0
 4721 0d76 00        		.byte	0
 4722 0d77 00        		.byte	0
 4723 0d78 00        		.byte	0
 4724 0d79 00        		.byte	0
 4725 0d7a 00        		.byte	0
 4726 0d7b 00        		.byte	0
 4727 0d7c 00        		.byte	0
 4728 0d7d 00        		.byte	0
 4729 0d7e 00        		.byte	0
 4730 0d7f 00        		.byte	0
 4731 0d80 00        		.byte	0
 4732 0d81 00        		.byte	0
 4733 0d82 00        		.byte	0
 4734 0d83 00        		.byte	0
 4735 0d84 00        		.byte	0
 4736 0d85 00        		.byte	0
 4737 0d86 00        		.byte	0
 4738 0d87 00        		.byte	0
 4739 0d88 00        		.byte	0
GAS LISTING /tmp/ccEQRkCa.s 			page 87


 4740 0d89 00        		.byte	0
 4741 0d8a 00        		.byte	0
 4742 0d8b 00        		.byte	0
 4743 0d8c 00        		.byte	0
 4744 0d8d 00        		.byte	0
 4745 0d8e 00        		.byte	0
 4746 0d8f 00        		.byte	0
 4747 0d90 00        		.byte	0
 4748 0d91 FF        		.byte	-1
 4749 0d92 FF        		.byte	-1
 4750 0d93 FF        		.byte	-1
 4751 0d94 FF        		.byte	-1
 4752 0d95 FF        		.byte	-1
 4753 0d96 FF        		.byte	-1
 4754 0d97 FF        		.byte	-1
 4755 0d98 FF        		.byte	-1
 4756 0d99 FF        		.byte	-1
 4757 0d9a FF        		.byte	-1
 4758 0d9b FF        		.byte	-1
 4759 0d9c FF        		.byte	-1
 4760 0d9d FF        		.byte	-1
 4761 0d9e FF        		.byte	-1
 4762 0d9f FF        		.byte	-1
 4763 0da0 FF        		.byte	-1
 4764 0da1 FF        		.byte	-1
 4765 0da2 FF        		.byte	-1
 4766 0da3 FF        		.byte	-1
 4767 0da4 FF        		.byte	-1
 4768 0da5 FF        		.byte	-1
 4769 0da6 FF        		.byte	-1
 4770 0da7 FF        		.byte	-1
 4771 0da8 FF        		.byte	-1
 4772 0da9 FF        		.byte	-1
 4773 0daa FF        		.byte	-1
 4774 0dab FF        		.byte	-1
 4775 0dac FF        		.byte	-1
 4776 0dad FF        		.byte	-1
 4777 0dae FF        		.byte	-1
 4778 0daf FF        		.byte	-1
 4779 0db0 FF        		.byte	-1
 4780 0db1 FF        		.byte	-1
 4781 0db2 FF        		.byte	-1
 4782 0db3 FF        		.byte	-1
 4783 0db4 FF        		.byte	-1
 4784 0db5 FF        		.byte	-1
 4785 0db6 FF        		.byte	-1
 4786 0db7 FF        		.byte	-1
 4787 0db8 FF        		.byte	-1
 4788 0db9 FF        		.byte	-1
 4789 0dba FF        		.byte	-1
 4790 0dbb FF        		.byte	-1
 4791 0dbc FF        		.byte	-1
 4792 0dbd FF        		.byte	-1
 4793 0dbe FF        		.byte	-1
 4794 0dbf FF        		.byte	-1
 4795 0dc0 FF        		.byte	-1
 4796 0dc1 FF        		.byte	-1
GAS LISTING /tmp/ccEQRkCa.s 			page 88


 4797 0dc2 FF        		.byte	-1
 4798 0dc3 FF        		.byte	-1
 4799 0dc4 FF        		.byte	-1
 4800 0dc5 FF        		.byte	-1
 4801 0dc6 FF        		.byte	-1
 4802 0dc7 FF        		.byte	-1
 4803 0dc8 FF        		.byte	-1
 4804 0dc9 FF        		.byte	-1
 4805 0dca FF        		.byte	-1
 4806 0dcb FF        		.byte	-1
 4807 0dcc FF        		.byte	-1
 4808 0dcd FF        		.byte	-1
 4809 0dce FF        		.byte	-1
 4810 0dcf FF        		.byte	-1
 4811 0dd0 FF        		.byte	-1
 4812 0dd1 FF        		.byte	-1
 4813 0dd2 FF        		.byte	-1
 4814 0dd3 FF        		.byte	-1
 4815 0dd4 FF        		.byte	-1
 4816 0dd5 FF        		.byte	-1
 4817 0dd6 FF        		.byte	-1
 4818 0dd7 FF        		.byte	-1
 4819 0dd8 FF        		.byte	-1
 4820 0dd9 FF        		.byte	-1
 4821 0dda FF        		.byte	-1
 4822 0ddb FF        		.byte	-1
 4823 0ddc FF        		.byte	-1
 4824 0ddd FF        		.byte	-1
 4825 0dde FF        		.byte	-1
 4826 0ddf FF        		.byte	-1
 4827 0de0 FF        		.byte	-1
 4828 0de1 FF        		.byte	-1
 4829 0de2 FF        		.byte	-1
 4830 0de3 FF        		.byte	-1
 4831 0de4 FF        		.byte	-1
 4832 0de5 FF        		.byte	-1
 4833 0de6 FF        		.byte	-1
 4834 0de7 FF        		.byte	-1
 4835 0de8 FF        		.byte	-1
 4836 0de9 FF        		.byte	-1
 4837 0dea FF        		.byte	-1
 4838 0deb FF        		.byte	-1
 4839 0dec FF        		.byte	-1
 4840 0ded FF        		.byte	-1
 4841 0dee FF        		.byte	-1
 4842 0def FF        		.byte	-1
 4843 0df0 FF        		.byte	-1
 4844 0df1 FF        		.byte	-1
 4845 0df2 FF        		.byte	-1
 4846 0df3 FF        		.byte	-1
 4847 0df4 FF        		.byte	-1
 4848 0df5 FF        		.byte	-1
 4849 0df6 FF        		.byte	-1
 4850 0df7 FF        		.byte	-1
 4851 0df8 FF        		.byte	-1
 4852 0df9 FF        		.byte	-1
 4853 0dfa FF        		.byte	-1
GAS LISTING /tmp/ccEQRkCa.s 			page 89


 4854 0dfb FF        		.byte	-1
 4855 0dfc FF        		.byte	-1
 4856 0dfd FF        		.byte	-1
 4857 0dfe FF        		.byte	-1
 4858 0dff FF        		.byte	-1
 4859 0e00 FF        		.byte	-1
 4860 0e01 FF        		.byte	-1
 4861 0e02 FF        		.byte	-1
 4862 0e03 FF        		.byte	-1
 4863 0e04 FF        		.byte	-1
 4864 0e05 FF        		.byte	-1
 4865 0e06 FF        		.byte	-1
 4866 0e07 FF        		.byte	-1
 4867 0e08 FF        		.byte	-1
 4868 0e09 FF        		.byte	-1
 4869 0e0a FF        		.byte	-1
 4870 0e0b FF        		.byte	-1
 4871 0e0c FF        		.byte	-1
 4872 0e0d FF        		.byte	-1
 4873 0e0e FF        		.byte	-1
 4874 0e0f FF        		.byte	-1
 4875 0e10 FF        		.byte	-1
 4876 0e11 FF        		.byte	-1
 4877 0e12 FF        		.byte	-1
 4878 0e13 FF        		.byte	-1
 4879 0e14 FF        		.byte	-1
 4880 0e15 FF        		.byte	-1
 4881 0e16 FF        		.byte	-1
 4882 0e17 FF        		.byte	-1
 4883 0e18 FE        		.byte	-2
 4884 0e19 FE        		.byte	-2
 4885 0e1a FE        		.byte	-2
 4886 0e1b FE        		.byte	-2
 4887 0e1c FF        		.byte	-1
 4888 0e1d FE        		.byte	-2
 4889 0e1e FE        		.byte	-2
 4890 0e1f FF        		.byte	-1
 4891 0e20 FE        		.byte	-2
 4892 0e21 FF        		.byte	-1
 4893 0e22 FE        		.byte	-2
 4894 0e23 FE        		.byte	-2
 4895 0e24 FF        		.byte	-1
 4896 0e25 FE        		.byte	-2
 4897 0e26 FE        		.byte	-2
 4898 0e27 FE        		.byte	-2
 4899 0e28 FE        		.byte	-2
 4900 0e29 FE        		.byte	-2
 4901 0e2a FD        		.byte	-3
 4902 0e2b FF        		.byte	-1
 4903 0e2c FE        		.byte	-2
 4904 0e2d FE        		.byte	-2
 4905 0e2e FF        		.byte	-1
 4906 0e2f FE        		.byte	-2
 4907 0e30 FE        		.byte	-2
 4908 0e31 FF        		.byte	-1
 4909 0e32 FE        		.byte	-2
 4910 0e33 FF        		.byte	-1
GAS LISTING /tmp/ccEQRkCa.s 			page 90


 4911 0e34 FE        		.byte	-2
 4912 0e35 FE        		.byte	-2
 4913 0e36 FF        		.byte	-1
 4914 0e37 FE        		.byte	-2
 4915 0e38 FF        		.byte	-1
 4916 0e39 FF        		.byte	-1
 4917 0e3a FF        		.byte	-1
 4918 0e3b FF        		.byte	-1
 4919 0e3c FE        		.byte	-2
 4920 0e3d 00        		.byte	0
 4921 0e3e FE        		.byte	-2
 4922 0e3f FE        		.byte	-2
 4923 0e40 FF        		.byte	-1
 4924 0e41 FE        		.byte	-2
 4925 0e42 FF        		.byte	-1
 4926 0e43 FE        		.byte	-2
 4927 0e44 FF        		.byte	-1
 4928 0e45 FE        		.byte	-2
 4929 0e46 FF        		.byte	-1
 4930 0e47 FE        		.byte	-2
 4931 0e48 FF        		.byte	-1
 4932 0e49 FE        		.byte	-2
 4933 0e4a FF        		.byte	-1
 4934 0e4b FF        		.byte	-1
 4935 0e4c FD        		.byte	-3
 4936 0e4d 00        		.byte	0
 4937 0e4e FE        		.byte	-2
 4938 0e4f FE        		.byte	-2
 4939 0e50 FF        		.byte	-1
 4940 0e51 FE        		.byte	-2
 4941 0e52 FF        		.byte	-1
 4942 0e53 FD        		.byte	-3
 4943 0e54 FF        		.byte	-1
 4944 0e55 FE        		.byte	-2
 4945 0e56 FE        		.byte	-2
 4946 0e57 FF        		.byte	-1
 4947 0e58 FD        		.byte	-3
 4948 0e59 00        		.byte	0
 4949 0e5a FC        		.byte	-4
 4950 0e5b 00        		.byte	0
 4951 0e5c FE        		.byte	-2
 4952 0e5d FD        		.byte	-3
 4953 0e5e 00        		.byte	0
 4954 0e5f FB        		.byte	-5
 4955 0e60 00        		.byte	0
 4956 0e61 FD        		.byte	-3
 4957 0e62 FD        		.byte	-3
 4958 0e63 00        		.byte	0
 4959 0e64 FB        		.byte	-5
 4960 0e65 FF        		.byte	-1
 4961 0e66 FC        		.byte	-4
 4962 0e67 FD        		.byte	-3
 4963 0e68 FE        		.byte	-2
 4964 0e69 FC        		.byte	-4
 4965 0e6a FE        		.byte	-2
 4966 0e6b FB        		.byte	-5
 4967 0e6c FD        		.byte	-3
GAS LISTING /tmp/ccEQRkCa.s 			page 91


 4968 0e6d FD        		.byte	-3
 4969 0e6e FD        		.byte	-3
 4970 0e6f FD        		.byte	-3
 4971 0e70 FC        		.byte	-4
 4972 0e71 FD        		.byte	-3
 4973 0e72 FC        		.byte	-4
 4974 0e73 FD        		.byte	-3
 4975 0e74 FD        		.byte	-3
 4976 0e75 FB        		.byte	-5
 4977 0e76 FE        		.byte	-2
 4978 0e77 FB        		.byte	-5
 4979 0e78 FD        		.byte	-3
 4980 0e79 FC        		.byte	-4
 4981 0e7a FC        		.byte	-4
 4982 0e7b FD        		.byte	-3
 4983 0e7c FD        		.byte	-3
 4984 0e7d FD        		.byte	-3
 4985 0e7e FC        		.byte	-4
 4986 0e7f FD        		.byte	-3
 4987 0e80 FD        		.byte	-3
 4988 0e81 FD        		.byte	-3
 4989 0e82 FD        		.byte	-3
 4990 0e83 FD        		.byte	-3
 4991 0e84 FD        		.byte	-3
 4992 0e85 FE        		.byte	-2
 4993 0e86 FD        		.byte	-3
 4994 0e87 FD        		.byte	-3
 4995 0e88 FD        		.byte	-3
 4996 0e89 FD        		.byte	-3
 4997 0e8a FE        		.byte	-2
 4998 0e8b FD        		.byte	-3
 4999 0e8c FE        		.byte	-2
 5000 0e8d FD        		.byte	-3
 5001 0e8e FE        		.byte	-2
 5002 0e8f FF        		.byte	-1
 5003 0e90 FE        		.byte	-2
 5004 0e91 00        		.byte	0
 5005 0e92 FF        		.byte	-1
 5006 0e93 01        		.byte	1
 5007 0e94 00        		.byte	0
 5008 0e95 00        		.byte	0
 5009 0e96 02        		.byte	2
 5010 0e97 FE        		.byte	-2
 5011 0e98 01        		.byte	1
 5012 0e99 00        		.byte	0
 5013 0e9a 00        		.byte	0
 5014 0e9b 01        		.byte	1
 5015 0e9c FF        		.byte	-1
 5016 0e9d 01        		.byte	1
 5017 0e9e 01        		.byte	1
 5018 0e9f 02        		.byte	2
 5019 0ea0 03        		.byte	3
 5020 0ea1 02        		.byte	2
 5021 0ea2 04        		.byte	4
 5022 0ea3 04        		.byte	4
 5023 0ea4 05        		.byte	5
 5024 0ea5 05        		.byte	5
GAS LISTING /tmp/ccEQRkCa.s 			page 92


 5025 0ea6 04        		.byte	4
 5026 0ea7 05        		.byte	5
 5027 0ea8 05        		.byte	5
 5028 0ea9 05        		.byte	5
 5029 0eaa 05        		.byte	5
 5030 0eab 06        		.byte	6
 5031 0eac 05        		.byte	5
 5032 0ead 05        		.byte	5
 5033 0eae 06        		.byte	6
 5034 0eaf 06        		.byte	6
 5035 0eb0 06        		.byte	6
 5036 0eb1 06        		.byte	6
 5037 0eb2 06        		.byte	6
 5038 0eb3 06        		.byte	6
 5039 0eb4 06        		.byte	6
 5040 0eb5 05        		.byte	5
 5041 0eb6 05        		.byte	5
 5042 0eb7 05        		.byte	5
 5043 0eb8 05        		.byte	5
 5044 0eb9 04        		.byte	4
 5045 0eba 04        		.byte	4
 5046 0ebb 05        		.byte	5
 5047 0ebc 03        		.byte	3
 5048 0ebd 04        		.byte	4
 5049 0ebe 04        		.byte	4
 5050 0ebf 03        		.byte	3
 5051 0ec0 04        		.byte	4
 5052 0ec1 04        		.byte	4
 5053 0ec2 03        		.byte	3
 5054 0ec3 04        		.byte	4
 5055 0ec4 03        		.byte	3
 5056 0ec5 03        		.byte	3
 5057 0ec6 03        		.byte	3
 5058 0ec7 04        		.byte	4
 5059 0ec8 03        		.byte	3
 5060 0ec9 03        		.byte	3
 5061 0eca 04        		.byte	4
 5062 0ecb 03        		.byte	3
 5063 0ecc 03        		.byte	3
 5064 0ecd 04        		.byte	4
 5065 0ece 03        		.byte	3
 5066 0ecf 03        		.byte	3
 5067 0ed0 04        		.byte	4
 5068 0ed1 03        		.byte	3
 5069 0ed2 03        		.byte	3
 5070 0ed3 05        		.byte	5
 5071 0ed4 03        		.byte	3
 5072 0ed5 04        		.byte	4
 5073 0ed6 05        		.byte	5
 5074 0ed7 04        		.byte	4
 5075 0ed8 04        		.byte	4
 5076 0ed9 04        		.byte	4
 5077 0eda 04        		.byte	4
 5078 0edb 04        		.byte	4
 5079 0edc 05        		.byte	5
 5080 0edd 04        		.byte	4
 5081 0ede 04        		.byte	4
GAS LISTING /tmp/ccEQRkCa.s 			page 93


 5082 0edf 04        		.byte	4
 5083 0ee0 03        		.byte	3
 5084 0ee1 04        		.byte	4
 5085 0ee2 03        		.byte	3
 5086 0ee3 03        		.byte	3
 5087 0ee4 03        		.byte	3
 5088 0ee5 03        		.byte	3
 5089 0ee6 04        		.byte	4
 5090 0ee7 03        		.byte	3
 5091 0ee8 04        		.byte	4
 5092 0ee9 04        		.byte	4
 5093 0eea 04        		.byte	4
 5094 0eeb 04        		.byte	4
 5095 0eec 04        		.byte	4
 5096 0eed 05        		.byte	5
 5097 0eee 04        		.byte	4
 5098 0eef 04        		.byte	4
 5099 0ef0 03        		.byte	3
 5100 0ef1 03        		.byte	3
 5101 0ef2 03        		.byte	3
 5102 0ef3 02        		.byte	2
 5103 0ef4 02        		.byte	2
 5104 0ef5 02        		.byte	2
 5105 0ef6 02        		.byte	2
 5106 0ef7 01        		.byte	1
 5107 0ef8 01        		.byte	1
 5108 0ef9 01        		.byte	1
 5109 0efa 01        		.byte	1
 5110 0efb 01        		.byte	1
 5111 0efc 01        		.byte	1
 5112 0efd 01        		.byte	1
 5113 0efe 01        		.byte	1
 5114 0eff 01        		.byte	1
 5115 0f00 01        		.byte	1
 5116 0f01 01        		.byte	1
 5117 0f02 01        		.byte	1
 5118 0f03 01        		.byte	1
 5119 0f04 00        		.byte	0
 5120 0f05 00        		.byte	0
 5121 0f06 00        		.byte	0
 5122 0f07 00        		.byte	0
 5123 0f08 00        		.byte	0
 5124 0f09 00        		.byte	0
 5125 0f0a 00        		.byte	0
 5126 0f0b 00        		.byte	0
 5127 0f0c 01        		.byte	1
 5128 0f0d 01        		.byte	1
 5129 0f0e 00        		.byte	0
 5130 0f0f 00        		.byte	0
 5131 0f10 00        		.byte	0
 5132 0f11 00        		.byte	0
 5133 0f12 00        		.byte	0
 5134 0f13 00        		.byte	0
 5135 0f14 00        		.byte	0
 5136 0f15 00        		.byte	0
 5137 0f16 00        		.byte	0
 5138 0f17 FF        		.byte	-1
GAS LISTING /tmp/ccEQRkCa.s 			page 94


 5139 0f18 FF        		.byte	-1
 5140 0f19 00        		.byte	0
 5141 0f1a FF        		.byte	-1
 5142 0f1b FE        		.byte	-2
 5143 0f1c FF        		.byte	-1
 5144 0f1d FE        		.byte	-2
 5145 0f1e FE        		.byte	-2
 5146 0f1f FE        		.byte	-2
 5147 0f20 FD        		.byte	-3
 5148 0f21 FD        		.byte	-3
 5149 0f22 FC        		.byte	-4
 5150 0f23 FD        		.byte	-3
 5151 0f24 FD        		.byte	-3
 5152 0f25 FD        		.byte	-3
 5153 0f26 FD        		.byte	-3
 5154 0f27 FD        		.byte	-3
 5155 0f28 FD        		.byte	-3
 5156 0f29 FD        		.byte	-3
 5157 0f2a FE        		.byte	-2
 5158 0f2b FE        		.byte	-2
 5159 0f2c FE        		.byte	-2
 5160 0f2d FF        		.byte	-1
 5161 0f2e FF        		.byte	-1
 5162 0f2f FF        		.byte	-1
 5163 0f30 FF        		.byte	-1
 5164 0f31 FF        		.byte	-1
 5165 0f32 00        		.byte	0
 5166 0f33 00        		.byte	0
 5167 0f34 FF        		.byte	-1
 5168 0f35 FF        		.byte	-1
 5169 0f36 FF        		.byte	-1
 5170 0f37 00        		.byte	0
 5171 0f38 00        		.byte	0
 5172 0f39 00        		.byte	0
 5173 0f3a 00        		.byte	0
 5174 0f3b FF        		.byte	-1
 5175 0f3c 00        		.byte	0
 5176 0f3d 00        		.byte	0
 5177 0f3e FF        		.byte	-1
 5178 0f3f FF        		.byte	-1
 5179 0f40 FE        		.byte	-2
 5180 0f41 FE        		.byte	-2
 5181 0f42 FE        		.byte	-2
 5182 0f43 FE        		.byte	-2
 5183 0f44 FE        		.byte	-2
 5184 0f45 FE        		.byte	-2
 5185 0f46 FE        		.byte	-2
 5186 0f47 FD        		.byte	-3
 5187 0f48 FD        		.byte	-3
 5188 0f49 FD        		.byte	-3
 5189 0f4a FD        		.byte	-3
 5190 0f4b FD        		.byte	-3
 5191 0f4c FD        		.byte	-3
 5192 0f4d FD        		.byte	-3
 5193 0f4e FD        		.byte	-3
 5194 0f4f FC        		.byte	-4
 5195 0f50 FC        		.byte	-4
GAS LISTING /tmp/ccEQRkCa.s 			page 95


 5196 0f51 FC        		.byte	-4
 5197 0f52 FC        		.byte	-4
 5198 0f53 FC        		.byte	-4
 5199 0f54 FC        		.byte	-4
 5200 0f55 FC        		.byte	-4
 5201 0f56 FC        		.byte	-4
 5202 0f57 FC        		.byte	-4
 5203 0f58 FC        		.byte	-4
 5204 0f59 FB        		.byte	-5
 5205 0f5a FC        		.byte	-4
 5206 0f5b FC        		.byte	-4
 5207 0f5c FC        		.byte	-4
 5208 0f5d FC        		.byte	-4
 5209 0f5e FC        		.byte	-4
 5210 0f5f FC        		.byte	-4
 5211 0f60 FC        		.byte	-4
 5212 0f61 FC        		.byte	-4
 5213 0f62 FC        		.byte	-4
 5214 0f63 FD        		.byte	-3
 5215 0f64 FD        		.byte	-3
 5216 0f65 FC        		.byte	-4
 5217 0f66 FC        		.byte	-4
 5218 0f67 FD        		.byte	-3
 5219 0f68 FD        		.byte	-3
 5220 0f69 FD        		.byte	-3
 5221 0f6a FD        		.byte	-3
 5222 0f6b FC        		.byte	-4
 5223 0f6c FD        		.byte	-3
 5224 0f6d FC        		.byte	-4
 5225 0f6e FC        		.byte	-4
 5226 0f6f FD        		.byte	-3
 5227 0f70 FD        		.byte	-3
 5228 0f71 FD        		.byte	-3
 5229 0f72 FD        		.byte	-3
 5230 0f73 FD        		.byte	-3
 5231 0f74 FD        		.byte	-3
 5232 0f75 FD        		.byte	-3
 5233 0f76 FE        		.byte	-2
 5234 0f77 FD        		.byte	-3
 5235 0f78 FE        		.byte	-2
 5236 0f79 FD        		.byte	-3
 5237 0f7a FD        		.byte	-3
 5238 0f7b FE        		.byte	-2
 5239 0f7c FE        		.byte	-2
 5240 0f7d FE        		.byte	-2
 5241 0f7e FE        		.byte	-2
 5242 0f7f FE        		.byte	-2
 5243 0f80 FE        		.byte	-2
 5244 0f81 FE        		.byte	-2
 5245 0f82 FE        		.byte	-2
 5246 0f83 FE        		.byte	-2
 5247 0f84 FE        		.byte	-2
 5248 0f85 FD        		.byte	-3
 5249 0f86 FE        		.byte	-2
 5250 0f87 FE        		.byte	-2
 5251 0f88 FE        		.byte	-2
 5252 0f89 FE        		.byte	-2
GAS LISTING /tmp/ccEQRkCa.s 			page 96


 5253 0f8a FE        		.byte	-2
 5254 0f8b FD        		.byte	-3
 5255 0f8c FE        		.byte	-2
 5256 0f8d FE        		.byte	-2
 5257 0f8e FE        		.byte	-2
 5258 0f8f FE        		.byte	-2
 5259 0f90 FE        		.byte	-2
 5260 0f91 FE        		.byte	-2
 5261 0f92 FE        		.byte	-2
 5262 0f93 FE        		.byte	-2
 5263 0f94 FF        		.byte	-1
 5264 0f95 FF        		.byte	-1
 5265 0f96 FF        		.byte	-1
 5266 0f97 FF        		.byte	-1
 5267 0f98 FF        		.byte	-1
 5268 0f99 FF        		.byte	-1
 5269 0f9a FF        		.byte	-1
 5270 0f9b FF        		.byte	-1
 5271 0f9c 00        		.byte	0
 5272 0f9d FF        		.byte	-1
 5273 0f9e FF        		.byte	-1
 5274 0f9f 00        		.byte	0
 5275 0fa0 00        		.byte	0
 5276 0fa1 00        		.byte	0
 5277 0fa2 00        		.byte	0
 5278 0fa3 00        		.byte	0
 5279 0fa4 FF        		.byte	-1
 5280 0fa5 00        		.byte	0
 5281 0fa6 00        		.byte	0
 5282 0fa7 00        		.byte	0
 5283 0fa8 00        		.byte	0
 5284 0fa9 00        		.byte	0
 5285 0faa 00        		.byte	0
 5286 0fab 00        		.byte	0
 5287 0fac 00        		.byte	0
 5288 0fad 00        		.byte	0
 5289 0fae 00        		.byte	0
 5290 0faf 00        		.byte	0
 5291 0fb0 00        		.byte	0
 5292 0fb1 00        		.byte	0
 5293 0fb2 00        		.byte	0
 5294 0fb3 00        		.byte	0
 5295 0fb4 00        		.byte	0
 5296 0fb5 00        		.byte	0
 5297 0fb6 00        		.byte	0
 5298 0fb7 00        		.byte	0
 5299 0fb8 00        		.byte	0
 5300 0fb9 00        		.byte	0
 5301 0fba 00        		.byte	0
 5302 0fbb 00        		.byte	0
 5303 0fbc 00        		.byte	0
 5304 0fbd 01        		.byte	1
 5305 0fbe 00        		.byte	0
 5306 0fbf 00        		.byte	0
 5307 0fc0 00        		.byte	0
 5308 0fc1 00        		.byte	0
 5309 0fc2 00        		.byte	0
GAS LISTING /tmp/ccEQRkCa.s 			page 97


 5310 0fc3 00        		.byte	0
 5311 0fc4 00        		.byte	0
 5312 0fc5 00        		.byte	0
 5313 0fc6 00        		.byte	0
 5314 0fc7 00        		.byte	0
 5315 0fc8 00        		.byte	0
 5316 0fc9 00        		.byte	0
 5317 0fca 00        		.byte	0
 5318 0fcb 00        		.byte	0
 5319 0fcc 00        		.byte	0
 5320 0fcd 00        		.byte	0
 5321 0fce 00        		.byte	0
 5322 0fcf 00        		.byte	0
 5323 0fd0 00        		.byte	0
 5324 0fd1 00        		.byte	0
 5325 0fd2 FF        		.byte	-1
 5326 0fd3 FF        		.byte	-1
 5327 0fd4 FF        		.byte	-1
 5328 0fd5 FF        		.byte	-1
 5329 0fd6 FF        		.byte	-1
 5330 0fd7 FF        		.byte	-1
 5331 0fd8 FF        		.byte	-1
 5332 0fd9 FF        		.byte	-1
 5333 0fda FF        		.byte	-1
 5334 0fdb FF        		.byte	-1
 5335 0fdc FF        		.byte	-1
 5336 0fdd FF        		.byte	-1
 5337 0fde 00        		.byte	0
 5338 0fdf 00        		.byte	0
 5339 0fe0 FF        		.byte	-1
 5340 0fe1 FF        		.byte	-1
 5341 0fe2 FF        		.byte	-1
 5342 0fe3 FF        		.byte	-1
 5343 0fe4 FF        		.byte	-1
 5344 0fe5 FF        		.byte	-1
 5345 0fe6 FF        		.byte	-1
 5346 0fe7 FF        		.byte	-1
 5347 0fe8 FF        		.byte	-1
 5348 0fe9 FF        		.byte	-1
 5349 0fea FF        		.byte	-1
 5350 0feb FF        		.byte	-1
 5351 0fec FF        		.byte	-1
 5352 0fed FF        		.byte	-1
 5353 0fee FF        		.byte	-1
 5354 0fef FF        		.byte	-1
 5355 0ff0 FF        		.byte	-1
 5356 0ff1 FF        		.byte	-1
 5357 0ff2 FF        		.byte	-1
 5358 0ff3 FF        		.byte	-1
 5359 0ff4 FF        		.byte	-1
 5360 0ff5 FF        		.byte	-1
 5361 0ff6 FF        		.byte	-1
 5362 0ff7 FF        		.byte	-1
 5363 0ff8 FF        		.byte	-1
 5364 0ff9 FF        		.byte	-1
 5365 0ffa FF        		.byte	-1
 5366 0ffb 00        		.byte	0
GAS LISTING /tmp/ccEQRkCa.s 			page 98


 5367 0ffc 00        		.byte	0
 5368 0ffd 00        		.byte	0
 5369 0ffe FF        		.byte	-1
 5370 0fff FF        		.byte	-1
 5371 1000 FF        		.byte	-1
 5372 1001 FF        		.byte	-1
 5373 1002 FF        		.byte	-1
 5374 1003 FF        		.byte	-1
 5375 1004 FF        		.byte	-1
 5376 1005 FF        		.byte	-1
 5377 1006 FF        		.byte	-1
 5378 1007 FF        		.byte	-1
 5379 1008 FF        		.byte	-1
 5380 1009 FF        		.byte	-1
 5381 100a FF        		.byte	-1
 5382 100b FE        		.byte	-2
 5383 100c FE        		.byte	-2
 5384 100d FE        		.byte	-2
 5385 100e FE        		.byte	-2
 5386 100f FE        		.byte	-2
 5387 1010 FE        		.byte	-2
 5388 1011 FE        		.byte	-2
 5389 1012 FE        		.byte	-2
 5390 1013 FE        		.byte	-2
 5391 1014 FE        		.byte	-2
 5392 1015 FE        		.byte	-2
 5393 1016 FE        		.byte	-2
 5394 1017 FE        		.byte	-2
 5395 1018 FE        		.byte	-2
 5396 1019 FE        		.byte	-2
 5397 101a FE        		.byte	-2
 5398 101b FE        		.byte	-2
 5399 101c FE        		.byte	-2
 5400 101d FE        		.byte	-2
 5401 101e FE        		.byte	-2
 5402 101f FE        		.byte	-2
 5403 1020 FE        		.byte	-2
 5404 1021 FE        		.byte	-2
 5405 1022 FE        		.byte	-2
 5406 1023 FE        		.byte	-2
 5407 1024 FE        		.byte	-2
 5408 1025 FE        		.byte	-2
 5409 1026 FE        		.byte	-2
 5410 1027 FE        		.byte	-2
 5411 1028 FE        		.byte	-2
 5412 1029 FE        		.byte	-2
 5413 102a FE        		.byte	-2
 5414 102b FE        		.byte	-2
 5415 102c FE        		.byte	-2
 5416 102d FE        		.byte	-2
 5417 102e FE        		.byte	-2
 5418 102f FE        		.byte	-2
 5419 1030 FE        		.byte	-2
 5420 1031 FE        		.byte	-2
 5421 1032 FE        		.byte	-2
 5422 1033 FE        		.byte	-2
 5423 1034 FE        		.byte	-2
GAS LISTING /tmp/ccEQRkCa.s 			page 99


 5424 1035 FE        		.byte	-2
 5425 1036 FE        		.byte	-2
 5426 1037 FE        		.byte	-2
 5427 1038 FE        		.byte	-2
 5428 1039 FE        		.byte	-2
 5429 103a FE        		.byte	-2
 5430 103b FE        		.byte	-2
 5431 103c FE        		.byte	-2
 5432 103d FE        		.byte	-2
 5433 103e FE        		.byte	-2
 5434 103f FE        		.byte	-2
 5435 1040 FE        		.byte	-2
 5436 1041 FE        		.byte	-2
 5437 1042 FE        		.byte	-2
 5438 1043 FE        		.byte	-2
 5439 1044 FF        		.byte	-1
 5440 1045 FF        		.byte	-1
 5441 1046 FF        		.byte	-1
 5442 1047 FF        		.byte	-1
 5443 1048 FF        		.byte	-1
 5444 1049 FF        		.byte	-1
 5445 104a FF        		.byte	-1
 5446 104b FF        		.byte	-1
 5447 104c FF        		.byte	-1
 5448 104d FF        		.byte	-1
 5449 104e FF        		.byte	-1
 5450 104f FF        		.byte	-1
 5451 1050 FF        		.byte	-1
 5452 1051 FF        		.byte	-1
 5453 1052 00        		.byte	0
 5454 1053 00        		.byte	0
 5455 1054 00        		.byte	0
 5456 1055 00        		.byte	0
 5457 1056 00        		.byte	0
 5458 1057 00        		.byte	0
 5459 1058 00        		.byte	0
 5460 1059 00        		.byte	0
 5461 105a 00        		.byte	0
 5462 105b 00        		.byte	0
 5463 105c 01        		.byte	1
 5464 105d 01        		.byte	1
 5465 105e 01        		.byte	1
 5466 105f 01        		.byte	1
 5467 1060 01        		.byte	1
 5468 1061 02        		.byte	2
 5469 1062 02        		.byte	2
 5470 1063 02        		.byte	2
 5471 1064 02        		.byte	2
 5472 1065 02        		.byte	2
 5473 1066 02        		.byte	2
 5474 1067 02        		.byte	2
 5475 1068 02        		.byte	2
 5476 1069 02        		.byte	2
 5477 106a 02        		.byte	2
 5478 106b 02        		.byte	2
 5479 106c 02        		.byte	2
 5480 106d 02        		.byte	2
GAS LISTING /tmp/ccEQRkCa.s 			page 100


 5481 106e 02        		.byte	2
 5482 106f 02        		.byte	2
 5483 1070 02        		.byte	2
 5484 1071 02        		.byte	2
 5485 1072 02        		.byte	2
 5486 1073 02        		.byte	2
 5487 1074 02        		.byte	2
 5488 1075 01        		.byte	1
 5489 1076 01        		.byte	1
 5490 1077 01        		.byte	1
 5491 1078 01        		.byte	1
 5492 1079 00        		.byte	0
 5493 107a 00        		.byte	0
 5494 107b 00        		.byte	0
 5495 107c 00        		.byte	0
 5496 107d 00        		.byte	0
 5497 107e 00        		.byte	0
 5498 107f 00        		.byte	0
 5499 1080 FF        		.byte	-1
 5500 1081 FF        		.byte	-1
 5501 1082 FF        		.byte	-1
 5502 1083 FF        		.byte	-1
 5503 1084 FF        		.byte	-1
 5504 1085 FF        		.byte	-1
 5505 1086 FF        		.byte	-1
 5506 1087 FF        		.byte	-1
 5507 1088 FF        		.byte	-1
 5508 1089 FF        		.byte	-1
 5509 108a FF        		.byte	-1
 5510 108b FF        		.byte	-1
 5511 108c FF        		.byte	-1
 5512 108d FF        		.byte	-1
 5513 108e FF        		.byte	-1
 5514 108f FF        		.byte	-1
 5515 1090 FF        		.byte	-1
 5516 1091 FF        		.byte	-1
 5517 1092 FF        		.byte	-1
 5518 1093 FF        		.byte	-1
 5519 1094 FF        		.byte	-1
 5520 1095 FF        		.byte	-1
 5521 1096 FF        		.byte	-1
 5522 1097 FF        		.byte	-1
 5523 1098 FF        		.byte	-1
 5524 1099 FF        		.byte	-1
 5525 109a FF        		.byte	-1
 5526 109b FF        		.byte	-1
 5527 109c FF        		.byte	-1
 5528 109d FF        		.byte	-1
 5529 109e FF        		.byte	-1
 5530 109f FF        		.byte	-1
 5531 10a0 00        		.byte	0
 5532 10a1 00        		.byte	0
 5533 10a2 00        		.byte	0
 5534 10a3 00        		.byte	0
 5535 10a4 00        		.byte	0
 5536 10a5 00        		.byte	0
 5537 10a6 00        		.byte	0
GAS LISTING /tmp/ccEQRkCa.s 			page 101


 5538 10a7 00        		.byte	0
 5539 10a8 00        		.byte	0
 5540 10a9 00        		.byte	0
 5541 10aa 00        		.byte	0
 5542 10ab 00        		.byte	0
 5543 10ac 01        		.byte	1
 5544 10ad 00        		.byte	0
 5545 10ae 00        		.byte	0
 5546 10af 00        		.byte	0
 5547 10b0 00        		.byte	0
 5548 10b1 00        		.byte	0
 5549 10b2 00        		.byte	0
 5550 10b3 00        		.byte	0
 5551 10b4 00        		.byte	0
 5552 10b5 00        		.byte	0
 5553 10b6 00        		.byte	0
 5554 10b7 00        		.byte	0
 5555 10b8 00        		.byte	0
 5556 10b9 00        		.byte	0
 5557 10ba 00        		.byte	0
 5558 10bb 00        		.byte	0
 5559 10bc 01        		.byte	1
 5560 10bd 01        		.byte	1
 5561 10be 01        		.byte	1
 5562 10bf 01        		.byte	1
 5563 10c0 00        		.byte	0
 5564 10c1 00        		.byte	0
 5565 10c2 01        		.byte	1
 5566 10c3 01        		.byte	1
 5567 10c4 01        		.byte	1
 5568 10c5 01        		.byte	1
 5569 10c6 01        		.byte	1
 5570 10c7 01        		.byte	1
 5571 10c8 01        		.byte	1
 5572 10c9 01        		.byte	1
 5573 10ca 01        		.byte	1
 5574 10cb 00        		.byte	0
 5575 10cc 00        		.byte	0
 5576 10cd 00        		.byte	0
 5577 10ce 00        		.byte	0
 5578 10cf 00        		.byte	0
 5579 10d0 00        		.byte	0
 5580 10d1 00        		.byte	0
 5581 10d2 00        		.byte	0
 5582 10d3 00        		.byte	0
 5583 10d4 00        		.byte	0
 5584 10d5 00        		.byte	0
 5585 10d6 00        		.byte	0
 5586 10d7 00        		.byte	0
 5587 10d8 00        		.byte	0
 5588 10d9 00        		.byte	0
 5589 10da 00        		.byte	0
 5590 10db 00        		.byte	0
 5591 10dc 00        		.byte	0
 5592 10dd 00        		.byte	0
 5593 10de 00        		.byte	0
 5594 10df 00        		.byte	0
GAS LISTING /tmp/ccEQRkCa.s 			page 102


 5595 10e0 00        		.byte	0
 5596 10e1 00        		.byte	0
 5597 10e2 00        		.byte	0
 5598 10e3 00        		.byte	0
 5599 10e4 00        		.byte	0
 5600 10e5 00        		.byte	0
 5601 10e6 01        		.byte	1
 5602 10e7 01        		.byte	1
 5603 10e8 01        		.byte	1
 5604 10e9 01        		.byte	1
 5605 10ea 01        		.byte	1
 5606 10eb 02        		.byte	2
 5607 10ec 02        		.byte	2
 5608 10ed 02        		.byte	2
 5609 10ee 02        		.byte	2
 5610 10ef 02        		.byte	2
 5611 10f0 02        		.byte	2
 5612 10f1 02        		.byte	2
 5613 10f2 02        		.byte	2
 5614 10f3 02        		.byte	2
 5615 10f4 02        		.byte	2
 5616 10f5 02        		.byte	2
 5617 10f6 02        		.byte	2
 5618 10f7 02        		.byte	2
 5619 10f8 02        		.byte	2
 5620 10f9 01        		.byte	1
 5621 10fa 01        		.byte	1
 5622 10fb 01        		.byte	1
 5623 10fc 01        		.byte	1
 5624 10fd 01        		.byte	1
 5625 10fe 01        		.byte	1
 5626 10ff 01        		.byte	1
 5627 1100 01        		.byte	1
 5628 1101 01        		.byte	1
 5629 1102 01        		.byte	1
 5630 1103 01        		.byte	1
 5631 1104 01        		.byte	1
 5632 1105 00        		.byte	0
 5633 1106 01        		.byte	1
 5634 1107 01        		.byte	1
 5635 1108 01        		.byte	1
 5636 1109 01        		.byte	1
 5637 110a 01        		.byte	1
 5638 110b 01        		.byte	1
 5639 110c 00        		.byte	0
 5640 110d 00        		.byte	0
 5641 110e 00        		.byte	0
 5642 110f 00        		.byte	0
 5643 1110 00        		.byte	0
 5644 1111 00        		.byte	0
 5645 1112 00        		.byte	0
 5646 1113 FF        		.byte	-1
 5647 1114 FF        		.byte	-1
 5648 1115 FF        		.byte	-1
 5649 1116 FF        		.byte	-1
 5650 1117 FF        		.byte	-1
 5651 1118 FF        		.byte	-1
GAS LISTING /tmp/ccEQRkCa.s 			page 103


 5652 1119 FF        		.byte	-1
 5653 111a FF        		.byte	-1
 5654 111b FF        		.byte	-1
 5655 111c FF        		.byte	-1
 5656 111d FF        		.byte	-1
 5657 111e FE        		.byte	-2
 5658 111f FE        		.byte	-2
 5659 1120 FE        		.byte	-2
 5660 1121 FE        		.byte	-2
 5661 1122 FE        		.byte	-2
 5662 1123 FF        		.byte	-1
 5663 1124 FF        		.byte	-1
 5664 1125 FF        		.byte	-1
 5665 1126 FF        		.byte	-1
 5666 1127 FF        		.byte	-1
 5667 1128 FF        		.byte	-1
 5668 1129 FF        		.byte	-1
 5669 112a FF        		.byte	-1
 5670 112b FF        		.byte	-1
 5671 112c FF        		.byte	-1
 5672 112d FF        		.byte	-1
 5673 112e FF        		.byte	-1
 5674 112f FF        		.byte	-1
 5675 1130 FF        		.byte	-1
 5676 1131 FF        		.byte	-1
 5677 1132 FF        		.byte	-1
 5678 1133 FF        		.byte	-1
 5679 1134 FF        		.byte	-1
 5680 1135 FF        		.byte	-1
 5681 1136 FF        		.byte	-1
 5682 1137 FF        		.byte	-1
 5683 1138 FF        		.byte	-1
 5684 1139 FF        		.byte	-1
 5685 113a FF        		.byte	-1
 5686 113b FF        		.byte	-1
 5687 113c FF        		.byte	-1
 5688 113d FF        		.byte	-1
 5689 113e FF        		.byte	-1
 5690 113f FF        		.byte	-1
 5691 1140 FF        		.byte	-1
 5692 1141 00        		.byte	0
 5693 1142 00        		.byte	0
 5694 1143 00        		.byte	0
 5695 1144 00        		.byte	0
 5696 1145 00        		.byte	0
 5697 1146 00        		.byte	0
 5698 1147 00        		.byte	0
 5699 1148 00        		.byte	0
 5700 1149 00        		.byte	0
 5701 114a 00        		.byte	0
 5702 114b 00        		.byte	0
 5703 114c 00        		.byte	0
 5704 114d 00        		.byte	0
 5705 114e 00        		.byte	0
 5706 114f 00        		.byte	0
 5707 1150 00        		.byte	0
 5708 1151 00        		.byte	0
GAS LISTING /tmp/ccEQRkCa.s 			page 104


 5709 1152 00        		.byte	0
 5710 1153 FF        		.byte	-1
 5711 1154 00        		.byte	0
 5712 1155 00        		.byte	0
 5713 1156 00        		.byte	0
 5714 1157 00        		.byte	0
 5715 1158 00        		.byte	0
 5716 1159 00        		.byte	0
 5717 115a 00        		.byte	0
 5718 115b 00        		.byte	0
 5719 115c 00        		.byte	0
 5720 115d 00        		.byte	0
 5721 115e 00        		.byte	0
 5722 115f 00        		.byte	0
 5723 1160 00        		.byte	0
 5724 1161 00        		.byte	0
 5725 1162 00        		.byte	0
 5726 1163 00        		.byte	0
 5727 1164 00        		.byte	0
 5728 1165 00        		.byte	0
 5729 1166 00        		.byte	0
 5730 1167 00        		.byte	0
 5731 1168 00        		.byte	0
 5732 1169 00        		.byte	0
 5733 116a 00        		.byte	0
 5734 116b 00        		.byte	0
 5735 116c 00        		.byte	0
 5736 116d FF        		.byte	-1
 5737 116e FF        		.byte	-1
 5738 116f FF        		.byte	-1
 5739 1170 FF        		.byte	-1
 5740 1171 FF        		.byte	-1
 5741 1172 FF        		.byte	-1
 5742 1173 FF        		.byte	-1
 5743 1174 FF        		.byte	-1
 5744 1175 FF        		.byte	-1
 5745 1176 FF        		.byte	-1
 5746 1177 FF        		.byte	-1
 5747 1178 FF        		.byte	-1
 5748 1179 FF        		.byte	-1
 5749 117a FF        		.byte	-1
 5750 117b FF        		.byte	-1
 5751 117c 00        		.byte	0
 5752 117d FF        		.byte	-1
 5753 117e FF        		.byte	-1
 5754 117f 00        		.byte	0
 5755 1180 FF        		.byte	-1
 5756 1181 FF        		.byte	-1
 5757 1182 FF        		.byte	-1
 5758 1183 00        		.byte	0
 5759 1184 FF        		.byte	-1
 5760 1185 FF        		.byte	-1
 5761 1186 FF        		.byte	-1
 5762 1187 FF        		.byte	-1
 5763 1188 FF        		.byte	-1
 5764 1189 FF        		.byte	-1
 5765 118a FF        		.byte	-1
GAS LISTING /tmp/ccEQRkCa.s 			page 105


 5766 118b FF        		.byte	-1
 5767 118c FF        		.byte	-1
 5768 118d FF        		.byte	-1
 5769 118e FF        		.byte	-1
 5770 118f FF        		.byte	-1
 5771 1190 FF        		.byte	-1
 5772 1191 FF        		.byte	-1
 5773 1192 FF        		.byte	-1
 5774 1193 FF        		.byte	-1
 5775 1194 FF        		.byte	-1
 5776 1195 FF        		.byte	-1
 5777 1196 FF        		.byte	-1
 5778 1197 FF        		.byte	-1
 5779 1198 FF        		.byte	-1
 5780 1199 FF        		.byte	-1
 5781 119a FF        		.byte	-1
 5782 119b FF        		.byte	-1
 5783 119c FF        		.byte	-1
 5784 119d FF        		.byte	-1
 5785 119e FF        		.byte	-1
 5786 119f FF        		.byte	-1
 5787 11a0 FF        		.byte	-1
 5788 11a1 FF        		.byte	-1
 5789 11a2 FF        		.byte	-1
 5790 11a3 FF        		.byte	-1
 5791 11a4 FF        		.byte	-1
 5792 11a5 FF        		.byte	-1
 5793 11a6 FF        		.byte	-1
 5794 11a7 FF        		.byte	-1
 5795 11a8 FF        		.byte	-1
 5796 11a9 FF        		.byte	-1
 5797 11aa FF        		.byte	-1
 5798 11ab FF        		.byte	-1
 5799 11ac FF        		.byte	-1
 5800 11ad FF        		.byte	-1
 5801 11ae FF        		.byte	-1
 5802 11af FF        		.byte	-1
 5803 11b0 FF        		.byte	-1
 5804 11b1 FF        		.byte	-1
 5805 11b2 FF        		.byte	-1
 5806 11b3 FF        		.byte	-1
 5807 11b4 FF        		.byte	-1
 5808 11b5 FF        		.byte	-1
 5809 11b6 FF        		.byte	-1
 5810 11b7 FF        		.byte	-1
 5811 11b8 FF        		.byte	-1
 5812 11b9 FF        		.byte	-1
 5813 11ba FF        		.byte	-1
 5814 11bb FF        		.byte	-1
 5815 11bc FF        		.byte	-1
 5816 11bd FF        		.byte	-1
 5817 11be FF        		.byte	-1
 5818 11bf FF        		.byte	-1
 5819 11c0 FF        		.byte	-1
 5820 11c1 FF        		.byte	-1
 5821 11c2 FF        		.byte	-1
 5822 11c3 FF        		.byte	-1
GAS LISTING /tmp/ccEQRkCa.s 			page 106


 5823 11c4 FF        		.byte	-1
 5824 11c5 FF        		.byte	-1
 5825 11c6 FF        		.byte	-1
 5826 11c7 FF        		.byte	-1
 5827 11c8 FF        		.byte	-1
 5828 11c9 FF        		.byte	-1
 5829 11ca FF        		.byte	-1
 5830 11cb FF        		.byte	-1
 5831 11cc FF        		.byte	-1
 5832 11cd FF        		.byte	-1
 5833 11ce FF        		.byte	-1
 5834 11cf FF        		.byte	-1
 5835 11d0 FF        		.byte	-1
 5836 11d1 00        		.byte	0
 5837 11d2 00        		.byte	0
 5838 11d3 00        		.byte	0
 5839 11d4 00        		.byte	0
 5840 11d5 00        		.byte	0
 5841 11d6 00        		.byte	0
 5842 11d7 00        		.byte	0
 5843 11d8 00        		.byte	0
 5844 11d9 00        		.byte	0
 5845 11da 00        		.byte	0
 5846 11db 00        		.byte	0
 5847 11dc 00        		.byte	0
 5848 11dd 00        		.byte	0
 5849 11de 00        		.byte	0
 5850 11df 00        		.byte	0
 5851 11e0 00        		.byte	0
 5852 11e1 00        		.byte	0
 5853 11e2 00        		.byte	0
 5854 11e3 00        		.byte	0
 5855 11e4 00        		.byte	0
 5856 11e5 00        		.byte	0
 5857 11e6 00        		.byte	0
 5858 11e7 00        		.byte	0
 5859 11e8 00        		.byte	0
 5860 11e9 00        		.byte	0
 5861 11ea 00        		.byte	0
 5862 11eb FF        		.byte	-1
 5863 11ec FF        		.byte	-1
 5864 11ed FF        		.byte	-1
 5865 11ee FF        		.byte	-1
 5866 11ef FF        		.byte	-1
 5867 11f0 FF        		.byte	-1
 5868 11f1 FF        		.byte	-1
 5869 11f2 FF        		.byte	-1
 5870 11f3 FF        		.byte	-1
 5871 11f4 FF        		.byte	-1
 5872 11f5 FF        		.byte	-1
 5873 11f6 FF        		.byte	-1
 5874 11f7 FF        		.byte	-1
 5875 11f8 FF        		.byte	-1
 5876 11f9 FF        		.byte	-1
 5877 11fa FF        		.byte	-1
 5878 11fb FF        		.byte	-1
 5879 11fc FF        		.byte	-1
GAS LISTING /tmp/ccEQRkCa.s 			page 107


 5880 11fd FF        		.byte	-1
 5881 11fe FF        		.byte	-1
 5882 11ff FF        		.byte	-1
 5883 1200 FF        		.byte	-1
 5884 1201 FF        		.byte	-1
 5885 1202 FF        		.byte	-1
 5886 1203 FF        		.byte	-1
 5887 1204 FF        		.byte	-1
 5888 1205 FF        		.byte	-1
 5889 1206 FF        		.byte	-1
 5890 1207 FF        		.byte	-1
 5891 1208 FF        		.byte	-1
 5892 1209 FF        		.byte	-1
 5893 120a FF        		.byte	-1
 5894 120b FF        		.byte	-1
 5895 120c FF        		.byte	-1
 5896 120d FF        		.byte	-1
 5897 120e FF        		.byte	-1
 5898 120f FF        		.byte	-1
 5899 1210 FF        		.byte	-1
 5900 1211 FF        		.byte	-1
 5901 1212 FF        		.byte	-1
 5902 1213 FF        		.byte	-1
 5903 1214 00        		.byte	0
 5904 1215 00        		.byte	0
 5905 1216 00        		.byte	0
 5906 1217 00        		.byte	0
 5907 1218 00        		.byte	0
 5908 1219 00        		.byte	0
 5909 121a 00        		.byte	0
 5910 121b 00        		.byte	0
 5911 121c 00        		.byte	0
 5912 121d 00        		.byte	0
 5913 121e 00        		.byte	0
 5914 121f 00        		.byte	0
 5915 1220 FF        		.byte	-1
 5916 1221 FF        		.byte	-1
 5917 1222 FF        		.byte	-1
 5918 1223 FF        		.byte	-1
 5919 1224 FF        		.byte	-1
 5920 1225 FF        		.byte	-1
 5921 1226 FF        		.byte	-1
 5922 1227 FF        		.byte	-1
 5923 1228 FF        		.byte	-1
 5924 1229 FF        		.byte	-1
 5925 122a FF        		.byte	-1
 5926 122b FF        		.byte	-1
 5927 122c FF        		.byte	-1
 5928 122d FF        		.byte	-1
 5929 122e FF        		.byte	-1
 5930 122f FF        		.byte	-1
 5931 1230 FF        		.byte	-1
 5932 1231 FF        		.byte	-1
 5933 1232 FF        		.byte	-1
 5934 1233 FF        		.byte	-1
 5935 1234 FF        		.byte	-1
 5936 1235 FF        		.byte	-1
GAS LISTING /tmp/ccEQRkCa.s 			page 108


 5937 1236 FF        		.byte	-1
 5938 1237 FF        		.byte	-1
 5939 1238 FF        		.byte	-1
 5940 1239 FF        		.byte	-1
 5941 123a FF        		.byte	-1
 5942 123b FF        		.byte	-1
 5943 123c FF        		.byte	-1
 5944 123d FF        		.byte	-1
 5945 123e FF        		.byte	-1
 5946 123f FF        		.byte	-1
 5947 1240 FF        		.byte	-1
 5948 1241 FF        		.byte	-1
 5949 1242 FF        		.byte	-1
 5950 1243 FF        		.byte	-1
 5951 1244 FF        		.byte	-1
 5952 1245 FF        		.byte	-1
 5953 1246 FF        		.byte	-1
 5954 1247 FF        		.byte	-1
 5955 1248 FF        		.byte	-1
 5956 1249 FF        		.byte	-1
 5957 124a FF        		.byte	-1
 5958 124b FF        		.byte	-1
 5959 124c FF        		.byte	-1
 5960 124d FF        		.byte	-1
 5961 124e 00        		.byte	0
 5962 124f 00        		.byte	0
 5963 1250 00        		.byte	0
 5964 1251 FF        		.byte	-1
 5965 1252 00        		.byte	0
 5966 1253 00        		.byte	0
 5967 1254 00        		.byte	0
 5968 1255 00        		.byte	0
 5969 1256 00        		.byte	0
 5970 1257 00        		.byte	0
 5971 1258 00        		.byte	0
 5972 1259 00        		.byte	0
 5973 125a 00        		.byte	0
 5974 125b 00        		.byte	0
 5975 125c 00        		.byte	0
 5976 125d 00        		.byte	0
 5977 125e 00        		.byte	0
 5978 125f 00        		.byte	0
 5979 1260 00        		.byte	0
 5980 1261 00        		.byte	0
 5981 1262 00        		.byte	0
 5982 1263 00        		.byte	0
 5983 1264 00        		.byte	0
 5984 1265 00        		.byte	0
 5985 1266 00        		.byte	0
 5986 1267 00        		.byte	0
 5987 1268 00        		.byte	0
 5988 1269 00        		.byte	0
 5989 126a 00        		.byte	0
 5990 126b 00        		.byte	0
 5991 126c 00        		.byte	0
 5992 126d 00        		.byte	0
 5993 126e 00        		.byte	0
GAS LISTING /tmp/ccEQRkCa.s 			page 109


 5994 126f 00        		.byte	0
 5995 1270 00        		.byte	0
 5996 1271 00        		.byte	0
 5997 1272 00        		.byte	0
 5998 1273 00        		.byte	0
 5999 1274 00        		.byte	0
 6000 1275 FF        		.byte	-1
 6001 1276 FF        		.byte	-1
 6002 1277 FF        		.byte	-1
 6003 1278 FF        		.byte	-1
 6004 1279 FF        		.byte	-1
 6005 127a FF        		.byte	-1
 6006 127b FF        		.byte	-1
 6007 127c FF        		.byte	-1
 6008 127d FF        		.byte	-1
 6009 127e FF        		.byte	-1
 6010 127f FF        		.byte	-1
 6011 1280 FF        		.byte	-1
 6013               	.global	aud0dat
 6016               	aud0dat:
 6017 1281 FF        		.byte	-1
 6018 1282 FF        		.byte	-1
 6019 1283 FF        		.byte	-1
 6020 1284 FF        		.byte	-1
 6021 1285 FF        		.byte	-1
 6022 1286 FF        		.byte	-1
 6023 1287 FF        		.byte	-1
 6024 1288 FF        		.byte	-1
 6025 1289 FF        		.byte	-1
 6026 128a FF        		.byte	-1
 6027 128b FF        		.byte	-1
 6028 128c FF        		.byte	-1
 6029 128d FF        		.byte	-1
 6030 128e FF        		.byte	-1
 6031 128f FF        		.byte	-1
 6032 1290 FF        		.byte	-1
 6033 1291 FF        		.byte	-1
 6034 1292 FF        		.byte	-1
 6035 1293 FF        		.byte	-1
 6036 1294 FF        		.byte	-1
 6037 1295 FF        		.byte	-1
 6038 1296 FF        		.byte	-1
 6039 1297 FF        		.byte	-1
 6040 1298 FF        		.byte	-1
 6041 1299 FF        		.byte	-1
 6042 129a FF        		.byte	-1
 6043 129b FF        		.byte	-1
 6044 129c FF        		.byte	-1
 6045 129d FF        		.byte	-1
 6046 129e FF        		.byte	-1
 6047 129f FF        		.byte	-1
 6048 12a0 FF        		.byte	-1
 6049 12a1 FF        		.byte	-1
 6050 12a2 FF        		.byte	-1
 6051 12a3 FF        		.byte	-1
 6052 12a4 FF        		.byte	-1
 6053 12a5 FF        		.byte	-1
GAS LISTING /tmp/ccEQRkCa.s 			page 110


 6054 12a6 FF        		.byte	-1
 6055 12a7 FF        		.byte	-1
 6056 12a8 FF        		.byte	-1
 6057 12a9 FF        		.byte	-1
 6058 12aa FF        		.byte	-1
 6059 12ab FF        		.byte	-1
 6060 12ac FF        		.byte	-1
 6061 12ad FF        		.byte	-1
 6062 12ae FF        		.byte	-1
 6063 12af FF        		.byte	-1
 6064 12b0 FF        		.byte	-1
 6065 12b1 FF        		.byte	-1
 6066 12b2 FF        		.byte	-1
 6067 12b3 FF        		.byte	-1
 6068 12b4 FF        		.byte	-1
 6069 12b5 FF        		.byte	-1
 6070 12b6 FF        		.byte	-1
 6071 12b7 FF        		.byte	-1
 6072 12b8 FF        		.byte	-1
 6073 12b9 FF        		.byte	-1
 6074 12ba FF        		.byte	-1
 6075 12bb FF        		.byte	-1
 6076 12bc FF        		.byte	-1
 6077 12bd FF        		.byte	-1
 6078 12be FF        		.byte	-1
 6079 12bf FF        		.byte	-1
 6080 12c0 FF        		.byte	-1
 6081 12c1 FF        		.byte	-1
 6082 12c2 FF        		.byte	-1
 6083 12c3 FF        		.byte	-1
 6084 12c4 FF        		.byte	-1
 6085 12c5 FF        		.byte	-1
 6086 12c6 FF        		.byte	-1
 6087 12c7 FF        		.byte	-1
 6088 12c8 FF        		.byte	-1
 6089 12c9 FF        		.byte	-1
 6090 12ca FF        		.byte	-1
 6091 12cb FF        		.byte	-1
 6092 12cc FF        		.byte	-1
 6093 12cd FF        		.byte	-1
 6094 12ce FF        		.byte	-1
 6095 12cf FF        		.byte	-1
 6096 12d0 FF        		.byte	-1
 6097 12d1 FF        		.byte	-1
 6098 12d2 FF        		.byte	-1
 6099 12d3 FF        		.byte	-1
 6100 12d4 FF        		.byte	-1
 6101 12d5 FF        		.byte	-1
 6102 12d6 FF        		.byte	-1
 6103 12d7 FF        		.byte	-1
 6104 12d8 FF        		.byte	-1
 6105 12d9 FF        		.byte	-1
 6106 12da FF        		.byte	-1
 6107 12db FF        		.byte	-1
 6108 12dc FF        		.byte	-1
 6109 12dd FF        		.byte	-1
 6110 12de FF        		.byte	-1
GAS LISTING /tmp/ccEQRkCa.s 			page 111


 6111 12df FF        		.byte	-1
 6112 12e0 FF        		.byte	-1
 6113 12e1 FF        		.byte	-1
 6114 12e2 FF        		.byte	-1
 6115 12e3 FF        		.byte	-1
 6116 12e4 FF        		.byte	-1
 6117 12e5 FF        		.byte	-1
 6118 12e6 FF        		.byte	-1
 6119 12e7 FF        		.byte	-1
 6120 12e8 FF        		.byte	-1
 6121 12e9 FF        		.byte	-1
 6122 12ea FF        		.byte	-1
 6123 12eb FF        		.byte	-1
 6124 12ec FF        		.byte	-1
 6125 12ed FF        		.byte	-1
 6126 12ee 00        		.byte	0
 6127 12ef 00        		.byte	0
 6128 12f0 00        		.byte	0
 6129 12f1 00        		.byte	0
 6130 12f2 00        		.byte	0
 6131 12f3 00        		.byte	0
 6132 12f4 00        		.byte	0
 6133 12f5 00        		.byte	0
 6134 12f6 00        		.byte	0
 6135 12f7 00        		.byte	0
 6136 12f8 00        		.byte	0
 6137 12f9 00        		.byte	0
 6138 12fa 00        		.byte	0
 6139 12fb 01        		.byte	1
 6140 12fc 01        		.byte	1
 6141 12fd 01        		.byte	1
 6142 12fe 01        		.byte	1
 6143 12ff 01        		.byte	1
 6144 1300 01        		.byte	1
 6145 1301 01        		.byte	1
 6146 1302 01        		.byte	1
 6147 1303 02        		.byte	2
 6148 1304 02        		.byte	2
 6149 1305 02        		.byte	2
 6150 1306 02        		.byte	2
 6151 1307 02        		.byte	2
 6152 1308 02        		.byte	2
 6153 1309 03        		.byte	3
 6154 130a 03        		.byte	3
 6155 130b 02        		.byte	2
 6156 130c 02        		.byte	2
 6157 130d 02        		.byte	2
 6158 130e 02        		.byte	2
 6159 130f 02        		.byte	2
 6160 1310 01        		.byte	1
 6161 1311 01        		.byte	1
 6162 1312 00        		.byte	0
 6163 1313 00        		.byte	0
 6164 1314 FF        		.byte	-1
 6165 1315 FF        		.byte	-1
 6166 1316 FF        		.byte	-1
 6167 1317 FE        		.byte	-2
GAS LISTING /tmp/ccEQRkCa.s 			page 112


 6168 1318 FE        		.byte	-2
 6169 1319 FE        		.byte	-2
 6170 131a FD        		.byte	-3
 6171 131b FD        		.byte	-3
 6172 131c FD        		.byte	-3
 6173 131d FD        		.byte	-3
 6174 131e FD        		.byte	-3
 6175 131f FD        		.byte	-3
 6176 1320 FD        		.byte	-3
 6177 1321 FD        		.byte	-3
 6178 1322 FD        		.byte	-3
 6179 1323 FD        		.byte	-3
 6180 1324 FE        		.byte	-2
 6181 1325 FE        		.byte	-2
 6182 1326 FE        		.byte	-2
 6183 1327 FE        		.byte	-2
 6184 1328 FE        		.byte	-2
 6185 1329 FF        		.byte	-1
 6186 132a FF        		.byte	-1
 6187 132b FF        		.byte	-1
 6188 132c FF        		.byte	-1
 6189 132d FF        		.byte	-1
 6190 132e 00        		.byte	0
 6191 132f 00        		.byte	0
 6192 1330 00        		.byte	0
 6193 1331 00        		.byte	0
 6194 1332 00        		.byte	0
 6195 1333 00        		.byte	0
 6196 1334 00        		.byte	0
 6197 1335 00        		.byte	0
 6198 1336 00        		.byte	0
 6199 1337 01        		.byte	1
 6200 1338 01        		.byte	1
 6201 1339 01        		.byte	1
 6202 133a 01        		.byte	1
 6203 133b 01        		.byte	1
 6204 133c 01        		.byte	1
 6205 133d 01        		.byte	1
 6206 133e 01        		.byte	1
 6207 133f 01        		.byte	1
 6208 1340 01        		.byte	1
 6209 1341 00        		.byte	0
 6210 1342 00        		.byte	0
 6211 1343 00        		.byte	0
 6212 1344 00        		.byte	0
 6213 1345 00        		.byte	0
 6214 1346 00        		.byte	0
 6215 1347 00        		.byte	0
 6216 1348 00        		.byte	0
 6217 1349 00        		.byte	0
 6218 134a 00        		.byte	0
 6219 134b 00        		.byte	0
 6220 134c 00        		.byte	0
 6221 134d 00        		.byte	0
 6222 134e 00        		.byte	0
 6223 134f 00        		.byte	0
 6224 1350 00        		.byte	0
GAS LISTING /tmp/ccEQRkCa.s 			page 113


 6225 1351 00        		.byte	0
 6226 1352 00        		.byte	0
 6227 1353 00        		.byte	0
 6228 1354 00        		.byte	0
 6229 1355 00        		.byte	0
 6230 1356 00        		.byte	0
 6231 1357 00        		.byte	0
 6232 1358 00        		.byte	0
 6233 1359 00        		.byte	0
 6234 135a 00        		.byte	0
 6235 135b 00        		.byte	0
 6236 135c 00        		.byte	0
 6237 135d 00        		.byte	0
 6238 135e 00        		.byte	0
 6239 135f 00        		.byte	0
 6240 1360 00        		.byte	0
 6241 1361 00        		.byte	0
 6242 1362 00        		.byte	0
 6243 1363 00        		.byte	0
 6244 1364 00        		.byte	0
 6245 1365 00        		.byte	0
 6246 1366 00        		.byte	0
 6247 1367 00        		.byte	0
 6248 1368 00        		.byte	0
 6249 1369 00        		.byte	0
 6250 136a 00        		.byte	0
 6251 136b 00        		.byte	0
 6252 136c 00        		.byte	0
 6253 136d 00        		.byte	0
 6254 136e 00        		.byte	0
 6255 136f 00        		.byte	0
 6256 1370 00        		.byte	0
 6257 1371 00        		.byte	0
 6258 1372 00        		.byte	0
 6259 1373 00        		.byte	0
 6260 1374 00        		.byte	0
 6261 1375 00        		.byte	0
 6262 1376 00        		.byte	0
 6263 1377 00        		.byte	0
 6264 1378 00        		.byte	0
 6265 1379 00        		.byte	0
 6266 137a 00        		.byte	0
 6267 137b 00        		.byte	0
 6268 137c FF        		.byte	-1
 6269 137d FF        		.byte	-1
 6270 137e FF        		.byte	-1
 6271 137f FF        		.byte	-1
 6272 1380 FF        		.byte	-1
 6273 1381 FF        		.byte	-1
 6274 1382 FE        		.byte	-2
 6275 1383 FE        		.byte	-2
 6276 1384 FE        		.byte	-2
 6277 1385 FE        		.byte	-2
 6278 1386 FE        		.byte	-2
 6279 1387 FE        		.byte	-2
 6280 1388 FE        		.byte	-2
 6281 1389 FE        		.byte	-2
GAS LISTING /tmp/ccEQRkCa.s 			page 114


 6282 138a FE        		.byte	-2
 6283 138b FE        		.byte	-2
 6284 138c FE        		.byte	-2
 6285 138d FE        		.byte	-2
 6286 138e FE        		.byte	-2
 6287 138f FE        		.byte	-2
 6288 1390 FE        		.byte	-2
 6289 1391 FF        		.byte	-1
 6290 1392 FF        		.byte	-1
 6291 1393 FF        		.byte	-1
 6292 1394 FF        		.byte	-1
 6293 1395 FF        		.byte	-1
 6294 1396 00        		.byte	0
 6295 1397 FF        		.byte	-1
 6296 1398 00        		.byte	0
 6297 1399 00        		.byte	0
 6298 139a 00        		.byte	0
 6299 139b 00        		.byte	0
 6300 139c 00        		.byte	0
 6301 139d 00        		.byte	0
 6302 139e 00        		.byte	0
 6303 139f 00        		.byte	0
 6304 13a0 00        		.byte	0
 6305 13a1 00        		.byte	0
 6306 13a2 00        		.byte	0
 6307 13a3 00        		.byte	0
 6308 13a4 00        		.byte	0
 6309 13a5 01        		.byte	1
 6310 13a6 01        		.byte	1
 6311 13a7 01        		.byte	1
 6312 13a8 01        		.byte	1
 6313 13a9 01        		.byte	1
 6314 13aa 01        		.byte	1
 6315 13ab 01        		.byte	1
 6316 13ac 01        		.byte	1
 6317 13ad 01        		.byte	1
 6318 13ae 01        		.byte	1
 6319 13af 01        		.byte	1
 6320 13b0 01        		.byte	1
 6321 13b1 01        		.byte	1
 6322 13b2 01        		.byte	1
 6323 13b3 01        		.byte	1
 6324 13b4 01        		.byte	1
 6325 13b5 01        		.byte	1
 6326 13b6 01        		.byte	1
 6327 13b7 01        		.byte	1
 6328 13b8 01        		.byte	1
 6329 13b9 01        		.byte	1
 6330 13ba 01        		.byte	1
 6331 13bb 01        		.byte	1
 6332 13bc 01        		.byte	1
 6333 13bd 01        		.byte	1
 6334 13be 01        		.byte	1
 6335 13bf 01        		.byte	1
 6336 13c0 01        		.byte	1
 6337 13c1 01        		.byte	1
 6338 13c2 01        		.byte	1
GAS LISTING /tmp/ccEQRkCa.s 			page 115


 6339 13c3 01        		.byte	1
 6340 13c4 01        		.byte	1
 6341 13c5 01        		.byte	1
 6342 13c6 01        		.byte	1
 6343 13c7 01        		.byte	1
 6344 13c8 01        		.byte	1
 6345 13c9 01        		.byte	1
 6346 13ca 01        		.byte	1
 6347 13cb 01        		.byte	1
 6348 13cc 00        		.byte	0
 6349 13cd 00        		.byte	0
 6350 13ce 00        		.byte	0
 6351 13cf 00        		.byte	0
 6352 13d0 00        		.byte	0
 6353 13d1 FF        		.byte	-1
 6354 13d2 FF        		.byte	-1
 6355 13d3 FF        		.byte	-1
 6356 13d4 FF        		.byte	-1
 6357 13d5 FF        		.byte	-1
 6358 13d6 FE        		.byte	-2
 6359 13d7 FE        		.byte	-2
 6360 13d8 FE        		.byte	-2
 6361 13d9 FE        		.byte	-2
 6362 13da FE        		.byte	-2
 6363 13db FE        		.byte	-2
 6364 13dc FE        		.byte	-2
 6365 13dd FE        		.byte	-2
 6366 13de FE        		.byte	-2
 6367 13df FE        		.byte	-2
 6368 13e0 FE        		.byte	-2
 6369 13e1 FE        		.byte	-2
 6370 13e2 FE        		.byte	-2
 6371 13e3 FE        		.byte	-2
 6372 13e4 FE        		.byte	-2
 6373 13e5 FE        		.byte	-2
 6374 13e6 FE        		.byte	-2
 6375 13e7 FE        		.byte	-2
 6376 13e8 FE        		.byte	-2
 6377 13e9 FE        		.byte	-2
 6378 13ea FE        		.byte	-2
 6379 13eb FE        		.byte	-2
 6380 13ec FE        		.byte	-2
 6381 13ed FD        		.byte	-3
 6382 13ee FD        		.byte	-3
 6383 13ef FD        		.byte	-3
 6384 13f0 FD        		.byte	-3
 6385 13f1 FD        		.byte	-3
 6386 13f2 FC        		.byte	-4
 6387 13f3 FC        		.byte	-4
 6388 13f4 FC        		.byte	-4
 6389 13f5 FC        		.byte	-4
 6390 13f6 FC        		.byte	-4
 6391 13f7 FC        		.byte	-4
 6392 13f8 FC        		.byte	-4
 6393 13f9 FC        		.byte	-4
 6394 13fa FC        		.byte	-4
 6395 13fb FD        		.byte	-3
GAS LISTING /tmp/ccEQRkCa.s 			page 116


 6396 13fc FD        		.byte	-3
 6397 13fd FD        		.byte	-3
 6398 13fe FD        		.byte	-3
 6399 13ff FE        		.byte	-2
 6400 1400 FF        		.byte	-1
 6401 1401 FF        		.byte	-1
 6402 1402 FF        		.byte	-1
 6403 1403 00        		.byte	0
 6404 1404 01        		.byte	1
 6405 1405 01        		.byte	1
 6406 1406 02        		.byte	2
 6407 1407 02        		.byte	2
 6408 1408 03        		.byte	3
 6409 1409 03        		.byte	3
 6410 140a 03        		.byte	3
 6411 140b 04        		.byte	4
 6412 140c 04        		.byte	4
 6413 140d 05        		.byte	5
 6414 140e 05        		.byte	5
 6415 140f 06        		.byte	6
 6416 1410 06        		.byte	6
 6417 1411 07        		.byte	7
 6418 1412 08        		.byte	8
 6419 1413 08        		.byte	8
 6420 1414 09        		.byte	9
 6421 1415 09        		.byte	9
 6422 1416 08        		.byte	8
 6423 1417 07        		.byte	7
 6424 1418 08        		.byte	8
 6425 1419 07        		.byte	7
 6426 141a 06        		.byte	6
 6427 141b 04        		.byte	4
 6428 141c 04        		.byte	4
 6429 141d 02        		.byte	2
 6430 141e 01        		.byte	1
 6431 141f FF        		.byte	-1
 6432 1420 FE        		.byte	-2
 6433 1421 FE        		.byte	-2
 6434 1422 FC        		.byte	-4
 6435 1423 FB        		.byte	-5
 6436 1424 FA        		.byte	-6
 6437 1425 FA        		.byte	-6
 6438 1426 F9        		.byte	-7
 6439 1427 F8        		.byte	-8
 6440 1428 F8        		.byte	-8
 6441 1429 F8        		.byte	-8
 6442 142a F8        		.byte	-8
 6443 142b F7        		.byte	-9
 6444 142c F8        		.byte	-8
 6445 142d F9        		.byte	-7
 6446 142e F9        		.byte	-7
 6447 142f F9        		.byte	-7
 6448 1430 F9        		.byte	-7
 6449 1431 FB        		.byte	-5
 6450 1432 FB        		.byte	-5
 6451 1433 FB        		.byte	-5
 6452 1434 FC        		.byte	-4
GAS LISTING /tmp/ccEQRkCa.s 			page 117


 6453 1435 FD        		.byte	-3
 6454 1436 FE        		.byte	-2
 6455 1437 FD        		.byte	-3
 6456 1438 FE        		.byte	-2
 6457 1439 FE        		.byte	-2
 6458 143a FF        		.byte	-1
 6459 143b FF        		.byte	-1
 6460 143c 00        		.byte	0
 6461 143d 00        		.byte	0
 6462 143e 01        		.byte	1
 6463 143f 01        		.byte	1
 6464 1440 01        		.byte	1
 6465 1441 01        		.byte	1
 6466 1442 01        		.byte	1
 6467 1443 02        		.byte	2
 6468 1444 01        		.byte	1
 6469 1445 01        		.byte	1
 6470 1446 02        		.byte	2
 6471 1447 01        		.byte	1
 6472 1448 01        		.byte	1
 6473 1449 01        		.byte	1
 6474 144a 01        		.byte	1
 6475 144b 01        		.byte	1
 6476 144c 01        		.byte	1
 6477 144d 01        		.byte	1
 6478 144e 01        		.byte	1
 6479 144f 00        		.byte	0
 6480 1450 00        		.byte	0
 6481 1451 00        		.byte	0
 6482 1452 00        		.byte	0
 6483 1453 00        		.byte	0
 6484 1454 00        		.byte	0
 6485 1455 FF        		.byte	-1
 6486 1456 FF        		.byte	-1
 6487 1457 FF        		.byte	-1
 6488 1458 FF        		.byte	-1
 6489 1459 FF        		.byte	-1
 6490 145a FF        		.byte	-1
 6491 145b FF        		.byte	-1
 6492 145c FF        		.byte	-1
 6493 145d FE        		.byte	-2
 6494 145e FE        		.byte	-2
 6495 145f FE        		.byte	-2
 6496 1460 FE        		.byte	-2
 6497 1461 FD        		.byte	-3
 6498 1462 FD        		.byte	-3
 6499 1463 FC        		.byte	-4
 6500 1464 FC        		.byte	-4
 6501 1465 FC        		.byte	-4
 6502 1466 FB        		.byte	-5
 6503 1467 FB        		.byte	-5
 6504 1468 FB        		.byte	-5
 6505 1469 FA        		.byte	-6
 6506 146a FA        		.byte	-6
 6507 146b FA        		.byte	-6
 6508 146c FA        		.byte	-6
 6509 146d FA        		.byte	-6
GAS LISTING /tmp/ccEQRkCa.s 			page 118


 6510 146e FB        		.byte	-5
 6511 146f FB        		.byte	-5
 6512 1470 FB        		.byte	-5
 6513 1471 FC        		.byte	-4
 6514 1472 FD        		.byte	-3
 6515 1473 FE        		.byte	-2
 6516 1474 FF        		.byte	-1
 6517 1475 00        		.byte	0
 6518 1476 00        		.byte	0
 6519 1477 01        		.byte	1
 6520 1478 02        		.byte	2
 6521 1479 03        		.byte	3
 6522 147a 04        		.byte	4
 6523 147b 04        		.byte	4
 6524 147c 05        		.byte	5
 6525 147d 05        		.byte	5
 6526 147e 05        		.byte	5
 6527 147f 06        		.byte	6
 6528 1480 06        		.byte	6
 6529 1481 07        		.byte	7
 6530 1482 07        		.byte	7
 6531 1483 07        		.byte	7
 6532 1484 07        		.byte	7
 6533 1485 08        		.byte	8
 6534 1486 08        		.byte	8
 6535 1487 08        		.byte	8
 6536 1488 08        		.byte	8
 6537 1489 09        		.byte	9
 6538 148a 09        		.byte	9
 6539 148b 0A        		.byte	10
 6540 148c 0A        		.byte	10
 6541 148d 0A        		.byte	10
 6542 148e 0B        		.byte	11
 6543 148f 08        		.byte	8
 6544 1490 08        		.byte	8
 6545 1491 08        		.byte	8
 6546 1492 07        		.byte	7
 6547 1493 06        		.byte	6
 6548 1494 03        		.byte	3
 6549 1495 04        		.byte	4
 6550 1496 01        		.byte	1
 6551 1497 00        		.byte	0
 6552 1498 FE        		.byte	-2
 6553 1499 FD        		.byte	-3
 6554 149a FC        		.byte	-4
 6555 149b FA        		.byte	-6
 6556 149c F9        		.byte	-7
 6557 149d F8        		.byte	-8
 6558 149e F9        		.byte	-7
 6559 149f F8        		.byte	-8
 6560 14a0 F7        		.byte	-9
 6561 14a1 F7        		.byte	-9
 6562 14a2 F7        		.byte	-9
 6563 14a3 F7        		.byte	-9
 6564 14a4 F7        		.byte	-9
 6565 14a5 F7        		.byte	-9
 6566 14a6 F8        		.byte	-8
GAS LISTING /tmp/ccEQRkCa.s 			page 119


 6567 14a7 F9        		.byte	-7
 6568 14a8 F9        		.byte	-7
 6569 14a9 F9        		.byte	-7
 6570 14aa FB        		.byte	-5
 6571 14ab FB        		.byte	-5
 6572 14ac FB        		.byte	-5
 6573 14ad FC        		.byte	-4
 6574 14ae FD        		.byte	-3
 6575 14af FE        		.byte	-2
 6576 14b0 FE        		.byte	-2
 6577 14b1 FE        		.byte	-2
 6578 14b2 FF        		.byte	-1
 6579 14b3 00        		.byte	0
 6580 14b4 00        		.byte	0
 6581 14b5 00        		.byte	0
 6582 14b6 01        		.byte	1
 6583 14b7 01        		.byte	1
 6584 14b8 01        		.byte	1
 6585 14b9 01        		.byte	1
 6586 14ba 01        		.byte	1
 6587 14bb 02        		.byte	2
 6588 14bc 02        		.byte	2
 6589 14bd 02        		.byte	2
 6590 14be 02        		.byte	2
 6591 14bf 02        		.byte	2
 6592 14c0 02        		.byte	2
 6593 14c1 01        		.byte	1
 6594 14c2 01        		.byte	1
 6595 14c3 01        		.byte	1
 6596 14c4 01        		.byte	1
 6597 14c5 01        		.byte	1
 6598 14c6 00        		.byte	0
 6599 14c7 00        		.byte	0
 6600 14c8 00        		.byte	0
 6601 14c9 00        		.byte	0
 6602 14ca 00        		.byte	0
 6603 14cb 00        		.byte	0
 6604 14cc FF        		.byte	-1
 6605 14cd FF        		.byte	-1
 6606 14ce FE        		.byte	-2
 6607 14cf FD        		.byte	-3
 6608 14d0 FD        		.byte	-3
 6609 14d1 FC        		.byte	-4
 6610 14d2 FB        		.byte	-5
 6611 14d3 FB        		.byte	-5
 6612 14d4 FA        		.byte	-6
 6613 14d5 FA        		.byte	-6
 6614 14d6 F9        		.byte	-7
 6615 14d7 F9        		.byte	-7
 6616 14d8 F8        		.byte	-8
 6617 14d9 F8        		.byte	-8
 6618 14da F7        		.byte	-9
 6619 14db F8        		.byte	-8
 6620 14dc F8        		.byte	-8
 6621 14dd F8        		.byte	-8
 6622 14de F9        		.byte	-7
 6623 14df F9        		.byte	-7
GAS LISTING /tmp/ccEQRkCa.s 			page 120


 6624 14e0 FA        		.byte	-6
 6625 14e1 FB        		.byte	-5
 6626 14e2 FC        		.byte	-4
 6627 14e3 FD        		.byte	-3
 6628 14e4 FE        		.byte	-2
 6629 14e5 FF        		.byte	-1
 6630 14e6 01        		.byte	1
 6631 14e7 02        		.byte	2
 6632 14e8 03        		.byte	3
 6633 14e9 04        		.byte	4
 6634 14ea 05        		.byte	5
 6635 14eb 06        		.byte	6
 6636 14ec 07        		.byte	7
 6637 14ed 07        		.byte	7
 6638 14ee 08        		.byte	8
 6639 14ef 09        		.byte	9
 6640 14f0 09        		.byte	9
 6641 14f1 0A        		.byte	10
 6642 14f2 0A        		.byte	10
 6643 14f3 0B        		.byte	11
 6644 14f4 0B        		.byte	11
 6645 14f5 0C        		.byte	12
 6646 14f6 0C        		.byte	12
 6647 14f7 0D        		.byte	13
 6648 14f8 0D        		.byte	13
 6649 14f9 0E        		.byte	14
 6650 14fa 0E        		.byte	14
 6651 14fb 0B        		.byte	11
 6652 14fc 0B        		.byte	11
 6653 14fd 0B        		.byte	11
 6654 14fe 0A        		.byte	10
 6655 14ff 08        		.byte	8
 6656 1500 05        		.byte	5
 6657 1501 06        		.byte	6
 6658 1502 02        		.byte	2
 6659 1503 01        		.byte	1
 6660 1504 FE        		.byte	-2
 6661 1505 FD        		.byte	-3
 6662 1506 FC        		.byte	-4
 6663 1507 F9        		.byte	-7
 6664 1508 F8        		.byte	-8
 6665 1509 F7        		.byte	-9
 6666 150a F7        		.byte	-9
 6667 150b F5        		.byte	-11
 6668 150c F4        		.byte	-12
 6669 150d F5        		.byte	-11
 6670 150e F5        		.byte	-11
 6671 150f F4        		.byte	-12
 6672 1510 F4        		.byte	-12
 6673 1511 F5        		.byte	-11
 6674 1512 F6        		.byte	-10
 6675 1513 F6        		.byte	-10
 6676 1514 F7        		.byte	-9
 6677 1515 F7        		.byte	-9
 6678 1516 F9        		.byte	-7
 6679 1517 F9        		.byte	-7
 6680 1518 FA        		.byte	-6
GAS LISTING /tmp/ccEQRkCa.s 			page 121


 6681 1519 FB        		.byte	-5
 6682 151a FC        		.byte	-4
 6683 151b FD        		.byte	-3
 6684 151c FD        		.byte	-3
 6685 151d FE        		.byte	-2
 6686 151e FF        		.byte	-1
 6687 151f 00        		.byte	0
 6688 1520 00        		.byte	0
 6689 1521 00        		.byte	0
 6690 1522 01        		.byte	1
 6691 1523 01        		.byte	1
 6692 1524 02        		.byte	2
 6693 1525 01        		.byte	1
 6694 1526 02        		.byte	2
 6695 1527 02        		.byte	2
 6696 1528 02        		.byte	2
 6697 1529 02        		.byte	2
 6698 152a 02        		.byte	2
 6699 152b 02        		.byte	2
 6700 152c 02        		.byte	2
 6701 152d 01        		.byte	1
 6702 152e 01        		.byte	1
 6703 152f 01        		.byte	1
 6704 1530 01        		.byte	1
 6705 1531 00        		.byte	0
 6706 1532 00        		.byte	0
 6707 1533 00        		.byte	0
 6708 1534 00        		.byte	0
 6709 1535 FF        		.byte	-1
 6710 1536 FF        		.byte	-1
 6711 1537 FF        		.byte	-1
 6712 1538 FF        		.byte	-1
 6713 1539 FE        		.byte	-2
 6714 153a FD        		.byte	-3
 6715 153b FD        		.byte	-3
 6716 153c FC        		.byte	-4
 6717 153d FB        		.byte	-5
 6718 153e FB        		.byte	-5
 6719 153f FA        		.byte	-6
 6720 1540 F9        		.byte	-7
 6721 1541 F8        		.byte	-8
 6722 1542 F7        		.byte	-9
 6723 1543 F7        		.byte	-9
 6724 1544 F6        		.byte	-10
 6725 1545 F6        		.byte	-10
 6726 1546 F6        		.byte	-10
 6727 1547 F6        		.byte	-10
 6728 1548 F6        		.byte	-10
 6729 1549 F6        		.byte	-10
 6730 154a F7        		.byte	-9
 6731 154b F8        		.byte	-8
 6732 154c F9        		.byte	-7
 6733 154d FA        		.byte	-6
 6734 154e FB        		.byte	-5
 6735 154f FC        		.byte	-4
 6736 1550 FE        		.byte	-2
 6737 1551 00        		.byte	0
GAS LISTING /tmp/ccEQRkCa.s 			page 122


 6738 1552 01        		.byte	1
 6739 1553 03        		.byte	3
 6740 1554 04        		.byte	4
 6741 1555 06        		.byte	6
 6742 1556 07        		.byte	7
 6743 1557 08        		.byte	8
 6744 1558 09        		.byte	9
 6745 1559 0A        		.byte	10
 6746 155a 0B        		.byte	11
 6747 155b 0B        		.byte	11
 6748 155c 0C        		.byte	12
 6749 155d 0C        		.byte	12
 6750 155e 0D        		.byte	13
 6751 155f 0E        		.byte	14
 6752 1560 0F        		.byte	15
 6753 1561 10        		.byte	16
 6754 1562 10        		.byte	16
 6755 1563 11        		.byte	17
 6756 1564 12        		.byte	18
 6757 1565 0E        		.byte	14
 6758 1566 0E        		.byte	14
 6759 1567 0F        		.byte	15
 6760 1568 0D        		.byte	13
 6761 1569 0B        		.byte	11
 6762 156a 08        		.byte	8
 6763 156b 08        		.byte	8
 6764 156c 04        		.byte	4
 6765 156d 02        		.byte	2
 6766 156e FF        		.byte	-1
 6767 156f FE        		.byte	-2
 6768 1570 FC        		.byte	-4
 6769 1571 F9        		.byte	-7
 6770 1572 F7        		.byte	-9
 6771 1573 F5        		.byte	-11
 6772 1574 F5        		.byte	-11
 6773 1575 F4        		.byte	-12
 6774 1576 F2        		.byte	-14
 6775 1577 F3        		.byte	-13
 6776 1578 F3        		.byte	-13
 6777 1579 F2        		.byte	-14
 6778 157a F1        		.byte	-15
 6779 157b F2        		.byte	-14
 6780 157c F4        		.byte	-12
 6781 157d F5        		.byte	-11
 6782 157e F6        		.byte	-10
 6783 157f F6        		.byte	-10
 6784 1580 F8        		.byte	-8
 6785 1581 F8        		.byte	-8
 6786 1582 F9        		.byte	-7
 6787 1583 FA        		.byte	-6
 6788 1584 FC        		.byte	-4
 6789 1585 FE        		.byte	-2
 6790 1586 FE        		.byte	-2
 6791 1587 FE        		.byte	-2
 6792 1588 FF        		.byte	-1
 6793 1589 00        		.byte	0
 6794 158a 00        		.byte	0
GAS LISTING /tmp/ccEQRkCa.s 			page 123


 6795 158b 01        		.byte	1
 6796 158c 02        		.byte	2
 6797 158d 03        		.byte	3
 6798 158e 03        		.byte	3
 6799 158f 02        		.byte	2
 6800 1590 02        		.byte	2
 6801 1591 03        		.byte	3
 6802 1592 03        		.byte	3
 6803 1593 03        		.byte	3
 6804 1594 03        		.byte	3
 6805 1595 03        		.byte	3
 6806 1596 02        		.byte	2
 6807 1597 02        		.byte	2
 6808 1598 01        		.byte	1
 6809 1599 01        		.byte	1
 6810 159a 02        		.byte	2
 6811 159b 01        		.byte	1
 6812 159c 00        		.byte	0
 6813 159d 00        		.byte	0
 6814 159e FF        		.byte	-1
 6815 159f FF        		.byte	-1
 6816 15a0 FF        		.byte	-1
 6817 15a1 FF        		.byte	-1
 6818 15a2 FE        		.byte	-2
 6819 15a3 FE        		.byte	-2
 6820 15a4 FC        		.byte	-4
 6821 15a5 FB        		.byte	-5
 6822 15a6 FB        		.byte	-5
 6823 15a7 FA        		.byte	-6
 6824 15a8 F9        		.byte	-7
 6825 15a9 F8        		.byte	-8
 6826 15aa F7        		.byte	-9
 6827 15ab F6        		.byte	-10
 6828 15ac F5        		.byte	-11
 6829 15ad F4        		.byte	-12
 6830 15ae F4        		.byte	-12
 6831 15af F4        		.byte	-12
 6832 15b0 F4        		.byte	-12
 6833 15b1 F4        		.byte	-12
 6834 15b2 F4        		.byte	-12
 6835 15b3 F5        		.byte	-11
 6836 15b4 F6        		.byte	-10
 6837 15b5 F8        		.byte	-8
 6838 15b6 F9        		.byte	-7
 6839 15b7 FB        		.byte	-5
 6840 15b8 FC        		.byte	-4
 6841 15b9 FE        		.byte	-2
 6842 15ba 00        		.byte	0
 6843 15bb 02        		.byte	2
 6844 15bc 04        		.byte	4
 6845 15bd 06        		.byte	6
 6846 15be 07        		.byte	7
 6847 15bf 09        		.byte	9
 6848 15c0 0A        		.byte	10
 6849 15c1 0B        		.byte	11
 6850 15c2 0D        		.byte	13
 6851 15c3 0E        		.byte	14
GAS LISTING /tmp/ccEQRkCa.s 			page 124


 6852 15c4 0F        		.byte	15
 6853 15c5 10        		.byte	16
 6854 15c6 11        		.byte	17
 6855 15c7 12        		.byte	18
 6856 15c8 14        		.byte	20
 6857 15c9 15        		.byte	21
 6858 15ca 17        		.byte	23
 6859 15cb 16        		.byte	22
 6860 15cc 12        		.byte	18
 6861 15cd 14        		.byte	20
 6862 15ce 13        		.byte	19
 6863 15cf 11        		.byte	17
 6864 15d0 0E        		.byte	14
 6865 15d1 0B        		.byte	11
 6866 15d2 0B        		.byte	11
 6867 15d3 05        		.byte	5
 6868 15d4 02        		.byte	2
 6869 15d5 FE        		.byte	-2
 6870 15d6 FE        		.byte	-2
 6871 15d7 FB        		.byte	-5
 6872 15d8 F8        		.byte	-8
 6873 15d9 F5        		.byte	-11
 6874 15da F3        		.byte	-13
 6875 15db F3        		.byte	-13
 6876 15dc F0        		.byte	-16
 6877 15dd EF        		.byte	-17
 6878 15de F0        		.byte	-16
 6879 15df F0        		.byte	-16
 6880 15e0 EF        		.byte	-17
 6881 15e1 EE        		.byte	-18
 6882 15e2 F0        		.byte	-16
 6883 15e3 F1        		.byte	-15
 6884 15e4 F3        		.byte	-13
 6885 15e5 F3        		.byte	-13
 6886 15e6 F5        		.byte	-11
 6887 15e7 F9        		.byte	-7
 6888 15e8 F8        		.byte	-8
 6889 15e9 F8        		.byte	-8
 6890 15ea F9        		.byte	-7
 6891 15eb FD        		.byte	-3
 6892 15ec 01        		.byte	1
 6893 15ed 03        		.byte	3
 6894 15ee 03        		.byte	3
 6895 15ef 05        		.byte	5
 6896 15f0 05        		.byte	5
 6897 15f1 02        		.byte	2
 6898 15f2 05        		.byte	5
 6899 15f3 08        		.byte	8
 6900 15f4 0B        		.byte	11
 6901 15f5 0A        		.byte	10
 6902 15f6 05        		.byte	5
 6903 15f7 02        		.byte	2
 6904 15f8 03        		.byte	3
 6905 15f9 02        		.byte	2
 6906 15fa 01        		.byte	1
 6907 15fb 05        		.byte	5
 6908 15fc 04        		.byte	4
GAS LISTING /tmp/ccEQRkCa.s 			page 125


 6909 15fd FF        		.byte	-1
 6910 15fe FB        		.byte	-5
 6911 15ff F9        		.byte	-7
 6912 1600 FD        		.byte	-3
 6913 1601 01        		.byte	1
 6914 1602 FF        		.byte	-1
 6915 1603 FF        		.byte	-1
 6916 1604 FF        		.byte	-1
 6917 1605 F9        		.byte	-7
 6918 1606 F8        		.byte	-8
 6919 1607 FB        		.byte	-5
 6920 1608 F9        		.byte	-7
 6921 1609 F2        		.byte	-14
 6922 160a E6        		.byte	-26
 6923 160b DF        		.byte	-33
 6924 160c E0        		.byte	-32
 6925 160d DF        		.byte	-33
 6926 160e DE        		.byte	-34
 6927 160f E2        		.byte	-30
 6928 1610 E1        		.byte	-31
 6929 1611 E0        		.byte	-32
 6930 1612 E3        		.byte	-29
 6931 1613 EA        		.byte	-22
 6932 1614 F4        		.byte	-12
 6933 1615 F9        		.byte	-7
 6934 1616 F6        		.byte	-10
 6935 1617 F8        		.byte	-8
 6936 1618 FA        		.byte	-6
 6937 1619 FC        		.byte	-4
 6938 161a 02        		.byte	2
 6939 161b 07        		.byte	7
 6940 161c 08        		.byte	8
 6941 161d 07        		.byte	7
 6942 161e 08        		.byte	8
 6943 161f 10        		.byte	16
 6944 1620 1A        		.byte	26
 6945 1621 1E        		.byte	30
 6946 1622 20        		.byte	32
 6947 1623 23        		.byte	35
 6948 1624 24        		.byte	36
 6949 1625 22        		.byte	34
 6950 1626 23        		.byte	35
 6951 1627 2F        		.byte	47
 6952 1628 38        		.byte	56
 6953 1629 39        		.byte	57
 6954 162a 3D        		.byte	61
 6955 162b 40        		.byte	64
 6956 162c 47        		.byte	71
 6957 162d 45        		.byte	69
 6958 162e 0A        		.byte	10
 6959 162f EA        		.byte	-22
 6960 1630 FC        		.byte	-4
 6961 1631 E5        		.byte	-27
 6962 1632 E0        		.byte	-32
 6963 1633 E9        		.byte	-23
 6964 1634 E5        		.byte	-27
 6965 1635 E7        		.byte	-25
GAS LISTING /tmp/ccEQRkCa.s 			page 126


 6966 1636 E6        		.byte	-26
 6967 1637 F4        		.byte	-12
 6968 1638 1C        		.byte	28
 6969 1639 21        		.byte	33
 6970 163a 02        		.byte	2
 6971 163b 06        		.byte	6
 6972 163c FB        		.byte	-5
 6973 163d E6        		.byte	-26
 6974 163e EB        		.byte	-21
 6975 163f E8        		.byte	-24
 6976 1640 E6        		.byte	-26
 6977 1641 DD        		.byte	-35
 6978 1642 CB        		.byte	-53
 6979 1643 DF        		.byte	-33
 6980 1644 FE        		.byte	-2
 6981 1645 FF        		.byte	-1
 6982 1646 09        		.byte	9
 6983 1647 13        		.byte	19
 6984 1648 02        		.byte	2
 6985 1649 FF        		.byte	-1
 6986 164a 00        		.byte	0
 6987 164b FF        		.byte	-1
 6988 164c 02        		.byte	2
 6989 164d EA        		.byte	-22
 6990 164e DD        		.byte	-35
 6991 164f E6        		.byte	-26
 6992 1650 E8        		.byte	-24
 6993 1651 F2        		.byte	-14
 6994 1652 08        		.byte	8
 6995 1653 09        		.byte	9
 6996 1654 05        		.byte	5
 6997 1655 07        		.byte	7
 6998 1656 06        		.byte	6
 6999 1657 12        		.byte	18
 7000 1658 0D        		.byte	13
 7001 1659 FD        		.byte	-3
 7002 165a F8        		.byte	-8
 7003 165b EB        		.byte	-21
 7004 165c E4        		.byte	-28
 7005 165d F3        		.byte	-13
 7006 165e FB        		.byte	-5
 7007 165f FC        		.byte	-4
 7008 1660 00        		.byte	0
 7009 1661 FE        		.byte	-2
 7010 1662 07        		.byte	7
 7011 1663 10        		.byte	16
 7012 1664 0D        		.byte	13
 7013 1665 0F        		.byte	15
 7014 1666 03        		.byte	3
 7015 1667 F1        		.byte	-15
 7016 1668 F1        		.byte	-15
 7017 1669 F4        		.byte	-12
 7018 166a F3        		.byte	-13
 7019 166b F4        		.byte	-12
 7020 166c E1        		.byte	-31
 7021 166d D1        		.byte	-47
 7022 166e E3        		.byte	-29
GAS LISTING /tmp/ccEQRkCa.s 			page 127


 7023 166f F2        		.byte	-14
 7024 1670 F8        		.byte	-8
 7025 1671 FA        		.byte	-6
 7026 1672 EE        		.byte	-18
 7027 1673 E9        		.byte	-23
 7028 1674 EC        		.byte	-20
 7029 1675 F1        		.byte	-15
 7030 1676 F5        		.byte	-11
 7031 1677 EB        		.byte	-21
 7032 1678 E1        		.byte	-31
 7033 1679 E9        		.byte	-23
 7034 167a F2        		.byte	-14
 7035 167b FD        		.byte	-3
 7036 167c 08        		.byte	8
 7037 167d 07        		.byte	7
 7038 167e 09        		.byte	9
 7039 167f 0D        		.byte	13
 7040 1680 12        		.byte	18
 7041 1681 1B        		.byte	27
 7042 1682 1A        		.byte	26
 7043 1683 15        		.byte	21
 7044 1684 17        		.byte	23
 7045 1685 16        		.byte	22
 7046 1686 1C        		.byte	28
 7047 1687 24        		.byte	36
 7048 1688 21        		.byte	33
 7049 1689 26        		.byte	38
 7050 168a 32        		.byte	50
 7051 168b 40        		.byte	64
 7052 168c 4C        		.byte	76
 7053 168d 4E        		.byte	78
 7054 168e 53        		.byte	83
 7055 168f 40        		.byte	64
 7056 1690 DE        		.byte	-34
 7057 1691 C6        		.byte	-58
 7058 1692 F3        		.byte	-13
 7059 1693 D2        		.byte	-46
 7060 1694 E0        		.byte	-32
 7061 1695 FA        		.byte	-6
 7062 1696 E8        		.byte	-24
 7063 1697 F6        		.byte	-10
 7064 1698 12        		.byte	18
 7065 1699 31        		.byte	49
 7066 169a 36        		.byte	54
 7067 169b 0C        		.byte	12
 7068 169c EC        		.byte	-20
 7069 169d E8        		.byte	-24
 7070 169e CB        		.byte	-53
 7071 169f D6        		.byte	-42
 7072 16a0 E9        		.byte	-23
 7073 16a1 D3        		.byte	-45
 7074 16a2 D9        		.byte	-39
 7075 16a3 ED        		.byte	-19
 7076 16a4 06        		.byte	6
 7077 16a5 24        		.byte	36
 7078 16a6 26        		.byte	38
 7079 16a7 19        		.byte	25
GAS LISTING /tmp/ccEQRkCa.s 			page 128


 7080 16a8 07        		.byte	7
 7081 16a9 EA        		.byte	-22
 7082 16aa E8        		.byte	-24
 7083 16ab EF        		.byte	-17
 7084 16ac DF        		.byte	-33
 7085 16ad DB        		.byte	-37
 7086 16ae DD        		.byte	-35
 7087 16af E5        		.byte	-27
 7088 16b0 03        		.byte	3
 7089 16b1 18        		.byte	24
 7090 16b2 21        		.byte	33
 7091 16b3 1D        		.byte	29
 7092 16b4 09        		.byte	9
 7093 16b5 00        		.byte	0
 7094 16b6 FE        		.byte	-2
 7095 16b7 F5        		.byte	-11
 7096 16b8 ED        		.byte	-19
 7097 16b9 E4        		.byte	-28
 7098 16ba DC        		.byte	-36
 7099 16bb E9        		.byte	-23
 7100 16bc FD        		.byte	-3
 7101 16bd 0F        		.byte	15
 7102 16be 1B        		.byte	27
 7103 16bf 15        		.byte	21
 7104 16c0 0F        		.byte	15
 7105 16c1 0B        		.byte	11
 7106 16c2 05        		.byte	5
 7107 16c3 01        		.byte	1
 7108 16c4 F7        		.byte	-9
 7109 16c5 E7        		.byte	-25
 7110 16c6 E4        		.byte	-28
 7111 16c7 EA        		.byte	-22
 7112 16c8 F8        		.byte	-8
 7113 16c9 09        		.byte	9
 7114 16ca 0F        		.byte	15
 7115 16cb 10        		.byte	16
 7116 16cc 0E        		.byte	14
 7117 16cd 0B        		.byte	11
 7118 16ce 09        		.byte	9
 7119 16cf F0        		.byte	-16
 7120 16d0 CB        		.byte	-53
 7121 16d1 CC        		.byte	-52
 7122 16d2 D3        		.byte	-45
 7123 16d3 D8        		.byte	-40
 7124 16d4 EF        		.byte	-17
 7125 16d5 F8        		.byte	-8
 7126 16d6 FA        		.byte	-6
 7127 16d7 FF        		.byte	-1
 7128 16d8 FF        		.byte	-1
 7129 16d9 00        		.byte	0
 7130 16da F6        		.byte	-10
 7131 16db E8        		.byte	-24
 7132 16dc E8        		.byte	-24
 7133 16dd E6        		.byte	-26
 7134 16de EB        		.byte	-21
 7135 16df FC        		.byte	-4
 7136 16e0 04        		.byte	4
GAS LISTING /tmp/ccEQRkCa.s 			page 129


 7137 16e1 0C        		.byte	12
 7138 16e2 13        		.byte	19
 7139 16e3 17        		.byte	23
 7140 16e4 21        		.byte	33
 7141 16e5 1E        		.byte	30
 7142 16e6 1A        		.byte	26
 7143 16e7 1B        		.byte	27
 7144 16e8 15        		.byte	21
 7145 16e9 1A        		.byte	26
 7146 16ea 1D        		.byte	29
 7147 16eb 1D        		.byte	29
 7148 16ec 29        		.byte	41
 7149 16ed 38        		.byte	56
 7150 16ee 43        		.byte	67
 7151 16ef 4D        		.byte	77
 7152 16f0 51        		.byte	81
 7153 16f1 5B        		.byte	91
 7154 16f2 26        		.byte	38
 7155 16f3 B7        		.byte	-73
 7156 16f4 D1        		.byte	-47
 7157 16f5 E7        		.byte	-25
 7158 16f6 C4        		.byte	-60
 7159 16f7 FE        		.byte	-2
 7160 16f8 FF        		.byte	-1
 7161 16f9 F0        		.byte	-16
 7162 16fa 08        		.byte	8
 7163 16fb 28        		.byte	40
 7164 16fc 3C        		.byte	60
 7165 16fd 27        		.byte	39
 7166 16fe F5        		.byte	-11
 7167 16ff DF        		.byte	-33
 7168 1700 CB        		.byte	-53
 7169 1701 BC        		.byte	-68
 7170 1702 E7        		.byte	-25
 7171 1703 E5        		.byte	-27
 7172 1704 DE        		.byte	-34
 7173 1705 F4        		.byte	-12
 7174 1706 07        		.byte	7
 7175 1707 1F        		.byte	31
 7176 1708 2E        		.byte	46
 7177 1709 21        		.byte	33
 7178 170a 07        		.byte	7
 7179 170b E5        		.byte	-27
 7180 170c D4        		.byte	-44
 7181 170d E0        		.byte	-32
 7182 170e DF        		.byte	-33
 7183 170f DF        		.byte	-33
 7184 1710 EA        		.byte	-22
 7185 1711 EF        		.byte	-17
 7186 1712 05        		.byte	5
 7187 1713 20        		.byte	32
 7188 1714 28        		.byte	40
 7189 1715 1F        		.byte	31
 7190 1716 07        		.byte	7
 7191 1717 F1        		.byte	-15
 7192 1718 EA        		.byte	-22
 7193 1719 E6        		.byte	-26
GAS LISTING /tmp/ccEQRkCa.s 			page 130


 7194 171a E7        		.byte	-25
 7195 171b E9        		.byte	-23
 7196 171c E7        		.byte	-25
 7197 171d F3        		.byte	-13
 7198 171e 09        		.byte	9
 7199 171f 1B        		.byte	27
 7200 1720 23        		.byte	35
 7201 1721 1B        		.byte	27
 7202 1722 09        		.byte	9
 7203 1723 FB        		.byte	-5
 7204 1724 F3        		.byte	-13
 7205 1725 F0        		.byte	-16
 7206 1726 EE        		.byte	-18
 7207 1727 EA        		.byte	-22
 7208 1728 EB        		.byte	-21
 7209 1729 F7        		.byte	-9
 7210 172a 07        		.byte	7
 7211 172b 17        		.byte	23
 7212 172c 1B        		.byte	27
 7213 172d 13        		.byte	19
 7214 172e FF        		.byte	-1
 7215 172f E3        		.byte	-29
 7216 1730 CF        		.byte	-49
 7217 1731 CB        		.byte	-53
 7218 1732 D5        		.byte	-43
 7219 1733 DF        		.byte	-33
 7220 1734 E7        		.byte	-25
 7221 1735 F6        		.byte	-10
 7222 1736 02        		.byte	2
 7223 1737 08        		.byte	8
 7224 1738 08        		.byte	8
 7225 1739 FD        		.byte	-3
 7226 173a ED        		.byte	-19
 7227 173b E2        		.byte	-30
 7228 173c E2        		.byte	-30
 7229 173d EA        		.byte	-22
 7230 173e F4        		.byte	-12
 7231 173f FF        		.byte	-1
 7232 1740 09        		.byte	9
 7233 1741 12        		.byte	18
 7234 1742 1C        		.byte	28
 7235 1743 20        		.byte	32
 7236 1744 19        		.byte	25
 7237 1745 14        		.byte	20
 7238 1746 11        		.byte	17
 7239 1747 0C        		.byte	12
 7240 1748 15        		.byte	21
 7241 1749 20        		.byte	32
 7242 174a 22        		.byte	34
 7243 174b 30        		.byte	48
 7244 174c 46        		.byte	70
 7245 174d 50        		.byte	80
 7246 174e 52        		.byte	82
 7247 174f 5F        		.byte	95
 7248 1750 5E        		.byte	94
 7249 1751 EA        		.byte	-22
 7250 1752 9C        		.byte	-100
GAS LISTING /tmp/ccEQRkCa.s 			page 131


 7251 1753 DE        		.byte	-34
 7252 1754 CC        		.byte	-52
 7253 1755 D6        		.byte	-42
 7254 1756 14        		.byte	20
 7255 1757 00        		.byte	0
 7256 1758 01        		.byte	1
 7257 1759 1E        		.byte	30
 7258 175a 3F        		.byte	63
 7259 175b 3E        		.byte	62
 7260 175c 0B        		.byte	11
 7261 175d DA        		.byte	-38
 7262 175e C8        		.byte	-56
 7263 175f AD        		.byte	-83
 7264 1760 C9        		.byte	-55
 7265 1761 F3        		.byte	-13
 7266 1762 E7        		.byte	-25
 7267 1763 F3        		.byte	-13
 7268 1764 09        		.byte	9
 7269 1765 1F        		.byte	31
 7270 1766 30        		.byte	48
 7271 1767 2B        		.byte	43
 7272 1768 0E        		.byte	14
 7273 1769 E6        		.byte	-26
 7274 176a C5        		.byte	-59
 7275 176b CD        		.byte	-51
 7276 176c DE        		.byte	-34
 7277 176d E2        		.byte	-30
 7278 176e F0        		.byte	-16
 7279 176f F9        		.byte	-7
 7280 1770 07        		.byte	7
 7281 1771 20        		.byte	32
 7282 1772 2D        		.byte	45
 7283 1773 23        		.byte	35
 7284 1774 07        		.byte	7
 7285 1775 E7        		.byte	-25
 7286 1776 D9        		.byte	-39
 7287 1777 DB        		.byte	-37
 7288 1778 E2        		.byte	-30
 7289 1779 ED        		.byte	-19
 7290 177a F1        		.byte	-15
 7291 177b FA        		.byte	-6
 7292 177c 0E        		.byte	14
 7293 177d 21        		.byte	33
 7294 177e 26        		.byte	38
 7295 177f 1B        		.byte	27
 7296 1780 03        		.byte	3
 7297 1781 ED        		.byte	-19
 7298 1782 E4        		.byte	-28
 7299 1783 E6        		.byte	-26
 7300 1784 ED        		.byte	-19
 7301 1785 F0        		.byte	-16
 7302 1786 F5        		.byte	-11
 7303 1787 01        		.byte	1
 7304 1788 10        		.byte	16
 7305 1789 1E        		.byte	30
 7306 178a 1D        		.byte	29
 7307 178b 0C        		.byte	12
GAS LISTING /tmp/ccEQRkCa.s 			page 132


 7308 178c EB        		.byte	-21
 7309 178d C9        		.byte	-55
 7310 178e CA        		.byte	-54
 7311 178f D6        		.byte	-42
 7312 1790 D8        		.byte	-40
 7313 1791 E9        		.byte	-23
 7314 1792 F3        		.byte	-13
 7315 1793 FA        		.byte	-6
 7316 1794 0A        		.byte	10
 7317 1795 0E        		.byte	14
 7318 1796 03        		.byte	3
 7319 1797 F0        		.byte	-16
 7320 1798 E3        		.byte	-29
 7321 1799 E2        		.byte	-30
 7322 179a E7        		.byte	-25
 7323 179b F2        		.byte	-14
 7324 179c FC        		.byte	-4
 7325 179d 02        		.byte	2
 7326 179e 0B        		.byte	11
 7327 179f 13        		.byte	19
 7328 17a0 17        		.byte	23
 7329 17a1 17        		.byte	23
 7330 17a2 10        		.byte	16
 7331 17a3 0B        		.byte	11
 7332 17a4 0C        		.byte	12
 7333 17a5 15        		.byte	21
 7334 17a6 21        		.byte	33
 7335 17a7 23        		.byte	35
 7336 17a8 2D        		.byte	45
 7337 17a9 38        		.byte	56
 7338 17aa 41        		.byte	65
 7339 17ab 57        		.byte	87
 7340 17ac 56        		.byte	86
 7341 17ad 60        		.byte	96
 7342 17ae 42        		.byte	66
 7343 17af A1        		.byte	-95
 7344 17b0 A8        		.byte	-88
 7345 17b1 F0        		.byte	-16
 7346 17b2 C1        		.byte	-63
 7347 17b3 07        		.byte	7
 7348 17b4 16        		.byte	22
 7349 17b5 F8        		.byte	-8
 7350 17b6 10        		.byte	16
 7351 17b7 2E        		.byte	46
 7352 17b8 48        		.byte	72
 7353 17b9 2A        		.byte	42
 7354 17ba E0        		.byte	-32
 7355 17bb C2        		.byte	-62
 7356 17bc B8        		.byte	-72
 7357 17bd AF        		.byte	-81
 7358 17be EF        		.byte	-17
 7359 17bf F6        		.byte	-10
 7360 17c0 EC        		.byte	-20
 7361 17c1 02        		.byte	2
 7362 17c2 17        		.byte	23
 7363 17c3 2F        		.byte	47
 7364 17c4 31        		.byte	49
GAS LISTING /tmp/ccEQRkCa.s 			page 133


 7365 17c5 15        		.byte	21
 7366 17c6 ED        		.byte	-19
 7367 17c7 C7        		.byte	-57
 7368 17c8 BF        		.byte	-65
 7369 17c9 DF        		.byte	-33
 7370 17ca E8        		.byte	-24
 7371 17cb EE        		.byte	-18
 7372 17cc FB        		.byte	-5
 7373 17cd 05        		.byte	5
 7374 17ce 1C        		.byte	28
 7375 17cf 2E        		.byte	46
 7376 17d0 27        		.byte	39
 7377 17d1 09        		.byte	9
 7378 17d2 E6        		.byte	-26
 7379 17d3 D3        		.byte	-45
 7380 17d4 DA        		.byte	-38
 7381 17d5 E3        		.byte	-29
 7382 17d6 EE        		.byte	-18
 7383 17d7 F5        		.byte	-11
 7384 17d8 F9        		.byte	-7
 7385 17d9 0C        		.byte	12
 7386 17da 21        		.byte	33
 7387 17db 28        		.byte	40
 7388 17dc 1B        		.byte	27
 7389 17dd 00        		.byte	0
 7390 17de E8        		.byte	-24
 7391 17df E1        		.byte	-31
 7392 17e0 E5        		.byte	-27
 7393 17e1 EF        		.byte	-17
 7394 17e2 F4        		.byte	-12
 7395 17e3 F6        		.byte	-10
 7396 17e4 01        		.byte	1
 7397 17e5 13        		.byte	19
 7398 17e6 1A        		.byte	26
 7399 17e7 0E        		.byte	14
 7400 17e8 FD        		.byte	-3
 7401 17e9 E2        		.byte	-30
 7402 17ea C9        		.byte	-55
 7403 17eb CF        		.byte	-49
 7404 17ec DC        		.byte	-36
 7405 17ed DE        		.byte	-34
 7406 17ee EA        		.byte	-22
 7407 17ef F5        		.byte	-11
 7408 17f0 FD        		.byte	-3
 7409 17f1 05        		.byte	5
 7410 17f2 03        		.byte	3
 7411 17f3 F8        		.byte	-8
 7412 17f4 E9        		.byte	-23
 7413 17f5 E3        		.byte	-29
 7414 17f6 EB        		.byte	-21
 7415 17f7 F4        		.byte	-12
 7416 17f8 FF        		.byte	-1
 7417 17f9 06        		.byte	6
 7418 17fa 0B        		.byte	11
 7419 17fb 19        		.byte	25
 7420 17fc 1F        		.byte	31
 7421 17fd 1F        		.byte	31
GAS LISTING /tmp/ccEQRkCa.s 			page 134


 7422 17fe 1C        		.byte	28
 7423 17ff 14        		.byte	20
 7424 1800 14        		.byte	20
 7425 1801 1F        		.byte	31
 7426 1802 2A        		.byte	42
 7427 1803 36        		.byte	54
 7428 1804 44        		.byte	68
 7429 1805 51        		.byte	81
 7430 1806 50        		.byte	80
 7431 1807 65        		.byte	101
 7432 1808 64        		.byte	100
 7433 1809 C6        		.byte	-58
 7434 180a 9C        		.byte	-100
 7435 180b EB        		.byte	-21
 7436 180c C1        		.byte	-63
 7437 180d F2        		.byte	-14
 7438 180e 15        		.byte	21
 7439 180f FC        		.byte	-4
 7440 1810 0A        		.byte	10
 7441 1811 28        		.byte	40
 7442 1812 4B        		.byte	75
 7443 1813 39        		.byte	57
 7444 1814 F1        		.byte	-15
 7445 1815 CB        		.byte	-53
 7446 1816 BD        		.byte	-67
 7447 1817 AD        		.byte	-83
 7448 1818 E1        		.byte	-31
 7449 1819 F0        		.byte	-16
 7450 181a E6        		.byte	-26
 7451 181b F9        		.byte	-7
 7452 181c 15        		.byte	21
 7453 181d 31        		.byte	49
 7454 181e 35        		.byte	53
 7455 181f 1B        		.byte	27
 7456 1820 F5        		.byte	-11
 7457 1821 CE        		.byte	-50
 7458 1822 C2        		.byte	-62
 7459 1823 DC        		.byte	-36
 7460 1824 E3        		.byte	-29
 7461 1825 E7        		.byte	-25
 7462 1826 F2        		.byte	-14
 7463 1827 04        		.byte	4
 7464 1828 1D        		.byte	29
 7465 1829 31        		.byte	49
 7466 182a 2B        		.byte	43
 7467 182b 0D        		.byte	13
 7468 182c EB        		.byte	-21
 7469 182d D9        		.byte	-39
 7470 182e DE        		.byte	-34
 7471 182f E3        		.byte	-29
 7472 1830 E8        		.byte	-24
 7473 1831 ED        		.byte	-19
 7474 1832 F6        		.byte	-10
 7475 1833 0C        		.byte	12
 7476 1834 25        		.byte	37
 7477 1835 2B        		.byte	43
 7478 1836 1B        		.byte	27
GAS LISTING /tmp/ccEQRkCa.s 			page 135


 7479 1837 01        		.byte	1
 7480 1838 EC        		.byte	-20
 7481 1839 E6        		.byte	-26
 7482 183a E7        		.byte	-25
 7483 183b EA        		.byte	-22
 7484 183c EB        		.byte	-21
 7485 183d EF        		.byte	-17
 7486 183e 00        		.byte	0
 7487 183f 11        		.byte	17
 7488 1840 14        		.byte	20
 7489 1841 0E        		.byte	14
 7490 1842 F5        		.byte	-11
 7491 1843 CF        		.byte	-49
 7492 1844 CE        		.byte	-50
 7493 1845 DA        		.byte	-38
 7494 1846 DC        		.byte	-36
 7495 1847 E5        		.byte	-27
 7496 1848 EB        		.byte	-21
 7497 1849 F5        		.byte	-11
 7498 184a 04        		.byte	4
 7499 184b 09        		.byte	9
 7500 184c 02        		.byte	2
 7501 184d F0        		.byte	-16
 7502 184e E6        		.byte	-26
 7503 184f EC        		.byte	-20
 7504 1850 F5        		.byte	-11
 7505 1851 FD        		.byte	-3
 7506 1852 05        		.byte	5
 7507 1853 0D        		.byte	13
 7508 1854 19        		.byte	25
 7509 1855 24        		.byte	36
 7510 1856 27        		.byte	39
 7511 1857 22        		.byte	34
 7512 1858 19        		.byte	25
 7513 1859 1B        		.byte	27
 7514 185a 2A        		.byte	42
 7515 185b 36        		.byte	54
 7516 185c 3E        		.byte	62
 7517 185d 4D        		.byte	77
 7518 185e 52        		.byte	82
 7519 185f 70        		.byte	112
 7520 1860 4D        		.byte	77
 7521 1861 9E        		.byte	-98
 7522 1862 BD        		.byte	-67
 7523 1863 F4        		.byte	-12
 7524 1864 BF        		.byte	-65
 7525 1865 0A        		.byte	10
 7526 1866 05        		.byte	5
 7527 1867 F4        		.byte	-12
 7528 1868 11        		.byte	17
 7529 1869 38        		.byte	56
 7530 186a 52        		.byte	82
 7531 186b 2A        		.byte	42
 7532 186c DD        		.byte	-35
 7533 186d CE        		.byte	-50
 7534 186e BE        		.byte	-66
 7535 186f BF        		.byte	-65
GAS LISTING /tmp/ccEQRkCa.s 			page 136


 7536 1870 F3        		.byte	-13
 7537 1871 E1        		.byte	-31
 7538 1872 E1        		.byte	-31
 7539 1873 FD        		.byte	-3
 7540 1874 21        		.byte	33
 7541 1875 39        		.byte	57
 7542 1876 2F        		.byte	47
 7543 1877 0B        		.byte	11
 7544 1878 E8        		.byte	-24
 7545 1879 CA        		.byte	-54
 7546 187a D2        		.byte	-46
 7547 187b E5        		.byte	-27
 7548 187c DD        		.byte	-35
 7549 187d E0        		.byte	-32
 7550 187e EF        		.byte	-17
 7551 187f 0C        		.byte	12
 7552 1880 29        		.byte	41
 7553 1881 33        		.byte	51
 7554 1882 1E        		.byte	30
 7555 1883 FE        		.byte	-2
 7556 1884 E4        		.byte	-28
 7557 1885 E2        		.byte	-30
 7558 1886 E7        		.byte	-25
 7559 1887 E3        		.byte	-29
 7560 1888 E2        		.byte	-30
 7561 1889 E8        		.byte	-24
 7562 188a FC        		.byte	-4
 7563 188b 1A        		.byte	26
 7564 188c 2C        		.byte	44
 7565 188d 24        		.byte	36
 7566 188e 0E        		.byte	14
 7567 188f F8        		.byte	-8
 7568 1890 EF        		.byte	-17
 7569 1891 ED        		.byte	-19
 7570 1892 EA        		.byte	-22
 7571 1893 E5        		.byte	-27
 7572 1894 E4        		.byte	-28
 7573 1895 F2        		.byte	-14
 7574 1896 0A        		.byte	10
 7575 1897 13        		.byte	19
 7576 1898 13        		.byte	19
 7577 1899 00        		.byte	0
 7578 189a DD        		.byte	-35
 7579 189b D5        		.byte	-43
 7580 189c DA        		.byte	-38
 7581 189d DD        		.byte	-35
 7582 189e E0        		.byte	-32
 7583 189f E1        		.byte	-31
 7584 18a0 ED        		.byte	-19
 7585 18a1 FE        		.byte	-2
 7586 18a2 08        		.byte	8
 7587 18a3 06        		.byte	6
 7588 18a4 F5        		.byte	-11
 7589 18a5 E9        		.byte	-23
 7590 18a6 ED        		.byte	-19
 7591 18a7 F3        		.byte	-13
 7592 18a8 FA        		.byte	-6
GAS LISTING /tmp/ccEQRkCa.s 			page 137


 7593 18a9 FF        		.byte	-1
 7594 18aa 06        		.byte	6
 7595 18ab 15        		.byte	21
 7596 18ac 21        		.byte	33
 7597 18ad 27        		.byte	39
 7598 18ae 25        		.byte	37
 7599 18af 1C        		.byte	28
 7600 18b0 1A        		.byte	26
 7601 18b1 26        		.byte	38
 7602 18b2 35        		.byte	53
 7603 18b3 3F        		.byte	63
 7604 18b4 4D        		.byte	77
 7605 18b5 52        		.byte	82
 7606 18b6 5D        		.byte	93
 7607 18b7 4D        		.byte	77
 7608 18b8 BB        		.byte	-69
 7609 18b9 AA        		.byte	-86
 7610 18ba F5        		.byte	-11
 7611 18bb CA        		.byte	-54
 7612 18bc F8        		.byte	-8
 7613 18bd 07        		.byte	7
 7614 18be F6        		.byte	-10
 7615 18bf 13        		.byte	19
 7616 18c0 35        		.byte	53
 7617 18c1 4B        		.byte	75
 7618 18c2 2A        		.byte	42
 7619 18c3 E3        		.byte	-29
 7620 18c4 CC        		.byte	-52
 7621 18c5 C7        		.byte	-57
 7622 18c6 C2        		.byte	-62
 7623 18c7 EA        		.byte	-22
 7624 18c8 E3        		.byte	-29
 7625 18c9 E2        		.byte	-30
 7626 18ca FF        		.byte	-1
 7627 18cb 24        		.byte	36
 7628 18cc 39        		.byte	57
 7629 18cd 2C        		.byte	44
 7630 18ce 07        		.byte	7
 7631 18cf E9        		.byte	-23
 7632 18d0 D1        		.byte	-47
 7633 18d1 D4        		.byte	-44
 7634 18d2 E2        		.byte	-30
 7635 18d3 DB        		.byte	-37
 7636 18d4 DD        		.byte	-35
 7637 18d5 F1        		.byte	-15
 7638 18d6 10        		.byte	16
 7639 18d7 2A        		.byte	42
 7640 18d8 2F        		.byte	47
 7641 18d9 19        		.byte	25
 7642 18da FB        		.byte	-5
 7643 18db E6        		.byte	-26
 7644 18dc E4        		.byte	-28
 7645 18dd E5        		.byte	-27
 7646 18de E0        		.byte	-32
 7647 18df DE        		.byte	-34
 7648 18e0 E9        		.byte	-23
 7649 18e1 00        		.byte	0
GAS LISTING /tmp/ccEQRkCa.s 			page 138


 7650 18e2 1C        		.byte	28
 7651 18e3 2A        		.byte	42
 7652 18e4 20        		.byte	32
 7653 18e5 0B        		.byte	11
 7654 18e6 F9        		.byte	-7
 7655 18e7 F0        		.byte	-16
 7656 18e8 EB        		.byte	-21
 7657 18e9 E9        		.byte	-23
 7658 18ea E3        		.byte	-29
 7659 18eb E4        		.byte	-28
 7660 18ec F6        		.byte	-10
 7661 18ed 0D        		.byte	13
 7662 18ee 1D        		.byte	29
 7663 18ef 1A        		.byte	26
 7664 18f0 FE        		.byte	-2
 7665 18f1 EC        		.byte	-20
 7666 18f2 E6        		.byte	-26
 7667 18f3 D3        		.byte	-45
 7668 18f4 CD        		.byte	-51
 7669 18f5 D3        		.byte	-45
 7670 18f6 DC        		.byte	-36
 7671 18f7 EF        		.byte	-17
 7672 18f8 02        		.byte	2
 7673 18f9 0A        		.byte	10
 7674 18fa 04        		.byte	4
 7675 18fb F8        		.byte	-8
 7676 18fc F2        		.byte	-14
 7677 18fd EC        		.byte	-20
 7678 18fe E8        		.byte	-24
 7679 18ff EC        		.byte	-20
 7680 1900 F5        		.byte	-11
 7681 1901 02        		.byte	2
 7682 1902 10        		.byte	16
 7683 1903 20        		.byte	32
 7684 1904 26        		.byte	38
 7685 1905 21        		.byte	33
 7686 1906 1F        		.byte	31
 7687 1907 1E        		.byte	30
 7688 1908 1E        		.byte	30
 7689 1909 25        		.byte	37
 7690 190a 2D        		.byte	45
 7691 190b 3B        		.byte	59
 7692 190c 4D        		.byte	77
 7693 190d 4E        		.byte	78
 7694 190e 69        		.byte	105
 7695 190f 4D        		.byte	77
 7696 1910 A7        		.byte	-89
 7697 1911 B5        		.byte	-75
 7698 1912 F5        		.byte	-11
 7699 1913 CB        		.byte	-53
 7700 1914 FD        		.byte	-3
 7701 1915 FE        		.byte	-2
 7702 1916 F3        		.byte	-13
 7703 1917 13        		.byte	19
 7704 1918 3B        		.byte	59
 7705 1919 50        		.byte	80
 7706 191a 25        		.byte	37
GAS LISTING /tmp/ccEQRkCa.s 			page 139


 7707 191b DA        		.byte	-38
 7708 191c CD        		.byte	-51
 7709 191d C5        		.byte	-59
 7710 191e CA        		.byte	-54
 7711 191f EC        		.byte	-20
 7712 1920 DE        		.byte	-34
 7713 1921 E0        		.byte	-32
 7714 1922 01        		.byte	1
 7715 1923 2B        		.byte	43
 7716 1924 3D        		.byte	61
 7717 1925 29        		.byte	41
 7718 1926 01        		.byte	1
 7719 1927 E6        		.byte	-26
 7720 1928 D2        		.byte	-46
 7721 1929 DB        		.byte	-37
 7722 192a E4        		.byte	-28
 7723 192b D9        		.byte	-39
 7724 192c DC        		.byte	-36
 7725 192d F4        		.byte	-12
 7726 192e 17        		.byte	23
 7727 192f 2F        		.byte	47
 7728 1930 2D        		.byte	45
 7729 1931 12        		.byte	18
 7730 1932 F6        		.byte	-10
 7731 1933 E6        		.byte	-26
 7732 1934 E7        		.byte	-25
 7733 1935 E6        		.byte	-26
 7734 1936 DD        		.byte	-35
 7735 1937 DB        		.byte	-37
 7736 1938 EB        		.byte	-21
 7737 1939 07        		.byte	7
 7738 193a 22        		.byte	34
 7739 193b 29        		.byte	41
 7740 193c 19        		.byte	25
 7741 193d 04        		.byte	4
 7742 193e F7        		.byte	-9
 7743 193f F3        		.byte	-13
 7744 1940 EC        		.byte	-20
 7745 1941 DE        		.byte	-34
 7746 1942 DD        		.byte	-35
 7747 1943 E9        		.byte	-23
 7748 1944 FC        		.byte	-4
 7749 1945 14        		.byte	20
 7750 1946 1E        		.byte	30
 7751 1947 16        		.byte	22
 7752 1948 04        		.byte	4
 7753 1949 F4        		.byte	-12
 7754 194a E7        		.byte	-25
 7755 194b CE        		.byte	-50
 7756 194c C9        		.byte	-55
 7757 194d D3        		.byte	-45
 7758 194e DD        		.byte	-35
 7759 194f F4        		.byte	-12
 7760 1950 06        		.byte	6
 7761 1951 08        		.byte	8
 7762 1952 05        		.byte	5
 7763 1953 FB        		.byte	-5
GAS LISTING /tmp/ccEQRkCa.s 			page 140


 7764 1954 F2        		.byte	-14
 7765 1955 E8        		.byte	-24
 7766 1956 E3        		.byte	-29
 7767 1957 E7        		.byte	-25
 7768 1958 EF        		.byte	-17
 7769 1959 00        		.byte	0
 7770 195a 10        		.byte	16
 7771 195b 17        		.byte	23
 7772 195c 1F        		.byte	31
 7773 195d 22        		.byte	34
 7774 195e 1C        		.byte	28
 7775 195f 18        		.byte	24
 7776 1960 13        		.byte	19
 7777 1961 13        		.byte	19
 7778 1962 22        		.byte	34
 7779 1963 31        		.byte	49
 7780 1964 3D        		.byte	61
 7781 1965 4A        		.byte	74
 7782 1966 4F        		.byte	79
 7783 1967 5A        		.byte	90
 7784 1968 57        		.byte	87
 7785 1969 E1        		.byte	-31
 7786 196a 9D        		.byte	-99
 7787 196b DC        		.byte	-36
 7788 196c D5        		.byte	-43
 7789 196d E5        		.byte	-27
 7790 196e 06        		.byte	6
 7791 196f FA        		.byte	-6
 7792 1970 0E        		.byte	14
 7793 1971 31        		.byte	49
 7794 1972 49        		.byte	73
 7795 1973 33        		.byte	51
 7796 1974 EF        		.byte	-17
 7797 1975 C6        		.byte	-58
 7798 1976 C4        		.byte	-60
 7799 1977 C2        		.byte	-62
 7800 1978 DE        		.byte	-34
 7801 1979 E6        		.byte	-26
 7802 197a E2        		.byte	-30
 7803 197b FC        		.byte	-4
 7804 197c 22        		.byte	34
 7805 197d 3A        		.byte	58
 7806 197e 2F        		.byte	47
 7807 197f 0A        		.byte	10
 7808 1980 E7        		.byte	-25
 7809 1981 D2        		.byte	-46
 7810 1982 D1        		.byte	-47
 7811 1983 DE        		.byte	-34
 7812 1984 DD        		.byte	-35
 7813 1985 DE        		.byte	-34
 7814 1986 F2        		.byte	-14
 7815 1987 13        		.byte	19
 7816 1988 2C        		.byte	44
 7817 1989 2F        		.byte	47
 7818 198a 18        		.byte	24
 7819 198b F9        		.byte	-7
 7820 198c E5        		.byte	-27
GAS LISTING /tmp/ccEQRkCa.s 			page 141


 7821 198d E1        		.byte	-31
 7822 198e E3        		.byte	-29
 7823 198f DE        		.byte	-34
 7824 1990 DD        		.byte	-35
 7825 1991 EB        		.byte	-21
 7826 1992 05        		.byte	5
 7827 1993 1F        		.byte	31
 7828 1994 29        		.byte	41
 7829 1995 1D        		.byte	29
 7830 1996 06        		.byte	6
 7831 1997 F5        		.byte	-11
 7832 1998 EE        		.byte	-18
 7833 1999 E5        		.byte	-27
 7834 199a DF        		.byte	-33
 7835 199b E0        		.byte	-32
 7836 199c E6        		.byte	-26
 7837 199d FC        		.byte	-4
 7838 199e 13        		.byte	19
 7839 199f 1B        		.byte	27
 7840 19a0 17        		.byte	23
 7841 19a1 0A        		.byte	10
 7842 19a2 F5        		.byte	-11
 7843 19a3 DC        		.byte	-36
 7844 19a4 CF        		.byte	-49
 7845 19a5 D1        		.byte	-47
 7846 19a6 D2        		.byte	-46
 7847 19a7 E0        		.byte	-32
 7848 19a8 F6        		.byte	-10
 7849 19a9 04        		.byte	4
 7850 19aa 0B        		.byte	11
 7851 19ab 08        		.byte	8
 7852 19ac FD        		.byte	-3
 7853 19ad EF        		.byte	-17
 7854 19ae E5        		.byte	-27
 7855 19af E4        		.byte	-28
 7856 19b0 E8        		.byte	-24
 7857 19b1 EF        		.byte	-17
 7858 19b2 FF        		.byte	-1
 7859 19b3 0D        		.byte	13
 7860 19b4 15        		.byte	21
 7861 19b5 1D        		.byte	29
 7862 19b6 1E        		.byte	30
 7863 19b7 16        		.byte	22
 7864 19b8 0F        		.byte	15
 7865 19b9 11        		.byte	17
 7866 19ba 15        		.byte	21
 7867 19bb 1A        		.byte	26
 7868 19bc 25        		.byte	37
 7869 19bd 2F        		.byte	47
 7870 19be 35        		.byte	53
 7871 19bf 42        		.byte	66
 7872 19c0 4E        		.byte	78
 7873 19c1 55        		.byte	85
 7874 19c2 57        		.byte	87
 7875 19c3 E3        		.byte	-29
 7876 19c4 8A        		.byte	-118
 7877 19c5 DF        		.byte	-33
GAS LISTING /tmp/ccEQRkCa.s 			page 142


 7878 19c6 E0        		.byte	-32
 7879 19c7 E6        		.byte	-26
 7880 19c8 0B        		.byte	11
 7881 19c9 F6        		.byte	-10
 7882 19ca 0B        		.byte	11
 7883 19cb 30        		.byte	48
 7884 19cc 48        		.byte	72
 7885 19cd 31        		.byte	49
 7886 19ce E8        		.byte	-24
 7887 19cf BD        		.byte	-67
 7888 19d0 C7        		.byte	-57
 7889 19d1 C8        		.byte	-56
 7890 19d2 E3        		.byte	-29
 7891 19d3 E9        		.byte	-23
 7892 19d4 E0        		.byte	-32
 7893 19d5 FC        		.byte	-4
 7894 19d6 25        		.byte	37
 7895 19d7 3C        		.byte	60
 7896 19d8 2B        		.byte	43
 7897 19d9 00        		.byte	0
 7898 19da DF        		.byte	-33
 7899 19db D3        		.byte	-45
 7900 19dc D5        		.byte	-43
 7901 19dd E3        		.byte	-29
 7902 19de DE        		.byte	-34
 7903 19df DC        		.byte	-36
 7904 19e0 F3        		.byte	-13
 7905 19e1 18        		.byte	24
 7906 19e2 2F        		.byte	47
 7907 19e3 2B        		.byte	43
 7908 19e4 0F        		.byte	15
 7909 19e5 F2        		.byte	-14
 7910 19e6 E4        		.byte	-28
 7911 19e7 E4        		.byte	-28
 7912 19e8 E6        		.byte	-26
 7913 19e9 DE        		.byte	-34
 7914 19ea DC        		.byte	-36
 7915 19eb ED        		.byte	-19
 7916 19ec 0B        		.byte	11
 7917 19ed 23        		.byte	35
 7918 19ee 27        		.byte	39
 7919 19ef 15        		.byte	21
 7920 19f0 FF        		.byte	-1
 7921 19f1 F3        		.byte	-13
 7922 19f2 F0        		.byte	-16
 7923 19f3 E6        		.byte	-26
 7924 19f4 DB        		.byte	-37
 7925 19f5 E0        		.byte	-32
 7926 19f6 EA        		.byte	-22
 7927 19f7 01        		.byte	1
 7928 19f8 18        		.byte	24
 7929 19f9 1C        		.byte	28
 7930 19fa 12        		.byte	18
 7931 19fb 06        		.byte	6
 7932 19fc FB        		.byte	-5
 7933 19fd F5        		.byte	-11
 7934 19fe E3        		.byte	-29
GAS LISTING /tmp/ccEQRkCa.s 			page 143


 7935 19ff CA        		.byte	-54
 7936 1a00 CB        		.byte	-53
 7937 1a01 DC        		.byte	-36
 7938 1a02 F0        		.byte	-16
 7939 1a03 03        		.byte	3
 7940 1a04 05        		.byte	5
 7941 1a05 00        		.byte	0
 7942 1a06 FE        		.byte	-2
 7943 1a07 F9        		.byte	-7
 7944 1a08 F0        		.byte	-16
 7945 1a09 E4        		.byte	-28
 7946 1a0a DC        		.byte	-36
 7947 1a0b E5        		.byte	-27
 7948 1a0c F3        		.byte	-13
 7949 1a0d 01        		.byte	1
 7950 1a0e 0A        		.byte	10
 7951 1a0f 0C        		.byte	12
 7952 1a10 10        		.byte	16
 7953 1a11 14        		.byte	20
 7954 1a12 11        		.byte	17
 7955 1a13 0C        		.byte	12
 7956 1a14 09        		.byte	9
 7957 1a15 0C        		.byte	12
 7958 1a16 17        		.byte	23
 7959 1a17 1F        		.byte	31
 7960 1a18 21        		.byte	33
 7961 1a19 25        		.byte	37
 7962 1a1a 2E        		.byte	46
 7963 1a1b 37        		.byte	55
 7964 1a1c 41        		.byte	65
 7965 1a1d 43        		.byte	67
 7966 1a1e 47        		.byte	71
 7967 1a1f 4B        		.byte	75
 7968 1a20 D3        		.byte	-45
 7969 1a21 91        		.byte	-111
 7970 1a22 EE        		.byte	-18
 7971 1a23 E5        		.byte	-27
 7972 1a24 EB        		.byte	-21
 7973 1a25 0C        		.byte	12
 7974 1a26 F8        		.byte	-8
 7975 1a27 0D        		.byte	13
 7976 1a28 2E        		.byte	46
 7977 1a29 3F        		.byte	63
 7978 1a2a 22        		.byte	34
 7979 1a2b DE        		.byte	-34
 7980 1a2c C0        		.byte	-64
 7981 1a2d D1        		.byte	-47
 7982 1a2e D0        		.byte	-48
 7983 1a2f E7        		.byte	-25
 7984 1a30 EA        		.byte	-22
 7985 1a31 E3        		.byte	-29
 7986 1a32 02        		.byte	2
 7987 1a33 27        		.byte	39
 7988 1a34 35        		.byte	53
 7989 1a35 1E        		.byte	30
 7990 1a36 F6        		.byte	-10
 7991 1a37 E0        		.byte	-32
GAS LISTING /tmp/ccEQRkCa.s 			page 144


 7992 1a38 DB        		.byte	-37
 7993 1a39 DE        		.byte	-34
 7994 1a3a E6        		.byte	-26
 7995 1a3b DF        		.byte	-33
 7996 1a3c DF        		.byte	-33
 7997 1a3d FA        		.byte	-6
 7998 1a3e 1C        		.byte	28
 7999 1a3f 2B        		.byte	43
 8000 1a40 20        		.byte	32
 8001 1a41 05        		.byte	5
 8002 1a42 F0        		.byte	-16
 8003 1a43 E9        		.byte	-23
 8004 1a44 EA        		.byte	-22
 8005 1a45 E8        		.byte	-24
 8006 1a46 DE        		.byte	-34
 8007 1a47 DF        		.byte	-33
 8008 1a48 F4        		.byte	-12
 8009 1a49 10        		.byte	16
 8010 1a4a 21        		.byte	33
 8011 1a4b 1E        		.byte	30
 8012 1a4c 0D        		.byte	13
 8013 1a4d FD        		.byte	-3
 8014 1a4e F8        		.byte	-8
 8015 1a4f F5        		.byte	-11
 8016 1a50 E3        		.byte	-29
 8017 1a51 DE        		.byte	-34
 8018 1a52 E7        		.byte	-25
 8019 1a53 F0        		.byte	-16
 8020 1a54 07        		.byte	7
 8021 1a55 17        		.byte	23
 8022 1a56 16        		.byte	22
 8023 1a57 0E        		.byte	14
 8024 1a58 05        		.byte	5
 8025 1a59 FD        		.byte	-3
 8026 1a5a F4        		.byte	-12
 8027 1a5b E7        		.byte	-25
 8028 1a5c DA        		.byte	-38
 8029 1a5d D3        		.byte	-45
 8030 1a5e DE        		.byte	-34
 8031 1a5f F2        		.byte	-14
 8032 1a60 FE        		.byte	-2
 8033 1a61 01        		.byte	1
 8034 1a62 FF        		.byte	-1
 8035 1a63 FC        		.byte	-4
 8036 1a64 F9        		.byte	-7
 8037 1a65 F3        		.byte	-13
 8038 1a66 EB        		.byte	-21
 8039 1a67 E4        		.byte	-28
 8040 1a68 E6        		.byte	-26
 8041 1a69 F2        		.byte	-14
 8042 1a6a FE        		.byte	-2
 8043 1a6b 05        		.byte	5
 8044 1a6c 08        		.byte	8
 8045 1a6d 0A        		.byte	10
 8046 1a6e 0D        		.byte	13
 8047 1a6f 0F        		.byte	15
 8048 1a70 0A        		.byte	10
GAS LISTING /tmp/ccEQRkCa.s 			page 145


 8049 1a71 09        		.byte	9
 8050 1a72 0B        		.byte	11
 8051 1a73 10        		.byte	16
 8052 1a74 19        		.byte	25
 8053 1a75 1F        		.byte	31
 8054 1a76 1F        		.byte	31
 8055 1a77 1E        		.byte	30
 8056 1a78 23        		.byte	35
 8057 1a79 29        		.byte	41
 8058 1a7a 2F        		.byte	47
 8059 1a7b 38        		.byte	56
 8060 1a7c 3D        		.byte	61
 8061 1a7d 3D        		.byte	61
 8062 1a7e 40        		.byte	64
 8063 1a7f 01        		.byte	1
 8064 1a80 A7        		.byte	-89
 8065 1a81 DA        		.byte	-38
 8066 1a82 F8        		.byte	-8
 8067 1a83 E3        		.byte	-29
 8068 1a84 02        		.byte	2
 8069 1a85 FB        		.byte	-5
 8070 1a86 04        		.byte	4
 8071 1a87 24        		.byte	36
 8072 1a88 34        		.byte	52
 8073 1a89 25        		.byte	37
 8074 1a8a F3        		.byte	-13
 8075 1a8b CD        		.byte	-51
 8076 1a8c D8        		.byte	-40
 8077 1a8d DC        		.byte	-36
 8078 1a8e E0        		.byte	-32
 8079 1a8f E9        		.byte	-23
 8080 1a90 E3        		.byte	-29
 8081 1a91 F9        		.byte	-7
 8082 1a92 1D        		.byte	29
 8083 1a93 2D        		.byte	45
 8084 1a94 1F        		.byte	31
 8085 1a95 01        		.byte	1
 8086 1a96 EB        		.byte	-21
 8087 1a97 E8        		.byte	-24
 8088 1a98 E5        		.byte	-27
 8089 1a99 E5        		.byte	-27
 8090 1a9a DF        		.byte	-33
 8091 1a9b DE        		.byte	-34
 8092 1a9c F3        		.byte	-13
 8093 1a9d 13        		.byte	19
 8094 1a9e 23        		.byte	35
 8095 1a9f 1D        		.byte	29
 8096 1aa0 0A        		.byte	10
 8097 1aa1 FB        		.byte	-5
 8098 1aa2 F6        		.byte	-10
 8099 1aa3 F2        		.byte	-14
 8100 1aa4 EB        		.byte	-21
 8101 1aa5 E0        		.byte	-32
 8102 1aa6 DE        		.byte	-34
 8103 1aa7 F0        		.byte	-16
 8104 1aa8 09        		.byte	9
 8105 1aa9 18        		.byte	24
GAS LISTING /tmp/ccEQRkCa.s 			page 146


 8106 1aaa 18        		.byte	24
 8107 1aab 0F        		.byte	15
 8108 1aac 06        		.byte	6
 8109 1aad 03        		.byte	3
 8110 1aae FE        		.byte	-2
 8111 1aaf ED        		.byte	-19
 8112 1ab0 E1        		.byte	-31
 8113 1ab1 E5        		.byte	-27
 8114 1ab2 F0        		.byte	-16
 8115 1ab3 01        		.byte	1
 8116 1ab4 0E        		.byte	14
 8117 1ab5 10        		.byte	16
 8118 1ab6 0E        		.byte	14
 8119 1ab7 0C        		.byte	12
 8120 1ab8 09        		.byte	9
 8121 1ab9 FF        		.byte	-1
 8122 1aba F1        		.byte	-15
 8123 1abb E6        		.byte	-26
 8124 1abc E0        		.byte	-32
 8125 1abd E3        		.byte	-29
 8126 1abe EF        		.byte	-17
 8127 1abf F8        		.byte	-8
 8128 1ac0 F8        		.byte	-8
 8129 1ac1 F9        		.byte	-7
 8130 1ac2 FD        		.byte	-3
 8131 1ac3 FE        		.byte	-2
 8132 1ac4 F7        		.byte	-9
 8133 1ac5 F0        		.byte	-16
 8134 1ac6 EB        		.byte	-21
 8135 1ac7 EB        		.byte	-21
 8136 1ac8 F0        		.byte	-16
 8137 1ac9 F7        		.byte	-9
 8138 1aca FA        		.byte	-6
 8139 1acb FD        		.byte	-3
 8140 1acc 02        		.byte	2
 8141 1acd 05        		.byte	5
 8142 1ace 07        		.byte	7
 8143 1acf 06        		.byte	6
 8144 1ad0 06        		.byte	6
 8145 1ad1 06        		.byte	6
 8146 1ad2 07        		.byte	7
 8147 1ad3 0B        		.byte	11
 8148 1ad4 13        		.byte	19
 8149 1ad5 17        		.byte	23
 8150 1ad6 19        		.byte	25
 8151 1ad7 1C        		.byte	28
 8152 1ad8 1D        		.byte	29
 8153 1ad9 1B        		.byte	27
 8154 1ada 19        		.byte	25
 8155 1adb 1D        		.byte	29
 8156 1adc 1F        		.byte	31
 8157 1add 25        		.byte	37
 8158 1ade 36        		.byte	54
 8159 1adf 35        		.byte	53
 8160 1ae0 37        		.byte	55
 8161 1ae1 3F        		.byte	63
 8162 1ae2 0F        		.byte	15
GAS LISTING /tmp/ccEQRkCa.s 			page 147


 8163 1ae3 C4        		.byte	-60
 8164 1ae4 D4        		.byte	-44
 8165 1ae5 F4        		.byte	-12
 8166 1ae6 E4        		.byte	-28
 8167 1ae7 F1        		.byte	-15
 8168 1ae8 F8        		.byte	-8
 8169 1ae9 FF        		.byte	-1
 8170 1aea 1A        		.byte	26
 8171 1aeb 2E        		.byte	46
 8172 1aec 27        		.byte	39
 8173 1aed 01        		.byte	1
 8174 1aee E0        		.byte	-32
 8175 1aef E0        		.byte	-32
 8176 1af0 E2        		.byte	-30
 8177 1af1 DD        		.byte	-35
 8178 1af2 E0        		.byte	-32
 8179 1af3 DF        		.byte	-33
 8180 1af4 F0        		.byte	-16
 8181 1af5 11        		.byte	17
 8182 1af6 26        		.byte	38
 8183 1af7 1F        		.byte	31
 8184 1af8 0A        		.byte	10
 8185 1af9 F9        		.byte	-7
 8186 1afa F5        		.byte	-11
 8187 1afb EE        		.byte	-18
 8188 1afc E5        		.byte	-27
 8189 1afd DC        		.byte	-36
 8190 1afe D9        		.byte	-39
 8191 1aff EA        		.byte	-22
 8192 1b00 07        		.byte	7
 8193 1b01 18        		.byte	24
 8194 1b02 18        		.byte	24
 8195 1b03 0F        		.byte	15
 8196 1b04 07        		.byte	7
 8197 1b05 04        		.byte	4
 8198 1b06 FD        		.byte	-3
 8199 1b07 F0        		.byte	-16
 8200 1b08 E1        		.byte	-31
 8201 1b09 DC        		.byte	-36
 8202 1b0a E9        		.byte	-23
 8203 1b0b FD        		.byte	-3
 8204 1b0c 0B        		.byte	11
 8205 1b0d 0F        		.byte	15
 8206 1b0e 0F        		.byte	15
 8207 1b0f 0F        		.byte	15
 8208 1b10 0F        		.byte	15
 8209 1b11 0A        		.byte	10
 8210 1b12 FB        		.byte	-5
 8211 1b13 EC        		.byte	-20
 8212 1b14 E4        		.byte	-28
 8213 1b15 E5        		.byte	-27
 8214 1b16 F9        		.byte	-7
 8215 1b17 03        		.byte	3
 8216 1b18 03        		.byte	3
 8217 1b19 0A        		.byte	10
 8218 1b1a 0F        		.byte	15
 8219 1b1b 12        		.byte	18
GAS LISTING /tmp/ccEQRkCa.s 			page 148


 8220 1b1c 10        		.byte	16
 8221 1b1d 02        		.byte	2
 8222 1b1e F3        		.byte	-13
 8223 1b1f E9        		.byte	-23
 8224 1b20 EA        		.byte	-22
 8225 1b21 F1        		.byte	-15
 8226 1b22 F5        		.byte	-11
 8227 1b23 F5        		.byte	-11
 8228 1b24 F2        		.byte	-14
 8229 1b25 FA        		.byte	-6
 8230 1b26 04        		.byte	4
 8231 1b27 FF        		.byte	-1
 8232 1b28 F4        		.byte	-12
 8233 1b29 EB        		.byte	-21
 8234 1b2a E8        		.byte	-24
 8235 1b2b EF        		.byte	-17
 8236 1b2c F4        		.byte	-12
 8237 1b2d F2        		.byte	-14
 8238 1b2e F2        		.byte	-14
 8239 1b2f F8        		.byte	-8
 8240 1b30 01        		.byte	1
 8241 1b31 05        		.byte	5
 8242 1b32 00        		.byte	0
 8243 1b33 FA        		.byte	-6
 8244 1b34 F9        		.byte	-7
 8245 1b35 FD        		.byte	-3
 8246 1b36 02        		.byte	2
 8247 1b37 03        		.byte	3
 8248 1b38 06        		.byte	6
 8249 1b39 0A        		.byte	10
 8250 1b3a 0E        		.byte	14
 8251 1b3b 14        		.byte	20
 8252 1b3c 14        		.byte	20
 8253 1b3d 15        		.byte	21
 8254 1b3e 15        		.byte	21
 8255 1b3f 11        		.byte	17
 8256 1b40 14        		.byte	20
 8257 1b41 14        		.byte	20
 8258 1b42 11        		.byte	17
 8259 1b43 15        		.byte	21
 8260 1b44 17        		.byte	23
 8261 1b45 1A        		.byte	26
 8262 1b46 22        		.byte	34
 8263 1b47 23        		.byte	35
 8264 1b48 21        		.byte	33
 8265 1b49 27        		.byte	39
 8266 1b4a 2B        		.byte	43
 8267 1b4b 2E        		.byte	46
 8268 1b4c 32        		.byte	50
 8269 1b4d EC        		.byte	-20
 8270 1b4e B7        		.byte	-73
 8271 1b4f F2        		.byte	-14
 8272 1b50 F6        		.byte	-10
 8273 1b51 E9        		.byte	-23
 8274 1b52 F9        		.byte	-7
 8275 1b53 F3        		.byte	-13
 8276 1b54 02        		.byte	2
GAS LISTING /tmp/ccEQRkCa.s 			page 149


 8277 1b55 21        		.byte	33
 8278 1b56 29        		.byte	41
 8279 1b57 17        		.byte	23
 8280 1b58 F0        		.byte	-16
 8281 1b59 DE        		.byte	-34
 8282 1b5a EF        		.byte	-17
 8283 1b5b E9        		.byte	-23
 8284 1b5c E3        		.byte	-29
 8285 1b5d DF        		.byte	-33
 8286 1b5e DF        		.byte	-33
 8287 1b5f F8        		.byte	-8
 8288 1b60 18        		.byte	24
 8289 1b61 1E        		.byte	30
 8290 1b62 10        		.byte	16
 8291 1b63 FF        		.byte	-1
 8292 1b64 FB        		.byte	-5
 8293 1b65 FE        		.byte	-2
 8294 1b66 F5        		.byte	-11
 8295 1b67 E6        		.byte	-26
 8296 1b68 DB        		.byte	-37
 8297 1b69 DC        		.byte	-36
 8298 1b6a F3        		.byte	-13
 8299 1b6b 0A        		.byte	10
 8300 1b6c 0E        		.byte	14
 8301 1b6d 0A        		.byte	10
 8302 1b6e 08        		.byte	8
 8303 1b6f 0B        		.byte	11
 8304 1b70 0D        		.byte	13
 8305 1b71 03        		.byte	3
 8306 1b72 F1        		.byte	-15
 8307 1b73 E4        		.byte	-28
 8308 1b74 E5        		.byte	-27
 8309 1b75 F2        		.byte	-14
 8310 1b76 FF        		.byte	-1
 8311 1b77 01        		.byte	1
 8312 1b78 03        		.byte	3
 8313 1b79 09        		.byte	9
 8314 1b7a 12        		.byte	18
 8315 1b7b 16        		.byte	22
 8316 1b7c 0D        		.byte	13
 8317 1b7d FD        		.byte	-3
 8318 1b7e F1        		.byte	-15
 8319 1b7f EB        		.byte	-21
 8320 1b80 F4        		.byte	-12
 8321 1b81 FA        		.byte	-6
 8322 1b82 F4        		.byte	-12
 8323 1b83 F9        		.byte	-7
 8324 1b84 03        		.byte	3
 8325 1b85 0D        		.byte	13
 8326 1b86 13        		.byte	19
 8327 1b87 0D        		.byte	13
 8328 1b88 02        		.byte	2
 8329 1b89 FA        		.byte	-6
 8330 1b8a F6        		.byte	-10
 8331 1b8b F7        		.byte	-9
 8332 1b8c F2        		.byte	-14
 8333 1b8d EE        		.byte	-18
GAS LISTING /tmp/ccEQRkCa.s 			page 150


 8334 1b8e F2        		.byte	-14
 8335 1b8f F5        		.byte	-11
 8336 1b90 FE        		.byte	-2
 8337 1b91 04        		.byte	4
 8338 1b92 FE        		.byte	-2
 8339 1b93 FA        		.byte	-6
 8340 1b94 F7        		.byte	-9
 8341 1b95 F5        		.byte	-11
 8342 1b96 F5        		.byte	-11
 8343 1b97 EF        		.byte	-17
 8344 1b98 EB        		.byte	-21
 8345 1b99 F2        		.byte	-14
 8346 1b9a F9        		.byte	-7
 8347 1b9b FE        		.byte	-2
 8348 1b9c FF        		.byte	-1
 8349 1b9d FE        		.byte	-2
 8350 1b9e FF        		.byte	-1
 8351 1b9f 00        		.byte	0
 8352 1ba0 FF        		.byte	-1
 8353 1ba1 FC        		.byte	-4
 8354 1ba2 F9        		.byte	-7
 8355 1ba3 FB        		.byte	-5
 8356 1ba4 01        		.byte	1
 8357 1ba5 07        		.byte	7
 8358 1ba6 0A        		.byte	10
 8359 1ba7 0C        		.byte	12
 8360 1ba8 0E        		.byte	14
 8361 1ba9 0E        		.byte	14
 8362 1baa 11        		.byte	17
 8363 1bab 12        		.byte	18
 8364 1bac 0E        		.byte	14
 8365 1bad 10        		.byte	16
 8366 1bae 12        		.byte	18
 8367 1baf 11        		.byte	17
 8368 1bb0 10        		.byte	16
 8369 1bb1 0F        		.byte	15
 8370 1bb2 11        		.byte	17
 8371 1bb3 12        		.byte	18
 8372 1bb4 10        		.byte	16
 8373 1bb5 12        		.byte	18
 8374 1bb6 14        		.byte	20
 8375 1bb7 12        		.byte	18
 8376 1bb8 15        		.byte	21
 8377 1bb9 17        		.byte	23
 8378 1bba 1A        		.byte	26
 8379 1bbb 1F        		.byte	31
 8380 1bbc 1C        		.byte	28
 8381 1bbd 1B        		.byte	27
 8382 1bbe 1A        		.byte	26
 8383 1bbf 07        		.byte	7
 8384 1bc0 E8        		.byte	-24
 8385 1bc1 E2        		.byte	-30
 8386 1bc2 F2        		.byte	-14
 8387 1bc3 F1        		.byte	-15
 8388 1bc4 ED        		.byte	-19
 8389 1bc5 F5        		.byte	-11
 8390 1bc6 FC        		.byte	-4
GAS LISTING /tmp/ccEQRkCa.s 			page 151


 8391 1bc7 07        		.byte	7
 8392 1bc8 12        		.byte	18
 8393 1bc9 10        		.byte	16
 8394 1bca 02        		.byte	2
 8395 1bcb F4        		.byte	-12
 8396 1bcc F0        		.byte	-16
 8397 1bcd F1        		.byte	-15
 8398 1bce EA        		.byte	-22
 8399 1bcf E4        		.byte	-28
 8400 1bd0 E6        		.byte	-26
 8401 1bd1 EE        		.byte	-18
 8402 1bd2 FD        		.byte	-3
 8403 1bd3 09        		.byte	9
 8404 1bd4 0A        		.byte	10
 8405 1bd5 06        		.byte	6
 8406 1bd6 04        		.byte	4
 8407 1bd7 04        		.byte	4
 8408 1bd8 FF        		.byte	-1
 8409 1bd9 F5        		.byte	-11
 8410 1bda EB        		.byte	-21
 8411 1bdb E8        		.byte	-24
 8412 1bdc ED        		.byte	-19
 8413 1bdd F6        		.byte	-10
 8414 1bde FE        		.byte	-2
 8415 1bdf 00        		.byte	0
 8416 1be0 03        		.byte	3
 8417 1be1 09        		.byte	9
 8418 1be2 0D        		.byte	13
 8419 1be3 0A        		.byte	10
 8420 1be4 01        		.byte	1
 8421 1be5 F7        		.byte	-9
 8422 1be6 F2        		.byte	-14
 8423 1be7 F2        		.byte	-14
 8424 1be8 F4        		.byte	-12
 8425 1be9 F5        		.byte	-11
 8426 1bea F7        		.byte	-9
 8427 1beb FC        		.byte	-4
 8428 1bec 05        		.byte	5
 8429 1bed 0A        		.byte	10
 8430 1bee 0B        		.byte	11
 8431 1bef 07        		.byte	7
 8432 1bf0 02        		.byte	2
 8433 1bf1 FE        		.byte	-2
 8434 1bf2 FB        		.byte	-5
 8435 1bf3 F7        		.byte	-9
 8436 1bf4 F3        		.byte	-13
 8437 1bf5 F2        		.byte	-14
 8438 1bf6 F6        		.byte	-10
 8439 1bf7 FD        		.byte	-3
 8440 1bf8 02        		.byte	2
 8441 1bf9 04        		.byte	4
 8442 1bfa 04        		.byte	4
 8443 1bfb 01        		.byte	1
 8444 1bfc 00        		.byte	0
 8445 1bfd 02        		.byte	2
 8446 1bfe FC        		.byte	-4
 8447 1bff F1        		.byte	-15
GAS LISTING /tmp/ccEQRkCa.s 			page 152


 8448 1c00 F0        		.byte	-16
 8449 1c01 F1        		.byte	-15
 8450 1c02 F5        		.byte	-11
 8451 1c03 F8        		.byte	-8
 8452 1c04 F5        		.byte	-11
 8453 1c05 F8        		.byte	-8
 8454 1c06 FD        		.byte	-3
 8455 1c07 FE        		.byte	-2
 8456 1c08 FF        		.byte	-1
 8457 1c09 FA        		.byte	-6
 8458 1c0a F2        		.byte	-14
 8459 1c0b F7        		.byte	-9
 8460 1c0c FB        		.byte	-5
 8461 1c0d F8        		.byte	-8
 8462 1c0e F9        		.byte	-7
 8463 1c0f FB        		.byte	-5
 8464 1c10 FF        		.byte	-1
 8465 1c11 03        		.byte	3
 8466 1c12 04        		.byte	4
 8467 1c13 04        		.byte	4
 8468 1c14 03        		.byte	3
 8469 1c15 05        		.byte	5
 8470 1c16 0A        		.byte	10
 8471 1c17 0A        		.byte	10
 8472 1c18 08        		.byte	8
 8473 1c19 08        		.byte	8
 8474 1c1a 0B        		.byte	11
 8475 1c1b 10        		.byte	16
 8476 1c1c 12        		.byte	18
 8477 1c1d 0D        		.byte	13
 8478 1c1e 0E        		.byte	14
 8479 1c1f 11        		.byte	17
 8480 1c20 10        		.byte	16
 8481 1c21 0F        		.byte	15
 8482 1c22 0A        		.byte	10
 8483 1c23 06        		.byte	6
 8484 1c24 08        		.byte	8
 8485 1c25 0B        		.byte	11
 8486 1c26 0D        		.byte	13
 8487 1c27 09        		.byte	9
 8488 1c28 08        		.byte	8
 8489 1c29 11        		.byte	17
 8490 1c2a 13        		.byte	19
 8491 1c2b 12        		.byte	18
 8492 1c2c 16        		.byte	22
 8493 1c2d 15        		.byte	21
 8494 1c2e 0C        		.byte	12
 8495 1c2f 0F        		.byte	15
 8496 1c30 1A        		.byte	26
 8497 1c31 14        		.byte	20
 8498 1c32 02        		.byte	2
 8499 1c33 F6        		.byte	-10
 8500 1c34 EE        		.byte	-18
 8501 1c35 EE        		.byte	-18
 8502 1c36 F8        		.byte	-8
 8503 1c37 F5        		.byte	-11
 8504 1c38 EF        		.byte	-17
GAS LISTING /tmp/ccEQRkCa.s 			page 153


 8505 1c39 F5        		.byte	-11
 8506 1c3a 01        		.byte	1
 8507 1c3b 0A        		.byte	10
 8508 1c3c 0A        		.byte	10
 8509 1c3d 00        		.byte	0
 8510 1c3e F9        		.byte	-7
 8511 1c3f F7        		.byte	-9
 8512 1c40 F6        		.byte	-10
 8513 1c41 F5        		.byte	-11
 8514 1c42 EC        		.byte	-20
 8515 1c43 E7        		.byte	-25
 8516 1c44 EE        		.byte	-18
 8517 1c45 F9        		.byte	-7
 8518 1c46 00        		.byte	0
 8519 1c47 01        		.byte	1
 8520 1c48 00        		.byte	0
 8521 1c49 01        		.byte	1
 8522 1c4a 05        		.byte	5
 8523 1c4b 04        		.byte	4
 8524 1c4c FD        		.byte	-3
 8525 1c4d F3        		.byte	-13
 8526 1c4e EF        		.byte	-17
 8527 1c4f F2        		.byte	-14
 8528 1c50 F6        		.byte	-10
 8529 1c51 F8        		.byte	-8
 8530 1c52 F8        		.byte	-8
 8531 1c53 FB        		.byte	-5
 8532 1c54 02        		.byte	2
 8533 1c55 08        		.byte	8
 8534 1c56 09        		.byte	9
 8535 1c57 04        		.byte	4
 8536 1c58 FF        		.byte	-1
 8537 1c59 FD        		.byte	-3
 8538 1c5a FC        		.byte	-4
 8539 1c5b FA        		.byte	-6
 8540 1c5c F6        		.byte	-10
 8541 1c5d F4        		.byte	-12
 8542 1c5e F7        		.byte	-9
 8543 1c5f FD        		.byte	-3
 8544 1c60 02        		.byte	2
 8545 1c61 03        		.byte	3
 8546 1c62 03        		.byte	3
 8547 1c63 04        		.byte	4
 8548 1c64 04        		.byte	4
 8549 1c65 03        		.byte	3
 8550 1c66 FE        		.byte	-2
 8551 1c67 F9        		.byte	-7
 8552 1c68 F7        		.byte	-9
 8553 1c69 F7        		.byte	-9
 8554 1c6a F8        		.byte	-8
 8555 1c6b FA        		.byte	-6
 8556 1c6c FB        		.byte	-5
 8557 1c6d FD        		.byte	-3
 8558 1c6e FF        		.byte	-1
 8559 1c6f 01        		.byte	1
 8560 1c70 04        		.byte	4
 8561 1c71 01        		.byte	1
GAS LISTING /tmp/ccEQRkCa.s 			page 154


 8562 1c72 FC        		.byte	-4
 8563 1c73 FA        		.byte	-6
 8564 1c74 F8        		.byte	-8
 8565 1c75 F9        		.byte	-7
 8566 1c76 F8        		.byte	-8
 8567 1c77 F4        		.byte	-12
 8568 1c78 F5        		.byte	-11
 8569 1c79 FB        		.byte	-5
 8570 1c7a FE        		.byte	-2
 8571 1c7b FC        		.byte	-4
 8572 1c7c FC        		.byte	-4
 8573 1c7d FD        		.byte	-3
 8574 1c7e FC        		.byte	-4
 8575 1c7f FC        		.byte	-4
 8576 1c80 FB        		.byte	-5
 8577 1c81 FA        		.byte	-6
 8578 1c82 FA        		.byte	-6
 8579 1c83 FA        		.byte	-6
 8580 1c84 FC        		.byte	-4
 8581 1c85 FF        		.byte	-1
 8582 1c86 FF        		.byte	-1
 8583 1c87 FF        		.byte	-1
 8584 1c88 02        		.byte	2
 8585 1c89 04        		.byte	4
 8586 1c8a 05        		.byte	5
 8587 1c8b 05        		.byte	5
 8588 1c8c 05        		.byte	5
 8589 1c8d 06        		.byte	6
 8590 1c8e 08        		.byte	8
 8591 1c8f 08        		.byte	8
 8592 1c90 07        		.byte	7
 8593 1c91 09        		.byte	9
 8594 1c92 0D        		.byte	13
 8595 1c93 0D        		.byte	13
 8596 1c94 0D        		.byte	13
 8597 1c95 0F        		.byte	15
 8598 1c96 0B        		.byte	11
 8599 1c97 08        		.byte	8
 8600 1c98 09        		.byte	9
 8601 1c99 04        		.byte	4
 8602 1c9a 04        		.byte	4
 8603 1c9b 07        		.byte	7
 8604 1c9c 05        		.byte	5
 8605 1c9d 06        		.byte	6
 8606 1c9e 07        		.byte	7
 8607 1c9f 06        		.byte	6
 8608 1ca0 05        		.byte	5
 8609 1ca1 07        		.byte	7
 8610 1ca2 08        		.byte	8
 8611 1ca3 04        		.byte	4
 8612 1ca4 04        		.byte	4
 8613 1ca5 07        		.byte	7
 8614 1ca6 07        		.byte	7
 8615 1ca7 06        		.byte	6
 8616 1ca8 07        		.byte	7
 8617 1ca9 06        		.byte	6
 8618 1caa 0A        		.byte	10
GAS LISTING /tmp/ccEQRkCa.s 			page 155


 8619 1cab 08        		.byte	8
 8620 1cac 03        		.byte	3
 8621 1cad 08        		.byte	8
 8622 1cae 0A        		.byte	10
 8623 1caf 0A        		.byte	10
 8624 1cb0 0A        		.byte	10
 8625 1cb1 06        		.byte	6
 8626 1cb2 01        		.byte	1
 8627 1cb3 F7        		.byte	-9
 8628 1cb4 F0        		.byte	-16
 8629 1cb5 F9        		.byte	-7
 8630 1cb6 F5        		.byte	-11
 8631 1cb7 EE        		.byte	-18
 8632 1cb8 F4        		.byte	-12
 8633 1cb9 F9        		.byte	-7
 8634 1cba FC        		.byte	-4
 8635 1cbb 02        		.byte	2
 8636 1cbc 01        		.byte	1
 8637 1cbd FE        		.byte	-2
 8638 1cbe FD        		.byte	-3
 8639 1cbf FC        		.byte	-4
 8640 1cc0 FB        		.byte	-5
 8641 1cc1 F5        		.byte	-11
 8642 1cc2 F0        		.byte	-16
 8643 1cc3 F2        		.byte	-14
 8644 1cc4 F4        		.byte	-12
 8645 1cc5 F7        		.byte	-9
 8646 1cc6 FA        		.byte	-6
 8647 1cc7 FB        		.byte	-5
 8648 1cc8 FE        		.byte	-2
 8649 1cc9 02        		.byte	2
 8650 1cca 04        		.byte	4
 8651 1ccb 02        		.byte	2
 8652 1ccc FE        		.byte	-2
 8653 1ccd FB        		.byte	-5
 8654 1cce FA        		.byte	-6
 8655 1ccf F9        		.byte	-7
 8656 1cd0 F8        		.byte	-8
 8657 1cd1 F7        		.byte	-9
 8658 1cd2 F8        		.byte	-8
 8659 1cd3 FB        		.byte	-5
 8660 1cd4 FF        		.byte	-1
 8661 1cd5 01        		.byte	1
 8662 1cd6 01        		.byte	1
 8663 1cd7 01        		.byte	1
 8664 1cd8 01        		.byte	1
 8665 1cd9 01        		.byte	1
 8666 1cda FF        		.byte	-1
 8667 1cdb FC        		.byte	-4
 8668 1cdc F9        		.byte	-7
 8669 1cdd F9        		.byte	-7
 8670 1cde F9        		.byte	-7
 8671 1cdf FA        		.byte	-6
 8672 1ce0 FA        		.byte	-6
 8673 1ce1 FC        		.byte	-4
 8674 1ce2 FE        		.byte	-2
 8675 1ce3 00        		.byte	0
GAS LISTING /tmp/ccEQRkCa.s 			page 156


 8676 1ce4 01        		.byte	1
 8677 1ce5 00        		.byte	0
 8678 1ce6 FF        		.byte	-1
 8679 1ce7 FE        		.byte	-2
 8680 1ce8 FC        		.byte	-4
 8681 1ce9 FB        		.byte	-5
 8682 1cea F8        		.byte	-8
 8683 1ceb F4        		.byte	-12
 8684 1cec F8        		.byte	-8
 8685 1ced FA        		.byte	-6
 8686 1cee F7        		.byte	-9
 8687 1cef F8        		.byte	-8
 8688 1cf0 FC        		.byte	-4
 8689 1cf1 FE        		.byte	-2
 8690 1cf2 FF        		.byte	-1
 8691 1cf3 FE        		.byte	-2
 8692 1cf4 FC        		.byte	-4
 8693 1cf5 FD        		.byte	-3
 8694 1cf6 FC        		.byte	-4
 8695 1cf7 FC        		.byte	-4
 8696 1cf8 FB        		.byte	-5
 8697 1cf9 F8        		.byte	-8
 8698 1cfa F7        		.byte	-9
 8699 1cfb FA        		.byte	-6
 8700 1cfc FE        		.byte	-2
 8701 1cfd FB        		.byte	-5
 8702 1cfe FB        		.byte	-5
 8703 1cff FF        		.byte	-1
 8704 1d00 01        		.byte	1
 8705 1d01 01        		.byte	1
 8706 1d02 01        		.byte	1
 8707 1d03 FF        		.byte	-1
 8708 1d04 FF        		.byte	-1
 8709 1d05 01        		.byte	1
 8710 1d06 02        		.byte	2
 8711 1d07 02        		.byte	2
 8712 1d08 01        		.byte	1
 8713 1d09 04        		.byte	4
 8714 1d0a 07        		.byte	7
 8715 1d0b 08        		.byte	8
 8716 1d0c 08        		.byte	8
 8717 1d0d 08        		.byte	8
 8718 1d0e 09        		.byte	9
 8719 1d0f 0A        		.byte	10
 8720 1d10 09        		.byte	9
 8721 1d11 08        		.byte	8
 8722 1d12 07        		.byte	7
 8723 1d13 05        		.byte	5
 8724 1d14 05        		.byte	5
 8725 1d15 05        		.byte	5
 8726 1d16 01        		.byte	1
 8727 1d17 02        		.byte	2
 8728 1d18 07        		.byte	7
 8729 1d19 03        		.byte	3
 8730 1d1a 01        		.byte	1
 8731 1d1b 05        		.byte	5
 8732 1d1c 06        		.byte	6
GAS LISTING /tmp/ccEQRkCa.s 			page 157


 8733 1d1d 03        		.byte	3
 8734 1d1e 02        		.byte	2
 8735 1d1f 02        		.byte	2
 8736 1d20 01        		.byte	1
 8737 1d21 01        		.byte	1
 8738 1d22 02        		.byte	2
 8739 1d23 00        		.byte	0
 8740 1d24 FF        		.byte	-1
 8741 1d25 02        		.byte	2
 8742 1d26 04        		.byte	4
 8743 1d27 02        		.byte	2
 8744 1d28 00        		.byte	0
 8745 1d29 01        		.byte	1
 8746 1d2a 01        		.byte	1
 8747 1d2b 00        		.byte	0
 8748 1d2c 00        		.byte	0
 8749 1d2d FF        		.byte	-1
 8750 1d2e 00        		.byte	0
 8751 1d2f 01        		.byte	1
 8752 1d30 01        		.byte	1
 8753 1d31 02        		.byte	2
 8754 1d32 01        		.byte	1
 8755 1d33 00        		.byte	0
 8756 1d34 01        		.byte	1
 8757 1d35 00        		.byte	0
 8758 1d36 FE        		.byte	-2
 8759 1d37 00        		.byte	0
 8760 1d38 FD        		.byte	-3
 8761 1d39 FD        		.byte	-3
 8762 1d3a FF        		.byte	-1
 8763 1d3b FC        		.byte	-4
 8764 1d3c FC        		.byte	-4
 8765 1d3d FE        		.byte	-2
 8766 1d3e FD        		.byte	-3
 8767 1d3f FD        		.byte	-3
 8768 1d40 FC        		.byte	-4
 8769 1d41 FB        		.byte	-5
 8770 1d42 FC        		.byte	-4
 8771 1d43 FA        		.byte	-6
 8772 1d44 F9        		.byte	-7
 8773 1d45 F9        		.byte	-7
 8774 1d46 F7        		.byte	-9
 8775 1d47 F6        		.byte	-10
 8776 1d48 F8        		.byte	-8
 8777 1d49 F8        		.byte	-8
 8778 1d4a F9        		.byte	-7
 8779 1d4b F9        		.byte	-7
 8780 1d4c FA        		.byte	-6
 8781 1d4d FB        		.byte	-5
 8782 1d4e FC        		.byte	-4
 8783 1d4f FC        		.byte	-4
 8784 1d50 FC        		.byte	-4
 8785 1d51 FB        		.byte	-5
 8786 1d52 FB        		.byte	-5
 8787 1d53 FC        		.byte	-4
 8788 1d54 FB        		.byte	-5
 8789 1d55 FB        		.byte	-5
GAS LISTING /tmp/ccEQRkCa.s 			page 158


 8790 1d56 F7        		.byte	-9
 8791 1d57 F0        		.byte	-16
 8792 1d58 F7        		.byte	-9
 8793 1d59 FC        		.byte	-4
 8794 1d5a F3        		.byte	-13
 8795 1d5b F2        		.byte	-14
 8796 1d5c F8        		.byte	-8
 8797 1d5d F8        		.byte	-8
 8798 1d5e F9        		.byte	-7
 8799 1d5f F8        		.byte	-8
 8800 1d60 F7        		.byte	-9
 8801 1d61 F9        		.byte	-7
 8802 1d62 FA        		.byte	-6
 8803 1d63 FC        		.byte	-4
 8804 1d64 FB        		.byte	-5
 8805 1d65 F8        		.byte	-8
 8806 1d66 FB        		.byte	-5
 8807 1d67 FF        		.byte	-1
 8808 1d68 FE        		.byte	-2
 8809 1d69 FE        		.byte	-2
 8810 1d6a FF        		.byte	-1
 8811 1d6b 00        		.byte	0
 8812 1d6c 02        		.byte	2
 8813 1d6d 04        		.byte	4
 8814 1d6e 04        		.byte	4
 8815 1d6f 04        		.byte	4
 8816 1d70 05        		.byte	5
 8817 1d71 06        		.byte	6
 8818 1d72 07        		.byte	7
 8819 1d73 05        		.byte	5
 8820 1d74 05        		.byte	5
 8821 1d75 08        		.byte	8
 8822 1d76 09        		.byte	9
 8823 1d77 06        		.byte	6
 8824 1d78 06        		.byte	6
 8825 1d79 0C        		.byte	12
 8826 1d7a 08        		.byte	8
 8827 1d7b 05        		.byte	5
 8828 1d7c 08        		.byte	8
 8829 1d7d 07        		.byte	7
 8830 1d7e 08        		.byte	8
 8831 1d7f 0D        		.byte	13
 8832 1d80 09        		.byte	9
 8833 1d81 07        		.byte	7
 8834 1d82 0D        		.byte	13
 8835 1d83 12        		.byte	18
 8836 1d84 14        		.byte	20
 8837 1d85 12        		.byte	18
 8838 1d86 15        		.byte	21
 8839 1d87 16        		.byte	22
 8840 1d88 01        		.byte	1
 8841 1d89 F7        		.byte	-9
 8842 1d8a FA        		.byte	-6
 8843 1d8b F5        		.byte	-11
 8844 1d8c EC        		.byte	-20
 8845 1d8d EA        		.byte	-22
 8846 1d8e EC        		.byte	-20
GAS LISTING /tmp/ccEQRkCa.s 			page 159


 8847 1d8f F4        		.byte	-12
 8848 1d90 FC        		.byte	-4
 8849 1d91 00        		.byte	0
 8850 1d92 04        		.byte	4
 8851 1d93 04        		.byte	4
 8852 1d94 06        		.byte	6
 8853 1d95 09        		.byte	9
 8854 1d96 02        		.byte	2
 8855 1d97 F8        		.byte	-8
 8856 1d98 F3        		.byte	-13
 8857 1d99 F1        		.byte	-15
 8858 1d9a EF        		.byte	-17
 8859 1d9b EE        		.byte	-18
 8860 1d9c ED        		.byte	-19
 8861 1d9d F0        		.byte	-16
 8862 1d9e F8        		.byte	-8
 8863 1d9f FF        		.byte	-1
 8864 1da0 03        		.byte	3
 8865 1da1 04        		.byte	4
 8866 1da2 04        		.byte	4
 8867 1da3 07        		.byte	7
 8868 1da4 06        		.byte	6
 8869 1da5 01        		.byte	1
 8870 1da6 FB        		.byte	-5
 8871 1da7 F6        		.byte	-10
 8872 1da8 F4        		.byte	-12
 8873 1da9 F4        		.byte	-12
 8874 1daa F3        		.byte	-13
 8875 1dab F3        		.byte	-13
 8876 1dac F7        		.byte	-9
 8877 1dad FC        		.byte	-4
 8878 1dae 02        		.byte	2
 8879 1daf 05        		.byte	5
 8880 1db0 06        		.byte	6
 8881 1db1 06        		.byte	6
 8882 1db2 07        		.byte	7
 8883 1db3 05        		.byte	5
 8884 1db4 01        		.byte	1
 8885 1db5 FC        		.byte	-4
 8886 1db6 F8        		.byte	-8
 8887 1db7 F7        		.byte	-9
 8888 1db8 F7        		.byte	-9
 8889 1db9 F7        		.byte	-9
 8890 1dba F8        		.byte	-8
 8891 1dbb FA        		.byte	-6
 8892 1dbc FF        		.byte	-1
 8893 1dbd 03        		.byte	3
 8894 1dbe 05        		.byte	5
 8895 1dbf 06        		.byte	6
 8896 1dc0 06        		.byte	6
 8897 1dc1 06        		.byte	6
 8898 1dc2 04        		.byte	4
 8899 1dc3 01        		.byte	1
 8900 1dc4 FD        		.byte	-3
 8901 1dc5 FA        		.byte	-6
 8902 1dc6 F9        		.byte	-7
 8903 1dc7 F9        		.byte	-7
GAS LISTING /tmp/ccEQRkCa.s 			page 160


 8904 1dc8 F9        		.byte	-7
 8905 1dc9 FA        		.byte	-6
 8906 1dca FC        		.byte	-4
 8907 1dcb 00        		.byte	0
 8908 1dcc 03        		.byte	3
 8909 1dcd 05        		.byte	5
 8910 1dce 05        		.byte	5
 8911 1dcf 05        		.byte	5
 8912 1dd0 05        		.byte	5
 8913 1dd1 03        		.byte	3
 8914 1dd2 00        		.byte	0
 8915 1dd3 FD        		.byte	-3
 8916 1dd4 FB        		.byte	-5
 8917 1dd5 FB        		.byte	-5
 8918 1dd6 FA        		.byte	-6
 8919 1dd7 FB        		.byte	-5
 8920 1dd8 FC        		.byte	-4
 8921 1dd9 FE        		.byte	-2
 8922 1dda 00        		.byte	0
 8923 1ddb 02        		.byte	2
 8924 1ddc 04        		.byte	4
 8925 1ddd 03        		.byte	3
 8926 1dde 02        		.byte	2
 8927 1ddf 05        		.byte	5
 8928 1de0 03        		.byte	3
 8929 1de1 FF        		.byte	-1
 8930 1de2 FE        		.byte	-2
 8931 1de3 FD        		.byte	-3
 8932 1de4 FB        		.byte	-5
 8933 1de5 FC        		.byte	-4
 8934 1de6 FB        		.byte	-5
 8935 1de7 FC        		.byte	-4
 8936 1de8 FE        		.byte	-2
 8937 1de9 FF        		.byte	-1
 8938 1dea 01        		.byte	1
 8939 1deb 02        		.byte	2
 8940 1dec 02        		.byte	2
 8941 1ded 03        		.byte	3
 8942 1dee 03        		.byte	3
 8943 1def 02        		.byte	2
 8944 1df0 00        		.byte	0
 8945 1df1 FF        		.byte	-1
 8946 1df2 FE        		.byte	-2
 8947 1df3 FD        		.byte	-3
 8948 1df4 FD        		.byte	-3
 8949 1df5 F9        		.byte	-7
 8950 1df6 F7        		.byte	-9
 8951 1df7 F9        		.byte	-7
 8952 1df8 FA        		.byte	-6
 8953 1df9 F7        		.byte	-9
 8954 1dfa F5        		.byte	-11
 8955 1dfb FA        		.byte	-6
 8956 1dfc FB        		.byte	-5
 8957 1dfd FB        		.byte	-5
 8958 1dfe FD        		.byte	-3
 8959 1dff FE        		.byte	-2
 8960 1e00 FF        		.byte	-1
GAS LISTING /tmp/ccEQRkCa.s 			page 161


 8961 1e01 00        		.byte	0
 8962 1e02 FF        		.byte	-1
 8963 1e03 FF        		.byte	-1
 8964 1e04 FF        		.byte	-1
 8965 1e05 00        		.byte	0
 8966 1e06 01        		.byte	1
 8967 1e07 01        		.byte	1
 8968 1e08 01        		.byte	1
 8969 1e09 03        		.byte	3
 8970 1e0a 05        		.byte	5
 8971 1e0b 05        		.byte	5
 8972 1e0c 05        		.byte	5
 8973 1e0d 06        		.byte	6
 8974 1e0e 07        		.byte	7
 8975 1e0f 07        		.byte	7
 8976 1e10 06        		.byte	6
 8977 1e11 05        		.byte	5
 8978 1e12 03        		.byte	3
 8979 1e13 03        		.byte	3
 8980 1e14 04        		.byte	4
 8981 1e15 04        		.byte	4
 8982 1e16 04        		.byte	4
 8983 1e17 04        		.byte	4
 8984 1e18 06        		.byte	6
 8985 1e19 06        		.byte	6
 8986 1e1a 05        		.byte	5
 8987 1e1b 05        		.byte	5
 8988 1e1c 07        		.byte	7
 8989 1e1d 06        		.byte	6
 8990 1e1e 04        		.byte	4
 8991 1e1f 05        		.byte	5
 8992 1e20 06        		.byte	6
 8993 1e21 06        		.byte	6
 8994 1e22 04        		.byte	4
 8995 1e23 04        		.byte	4
 8996 1e24 05        		.byte	5
 8997 1e25 04        		.byte	4
 8998 1e26 04        		.byte	4
 8999 1e27 04        		.byte	4
 9000 1e28 04        		.byte	4
 9001 1e29 06        		.byte	6
 9002 1e2a 07        		.byte	7
 9003 1e2b 06        		.byte	6
 9004 1e2c 06        		.byte	6
 9005 1e2d 07        		.byte	7
 9006 1e2e 07        		.byte	7
 9007 1e2f 07        		.byte	7
 9008 1e30 07        		.byte	7
 9009 1e31 07        		.byte	7
 9010 1e32 08        		.byte	8
 9011 1e33 08        		.byte	8
 9012 1e34 0A        		.byte	10
 9013 1e35 0A        		.byte	10
 9014 1e36 07        		.byte	7
 9015 1e37 09        		.byte	9
 9016 1e38 11        		.byte	17
 9017 1e39 0F        		.byte	15
GAS LISTING /tmp/ccEQRkCa.s 			page 162


 9018 1e3a 04        		.byte	4
 9019 1e3b FB        		.byte	-5
 9020 1e3c FD        		.byte	-3
 9021 1e3d 02        		.byte	2
 9022 1e3e F9        		.byte	-7
 9023 1e3f ED        		.byte	-19
 9024 1e40 EF        		.byte	-17
 9025 1e41 F6        		.byte	-10
 9026 1e42 F9        		.byte	-7
 9027 1e43 F9        		.byte	-7
 9028 1e44 F7        		.byte	-9
 9029 1e45 FB        		.byte	-5
 9030 1e46 02        		.byte	2
 9031 1e47 06        		.byte	6
 9032 1e48 04        		.byte	4
 9033 1e49 00        		.byte	0
 9034 1e4a FE        		.byte	-2
 9035 1e4b 02        		.byte	2
 9036 1e4c 01        		.byte	1
 9037 1e4d FA        		.byte	-6
 9038 1e4e F4        		.byte	-12
 9039 1e4f F5        		.byte	-11
 9040 1e50 F8        		.byte	-8
 9041 1e51 F9        		.byte	-7
 9042 1e52 F7        		.byte	-9
 9043 1e53 F6        		.byte	-10
 9044 1e54 FB        		.byte	-5
 9045 1e55 01        		.byte	1
 9046 1e56 03        		.byte	3
 9047 1e57 02        		.byte	2
 9048 1e58 01        		.byte	1
 9049 1e59 04        		.byte	4
 9050 1e5a 06        		.byte	6
 9051 1e5b 04        		.byte	4
 9052 1e5c FF        		.byte	-1
 9053 1e5d FC        		.byte	-4
 9054 1e5e FC        		.byte	-4
 9055 1e5f FD        		.byte	-3
 9056 1e60 FB        		.byte	-5
 9057 1e61 F8        		.byte	-8
 9058 1e62 F9        		.byte	-7
 9059 1e63 FC        		.byte	-4
 9060 1e64 FF        		.byte	-1
 9061 1e65 00        		.byte	0
 9062 1e66 00        		.byte	0
 9063 1e67 02        		.byte	2
 9064 1e68 05        		.byte	5
 9065 1e69 06        		.byte	6
 9066 1e6a 04        		.byte	4
 9067 1e6b 02        		.byte	2
 9068 1e6c 01        		.byte	1
 9069 1e6d 02        		.byte	2
 9070 1e6e 01        		.byte	1
 9071 1e6f FD        		.byte	-3
 9072 1e70 FB        		.byte	-5
 9073 1e71 FC        		.byte	-4
 9074 1e72 FD        		.byte	-3
GAS LISTING /tmp/ccEQRkCa.s 			page 163


 9075 1e73 FD        		.byte	-3
 9076 1e74 FD        		.byte	-3
 9077 1e75 FD        		.byte	-3
 9078 1e76 00        		.byte	0
 9079 1e77 02        		.byte	2
 9080 1e78 02        		.byte	2
 9081 1e79 02        		.byte	2
 9082 1e7a 02        		.byte	2
 9083 1e7b 02        		.byte	2
 9084 1e7c 02        		.byte	2
 9085 1e7d 01        		.byte	1
 9086 1e7e FE        		.byte	-2
 9087 1e7f FD        		.byte	-3
 9088 1e80 FC        		.byte	-4
 9089 1e81 F9        		.byte	-7
 9090 1e82 F8        		.byte	-8
 9091 1e83 F8        		.byte	-8
 9092 1e84 F7        		.byte	-9
 9093 1e85 F4        		.byte	-12
 9094 1e86 F4        		.byte	-12
 9095 1e87 F7        		.byte	-9
 9096 1e88 F9        		.byte	-7
 9097 1e89 F7        		.byte	-9
 9098 1e8a F8        		.byte	-8
 9099 1e8b FD        		.byte	-3
 9100 1e8c FF        		.byte	-1
 9101 1e8d FE        		.byte	-2
 9102 1e8e FE        		.byte	-2
 9103 1e8f FF        		.byte	-1
 9104 1e90 01        		.byte	1
 9105 1e91 01        		.byte	1
 9106 1e92 00        		.byte	0
 9107 1e93 01        		.byte	1
 9108 1e94 02        		.byte	2
 9109 1e95 03        		.byte	3
 9110 1e96 04        		.byte	4
 9111 1e97 05        		.byte	5
 9112 1e98 06        		.byte	6
 9113 1e99 07        		.byte	7
 9114 1e9a 08        		.byte	8
 9115 1e9b 09        		.byte	9
 9116 1e9c 09        		.byte	9
 9117 1e9d 0A        		.byte	10
 9118 1e9e 0B        		.byte	11
 9119 1e9f 0B        		.byte	11
 9120 1ea0 0B        		.byte	11
 9121 1ea1 09        		.byte	9
 9122 1ea2 08        		.byte	8
 9123 1ea3 09        		.byte	9
 9124 1ea4 09        		.byte	9
 9125 1ea5 05        		.byte	5
 9126 1ea6 04        		.byte	4
 9127 1ea7 06        		.byte	6
 9128 1ea8 05        		.byte	5
 9129 1ea9 04        		.byte	4
 9130 1eaa 04        		.byte	4
 9131 1eab 05        		.byte	5
GAS LISTING /tmp/ccEQRkCa.s 			page 164


 9132 1eac 05        		.byte	5
 9133 1ead 04        		.byte	4
 9134 1eae 05        		.byte	5
 9135 1eaf 06        		.byte	6
 9136 1eb0 05        		.byte	5
 9137 1eb1 04        		.byte	4
 9138 1eb2 04        		.byte	4
 9139 1eb3 05        		.byte	5
 9140 1eb4 05        		.byte	5
 9141 1eb5 04        		.byte	4
 9142 1eb6 05        		.byte	5
 9143 1eb7 05        		.byte	5
 9144 1eb8 05        		.byte	5
 9145 1eb9 07        		.byte	7
 9146 1eba 08        		.byte	8
 9147 1ebb 08        		.byte	8
 9148 1ebc 0A        		.byte	10
 9149 1ebd 0C        		.byte	12
 9150 1ebe 0E        		.byte	14
 9151 1ebf 11        		.byte	17
 9152 1ec0 09        		.byte	9
 9153 1ec1 FE        		.byte	-2
 9154 1ec2 03        		.byte	3
 9155 1ec3 07        		.byte	7
 9156 1ec4 FB        		.byte	-5
 9157 1ec5 F0        		.byte	-16
 9158 1ec6 F1        		.byte	-15
 9159 1ec7 F6        		.byte	-10
 9160 1ec8 F7        		.byte	-9
 9161 1ec9 EF        		.byte	-17
 9162 1eca EE        		.byte	-18
 9163 1ecb F7        		.byte	-9
 9164 1ecc FD        		.byte	-3
 9165 1ecd FC        		.byte	-4
 9166 1ece FD        		.byte	-3
 9167 1ecf FE        		.byte	-2
 9168 1ed0 03        		.byte	3
 9169 1ed1 07        		.byte	7
 9170 1ed2 04        		.byte	4
 9171 1ed3 01        		.byte	1
 9172 1ed4 00        		.byte	0
 9173 1ed5 00        		.byte	0
 9174 1ed6 00        		.byte	0
 9175 1ed7 FB        		.byte	-5
 9176 1ed8 F6        		.byte	-10
 9177 1ed9 F6        		.byte	-10
 9178 1eda F9        		.byte	-7
 9179 1edb F8        		.byte	-8
 9180 1edc F6        		.byte	-10
 9181 1edd F6        		.byte	-10
 9182 1ede F9        		.byte	-7
 9183 1edf FE        		.byte	-2
 9184 1ee0 FF        		.byte	-1
 9185 1ee1 FE        		.byte	-2
 9186 1ee2 00        		.byte	0
 9187 1ee3 03        		.byte	3
 9188 1ee4 05        		.byte	5
GAS LISTING /tmp/ccEQRkCa.s 			page 165


 9189 1ee5 04        		.byte	4
 9190 1ee6 01        		.byte	1
 9191 1ee7 01        		.byte	1
 9192 1ee8 02        		.byte	2
 9193 1ee9 01        		.byte	1
 9194 1eea FE        		.byte	-2
 9195 1eeb FC        		.byte	-4
 9196 1eec FB        		.byte	-5
 9197 1eed FC        		.byte	-4
 9198 1eee FB        		.byte	-5
 9199 1eef FA        		.byte	-6
 9200 1ef0 FA        		.byte	-6
 9201 1ef1 FD        		.byte	-3
 9202 1ef2 FE        		.byte	-2
 9203 1ef3 FF        		.byte	-1
 9204 1ef4 FF        		.byte	-1
 9205 1ef5 00        		.byte	0
 9206 1ef6 03        		.byte	3
 9207 1ef7 02        		.byte	2
 9208 1ef8 02        		.byte	2
 9209 1ef9 03        		.byte	3
 9210 1efa 01        		.byte	1
 9211 1efb 01        		.byte	1
 9212 1efc 01        		.byte	1
 9213 1efd FF        		.byte	-1
 9214 1efe FD        		.byte	-3
 9215 1eff FC        		.byte	-4
 9216 1f00 FC        		.byte	-4
 9217 1f01 FC        		.byte	-4
 9218 1f02 FA        		.byte	-6
 9219 1f03 F7        		.byte	-9
 9220 1f04 F7        		.byte	-9
 9221 1f05 F8        		.byte	-8
 9222 1f06 F8        		.byte	-8
 9223 1f07 F6        		.byte	-10
 9224 1f08 F4        		.byte	-12
 9225 1f09 F6        		.byte	-10
 9226 1f0a F8        		.byte	-8
 9227 1f0b F8        		.byte	-8
 9228 1f0c F7        		.byte	-9
 9229 1f0d F9        		.byte	-7
 9230 1f0e FC        		.byte	-4
 9231 1f0f FC        		.byte	-4
 9232 1f10 FC        		.byte	-4
 9233 1f11 FD        		.byte	-3
 9234 1f12 00        		.byte	0
 9235 1f13 01        		.byte	1
 9236 1f14 01        		.byte	1
 9237 1f15 02        		.byte	2
 9238 1f16 03        		.byte	3
 9239 1f17 05        		.byte	5
 9240 1f18 05        		.byte	5
 9241 1f19 05        		.byte	5
 9242 1f1a 06        		.byte	6
 9243 1f1b 07        		.byte	7
 9244 1f1c 07        		.byte	7
 9245 1f1d 08        		.byte	8
GAS LISTING /tmp/ccEQRkCa.s 			page 166


 9246 1f1e 08        		.byte	8
 9247 1f1f 09        		.byte	9
 9248 1f20 0A        		.byte	10
 9249 1f21 09        		.byte	9
 9250 1f22 09        		.byte	9
 9251 1f23 0A        		.byte	10
 9252 1f24 09        		.byte	9
 9253 1f25 08        		.byte	8
 9254 1f26 09        		.byte	9
 9255 1f27 08        		.byte	8
 9256 1f28 08        		.byte	8
 9257 1f29 07        		.byte	7
 9258 1f2a 06        		.byte	6
 9259 1f2b 07        		.byte	7
 9260 1f2c 07        		.byte	7
 9261 1f2d 05        		.byte	5
 9262 1f2e 05        		.byte	5
 9263 1f2f 06        		.byte	6
 9264 1f30 05        		.byte	5
 9265 1f31 04        		.byte	4
 9266 1f32 04        		.byte	4
 9267 1f33 05        		.byte	5
 9268 1f34 07        		.byte	7
 9269 1f35 06        		.byte	6
 9270 1f36 05        		.byte	5
 9271 1f37 08        		.byte	8
 9272 1f38 0E        		.byte	14
 9273 1f39 0C        		.byte	12
 9274 1f3a 02        		.byte	2
 9275 1f3b 01        		.byte	1
 9276 1f3c 0B        		.byte	11
 9277 1f3d 08        		.byte	8
 9278 1f3e FB        		.byte	-5
 9279 1f3f F6        		.byte	-10
 9280 1f40 FC        		.byte	-4
 9281 1f41 00        		.byte	0
 9282 1f42 F7        		.byte	-9
 9283 1f43 ED        		.byte	-19
 9284 1f44 F2        		.byte	-14
 9285 1f45 FB        		.byte	-5
 9286 1f46 F8        		.byte	-8
 9287 1f47 F2        		.byte	-14
 9288 1f48 F2        		.byte	-14
 9289 1f49 FA        		.byte	-6
 9290 1f4a 00        		.byte	0
 9291 1f4b FC        		.byte	-4
 9292 1f4c F9        		.byte	-7
 9293 1f4d FE        		.byte	-2
 9294 1f4e 03        		.byte	3
 9295 1f4f 03        		.byte	3
 9296 1f50 00        		.byte	0
 9297 1f51 FE        		.byte	-2
 9298 1f52 01        		.byte	1
 9299 1f53 03        		.byte	3
 9300 1f54 00        		.byte	0
 9301 1f55 FD        		.byte	-3
 9302 1f56 FC        		.byte	-4
GAS LISTING /tmp/ccEQRkCa.s 			page 167


 9303 1f57 FD        		.byte	-3
 9304 1f58 FE        		.byte	-2
 9305 1f59 FC        		.byte	-4
 9306 1f5a F9        		.byte	-7
 9307 1f5b F9        		.byte	-7
 9308 1f5c FB        		.byte	-5
 9309 1f5d FC        		.byte	-4
 9310 1f5e FB        		.byte	-5
 9311 1f5f FA        		.byte	-6
 9312 1f60 FC        		.byte	-4
 9313 1f61 FF        		.byte	-1
 9314 1f62 FF        		.byte	-1
 9315 1f63 FE        		.byte	-2
 9316 1f64 FE        		.byte	-2
 9317 1f65 01        		.byte	1
 9318 1f66 03        		.byte	3
 9319 1f67 01        		.byte	1
 9320 1f68 FF        		.byte	-1
 9321 1f69 00        		.byte	0
 9322 1f6a 02        		.byte	2
 9323 1f6b 01        		.byte	1
 9324 1f6c FF        		.byte	-1
 9325 1f6d FE        		.byte	-2
 9326 1f6e FF        		.byte	-1
 9327 1f6f FF        		.byte	-1
 9328 1f70 FD        		.byte	-3
 9329 1f71 FB        		.byte	-5
 9330 1f72 FC        		.byte	-4
 9331 1f73 FD        		.byte	-3
 9332 1f74 FD        		.byte	-3
 9333 1f75 FC        		.byte	-4
 9334 1f76 FB        		.byte	-5
 9335 1f77 FD        		.byte	-3
 9336 1f78 FE        		.byte	-2
 9337 1f79 FD        		.byte	-3
 9338 1f7a FC        		.byte	-4
 9339 1f7b FA        		.byte	-6
 9340 1f7c FB        		.byte	-5
 9341 1f7d FD        		.byte	-3
 9342 1f7e FB        		.byte	-5
 9343 1f7f F8        		.byte	-8
 9344 1f80 F8        		.byte	-8
 9345 1f81 FA        		.byte	-6
 9346 1f82 FB        		.byte	-5
 9347 1f83 F8        		.byte	-8
 9348 1f84 F8        		.byte	-8
 9349 1f85 FB        		.byte	-5
 9350 1f86 FE        		.byte	-2
 9351 1f87 FD        		.byte	-3
 9352 1f88 FC        		.byte	-4
 9353 1f89 FE        		.byte	-2
 9354 1f8a 02        		.byte	2
 9355 1f8b 04        		.byte	4
 9356 1f8c 03        		.byte	3
 9357 1f8d 03        		.byte	3
 9358 1f8e 06        		.byte	6
 9359 1f8f 08        		.byte	8
GAS LISTING /tmp/ccEQRkCa.s 			page 168


 9360 1f90 07        		.byte	7
 9361 1f91 06        		.byte	6
 9362 1f92 07        		.byte	7
 9363 1f93 09        		.byte	9
 9364 1f94 09        		.byte	9
 9365 1f95 07        		.byte	7
 9366 1f96 06        		.byte	6
 9367 1f97 07        		.byte	7
 9368 1f98 08        		.byte	8
 9369 1f99 06        		.byte	6
 9370 1f9a 05        		.byte	5
 9371 1f9b 05        		.byte	5
 9372 1f9c 07        		.byte	7
 9373 1f9d 06        		.byte	6
 9374 1f9e 04        		.byte	4
 9375 1f9f 05        		.byte	5
 9376 1fa0 06        		.byte	6
 9377 1fa1 06        		.byte	6
 9378 1fa2 06        		.byte	6
 9379 1fa3 05        		.byte	5
 9380 1fa4 07        		.byte	7
 9381 1fa5 08        		.byte	8
 9382 1fa6 09        		.byte	9
 9383 1fa7 04        		.byte	4
 9384 1fa8 02        		.byte	2
 9385 1fa9 06        		.byte	6
 9386 1faa 07        		.byte	7
 9387 1fab 00        		.byte	0
 9388 1fac FC        		.byte	-4
 9389 1fad FD        		.byte	-3
 9390 1fae 00        		.byte	0
 9391 1faf FE        		.byte	-2
 9392 1fb0 F6        		.byte	-10
 9393 1fb1 F4        		.byte	-12
 9394 1fb2 FA        		.byte	-6
 9395 1fb3 FB        		.byte	-5
 9396 1fb4 F6        		.byte	-10
 9397 1fb5 F3        		.byte	-13
 9398 1fb6 F6        		.byte	-10
 9399 1fb7 FB        		.byte	-5
 9400 1fb8 FA        		.byte	-6
 9401 1fb9 F6        		.byte	-10
 9402 1fba F7        		.byte	-9
 9403 1fbb FC        		.byte	-4
 9404 1fbc FF        		.byte	-1
 9405 1fbd FC        		.byte	-4
 9406 1fbe FA        		.byte	-6
 9407 1fbf FD        		.byte	-3
 9408 1fc0 01        		.byte	1
 9409 1fc1 00        		.byte	0
 9410 1fc2 FD        		.byte	-3
 9411 1fc3 FD        		.byte	-3
 9412 1fc4 00        		.byte	0
 9413 1fc5 02        		.byte	2
 9414 1fc6 FF        		.byte	-1
 9415 1fc7 FC        		.byte	-4
 9416 1fc8 FE        		.byte	-2
GAS LISTING /tmp/ccEQRkCa.s 			page 169


 9417 1fc9 00        		.byte	0
 9418 1fca FF        		.byte	-1
 9419 1fcb FC        		.byte	-4
 9420 1fcc FC        		.byte	-4
 9421 1fcd FE        		.byte	-2
 9422 1fce FF        		.byte	-1
 9423 1fcf FD        		.byte	-3
 9424 1fd0 FC        		.byte	-4
 9425 1fd1 FD        		.byte	-3
 9426 1fd2 FE        		.byte	-2
 9427 1fd3 FF        		.byte	-1
 9428 1fd4 FE        		.byte	-2
 9429 1fd5 FD        		.byte	-3
 9430 1fd6 FE        		.byte	-2
 9431 1fd7 00        		.byte	0
 9432 1fd8 FF        		.byte	-1
 9433 1fd9 FE        		.byte	-2
 9434 1fda FF        		.byte	-1
 9435 1fdb 00        		.byte	0
 9436 1fdc 01        		.byte	1
 9437 1fdd 00        		.byte	0
 9438 1fde FF        		.byte	-1
 9439 1fdf 00        		.byte	0
 9440 1fe0 00        		.byte	0
 9441 1fe1 00        		.byte	0
 9442 1fe2 FF        		.byte	-1
 9443 1fe3 FF        		.byte	-1
 9444 1fe4 FF        		.byte	-1
 9445 1fe5 00        		.byte	0
 9446 1fe6 FF        		.byte	-1
 9447 1fe7 FE        		.byte	-2
 9448 1fe8 FE        		.byte	-2
 9449 1fe9 FF        		.byte	-1
 9450 1fea FF        		.byte	-1
 9451 1feb FE        		.byte	-2
 9452 1fec FE        		.byte	-2
 9453 1fed FF        		.byte	-1
 9454 1fee FF        		.byte	-1
 9455 1fef FF        		.byte	-1
 9456 1ff0 FE        		.byte	-2
 9457 1ff1 FE        		.byte	-2
 9458 1ff2 FF        		.byte	-1
 9459 1ff3 FF        		.byte	-1
 9460 1ff4 FF        		.byte	-1
 9461 1ff5 FF        		.byte	-1
 9462 1ff6 FF        		.byte	-1
 9463 1ff7 00        		.byte	0
 9464 1ff8 00        		.byte	0
 9465 1ff9 FF        		.byte	-1
 9466 1ffa FF        		.byte	-1
 9467 1ffb FF        		.byte	-1
 9468 1ffc 00        		.byte	0
 9469 1ffd FF        		.byte	-1
 9470 1ffe FF        		.byte	-1
 9471 1fff FF        		.byte	-1
 9472 2000 FF        		.byte	-1
 9473 2001 FF        		.byte	-1
GAS LISTING /tmp/ccEQRkCa.s 			page 170


 9474 2002 FE        		.byte	-2
 9475 2003 FE        		.byte	-2
 9476 2004 FF        		.byte	-1
 9477 2005 FF        		.byte	-1
 9478 2006 FE        		.byte	-2
 9479 2007 FD        		.byte	-3
 9480 2008 FD        		.byte	-3
 9481 2009 FE        		.byte	-2
 9482 200a FD        		.byte	-3
 9483 200b FC        		.byte	-4
 9484 200c FC        		.byte	-4
 9485 200d FD        		.byte	-3
 9486 200e FD        		.byte	-3
 9487 200f FD        		.byte	-3
 9488 2010 FC        		.byte	-4
 9489 2011 FD        		.byte	-3
 9490 2012 FE        		.byte	-2
 9491 2013 FE        		.byte	-2
 9492 2014 FE        		.byte	-2
 9493 2015 FE        		.byte	-2
 9494 2016 FF        		.byte	-1
 9495 2017 00        		.byte	0
 9496 2018 FF        		.byte	-1
 9497 2019 FF        		.byte	-1
 9498 201a 00        		.byte	0
 9499 201b 01        		.byte	1
 9500 201c 01        		.byte	1
 9501 201d 00        		.byte	0
 9502 201e 01        		.byte	1
 9503 201f 02        		.byte	2
 9504 2020 02        		.byte	2
 9505 2021 01        		.byte	1
 9506 2022 01        		.byte	1
 9507 2023 02        		.byte	2
 9508 2024 03        		.byte	3
 9509 2025 02        		.byte	2
 9510 2026 02        		.byte	2
 9511 2027 02        		.byte	2
 9512 2028 03        		.byte	3
 9513 2029 03        		.byte	3
 9514 202a 02        		.byte	2
 9515 202b 02        		.byte	2
 9516 202c 03        		.byte	3
 9517 202d 03        		.byte	3
 9518 202e 03        		.byte	3
 9519 202f 02        		.byte	2
 9520 2030 03        		.byte	3
 9521 2031 03        		.byte	3
 9522 2032 03        		.byte	3
 9523 2033 03        		.byte	3
 9524 2034 03        		.byte	3
 9525 2035 02        		.byte	2
 9526 2036 02        		.byte	2
 9527 2037 03        		.byte	3
 9528 2038 02        		.byte	2
 9529 2039 01        		.byte	1
 9530 203a 00        		.byte	0
GAS LISTING /tmp/ccEQRkCa.s 			page 171


 9531 203b 00        		.byte	0
 9532 203c 01        		.byte	1
 9533 203d FF        		.byte	-1
 9534 203e FE        		.byte	-2
 9535 203f FD        		.byte	-3
 9536 2040 FE        		.byte	-2
 9537 2041 FE        		.byte	-2
 9538 2042 FD        		.byte	-3
 9539 2043 FB        		.byte	-5
 9540 2044 FC        		.byte	-4
 9541 2045 FD        		.byte	-3
 9542 2046 FD        		.byte	-3
 9543 2047 FB        		.byte	-5
 9544 2048 FB        		.byte	-5
 9545 2049 FC        		.byte	-4
 9546 204a FD        		.byte	-3
 9547 204b FC        		.byte	-4
 9548 204c FC        		.byte	-4
 9549 204d FC        		.byte	-4
 9550 204e FE        		.byte	-2
 9551 204f FE        		.byte	-2
 9552 2050 FD        		.byte	-3
 9553 2051 FD        		.byte	-3
 9554 2052 FF        		.byte	-1
 9555 2053 00        		.byte	0
 9556 2054 FF        		.byte	-1
 9557 2055 FF        		.byte	-1
 9558 2056 FF        		.byte	-1
 9559 2057 00        		.byte	0
 9560 2058 01        		.byte	1
 9561 2059 00        		.byte	0
 9562 205a FF        		.byte	-1
 9563 205b 00        		.byte	0
 9564 205c 01        		.byte	1
 9565 205d 01        		.byte	1
 9566 205e 00        		.byte	0
 9567 205f 00        		.byte	0
 9568 2060 01        		.byte	1
 9569 2061 01        		.byte	1
 9570 2062 00        		.byte	0
 9571 2063 00        		.byte	0
 9572 2064 00        		.byte	0
 9573 2065 01        		.byte	1
 9574 2066 00        		.byte	0
 9575 2067 00        		.byte	0
 9576 2068 00        		.byte	0
 9577 2069 00        		.byte	0
 9578 206a 00        		.byte	0
 9579 206b 00        		.byte	0
 9580 206c FF        		.byte	-1
 9581 206d 00        		.byte	0
 9582 206e 00        		.byte	0
 9583 206f 00        		.byte	0
 9584 2070 FF        		.byte	-1
 9585 2071 FF        		.byte	-1
 9586 2072 00        		.byte	0
 9587 2073 00        		.byte	0
GAS LISTING /tmp/ccEQRkCa.s 			page 172


 9588 2074 00        		.byte	0
 9589 2075 FF        		.byte	-1
 9590 2076 FF        		.byte	-1
 9591 2077 00        		.byte	0
 9592 2078 00        		.byte	0
 9593 2079 FF        		.byte	-1
 9594 207a FF        		.byte	-1
 9595 207b FF        		.byte	-1
 9596 207c 00        		.byte	0
 9597 207d FF        		.byte	-1
 9598 207e FF        		.byte	-1
 9599 207f FF        		.byte	-1
 9600 2080 00        		.byte	0
 9601 2081 FF        		.byte	-1
 9602 2082 FF        		.byte	-1
 9603 2083 FF        		.byte	-1
 9604 2084 FF        		.byte	-1
 9605 2085 00        		.byte	0
 9606 2086 FF        		.byte	-1
 9607 2087 FF        		.byte	-1
 9608 2088 FF        		.byte	-1
 9609 2089 FF        		.byte	-1
 9610 208a FF        		.byte	-1
 9611 208b FF        		.byte	-1
 9612 208c FE        		.byte	-2
 9613 208d FF        		.byte	-1
 9614 208e FF        		.byte	-1
 9615 208f FE        		.byte	-2
 9616 2090 FE        		.byte	-2
 9617 2091 FE        		.byte	-2
 9618 2092 FE        		.byte	-2
 9619 2093 FE        		.byte	-2
 9620 2094 FD        		.byte	-3
 9621 2095 FD        		.byte	-3
 9622 2096 FD        		.byte	-3
 9623 2097 FD        		.byte	-3
 9624 2098 FD        		.byte	-3
 9625 2099 FD        		.byte	-3
 9626 209a FD        		.byte	-3
 9627 209b FD        		.byte	-3
 9628 209c FD        		.byte	-3
 9629 209d FD        		.byte	-3
 9630 209e FD        		.byte	-3
 9631 209f FE        		.byte	-2
 9632 20a0 FE        		.byte	-2
 9633 20a1 FF        		.byte	-1
 9634 20a2 FF        		.byte	-1
 9635 20a3 FF        		.byte	-1
 9636 20a4 00        		.byte	0
 9637 20a5 00        		.byte	0
 9638 20a6 00        		.byte	0
 9639 20a7 00        		.byte	0
 9640 20a8 01        		.byte	1
 9641 20a9 01        		.byte	1
 9642 20aa 01        		.byte	1
 9643 20ab 01        		.byte	1
 9644 20ac 01        		.byte	1
GAS LISTING /tmp/ccEQRkCa.s 			page 173


 9645 20ad 01        		.byte	1
 9646 20ae 02        		.byte	2
 9647 20af 01        		.byte	1
 9648 20b0 01        		.byte	1
 9649 20b1 02        		.byte	2
 9650 20b2 02        		.byte	2
 9651 20b3 02        		.byte	2
 9652 20b4 02        		.byte	2
 9653 20b5 02        		.byte	2
 9654 20b6 02        		.byte	2
 9655 20b7 02        		.byte	2
 9656 20b8 02        		.byte	2
 9657 20b9 02        		.byte	2
 9658 20ba 03        		.byte	3
 9659 20bb 02        		.byte	2
 9660 20bc 02        		.byte	2
 9661 20bd 02        		.byte	2
 9662 20be 02        		.byte	2
 9663 20bf 02        		.byte	2
 9664 20c0 01        		.byte	1
 9665 20c1 00        		.byte	0
 9666 20c2 00        		.byte	0
 9667 20c3 00        		.byte	0
 9668 20c4 FF        		.byte	-1
 9669 20c5 FE        		.byte	-2
 9670 20c6 FD        		.byte	-3
 9671 20c7 FD        		.byte	-3
 9672 20c8 FD        		.byte	-3
 9673 20c9 FC        		.byte	-4
 9674 20ca FB        		.byte	-5
 9675 20cb FC        		.byte	-4
 9676 20cc FC        		.byte	-4
 9677 20cd FB        		.byte	-5
 9678 20ce FB        		.byte	-5
 9679 20cf FB        		.byte	-5
 9680 20d0 FB        		.byte	-5
 9681 20d1 FC        		.byte	-4
 9682 20d2 FB        		.byte	-5
 9683 20d3 FB        		.byte	-5
 9684 20d4 FC        		.byte	-4
 9685 20d5 FC        		.byte	-4
 9686 20d6 FD        		.byte	-3
 9687 20d7 FC        		.byte	-4
 9688 20d8 FC        		.byte	-4
 9689 20d9 FD        		.byte	-3
 9690 20da FE        		.byte	-2
 9691 20db FE        		.byte	-2
 9692 20dc FE        		.byte	-2
 9693 20dd FE        		.byte	-2
 9694 20de FF        		.byte	-1
 9695 20df FF        		.byte	-1
 9696 20e0 FF        		.byte	-1
 9697 20e1 FF        		.byte	-1
 9698 20e2 FF        		.byte	-1
 9699 20e3 00        		.byte	0
 9700 20e4 00        		.byte	0
 9701 20e5 FF        		.byte	-1
GAS LISTING /tmp/ccEQRkCa.s 			page 174


 9702 20e6 FF        		.byte	-1
 9703 20e7 00        		.byte	0
 9704 20e8 00        		.byte	0
 9705 20e9 00        		.byte	0
 9706 20ea FF        		.byte	-1
 9707 20eb 00        		.byte	0
 9708 20ec 00        		.byte	0
 9709 20ed 00        		.byte	0
 9710 20ee FF        		.byte	-1
 9711 20ef FF        		.byte	-1
 9712 20f0 00        		.byte	0
 9713 20f1 00        		.byte	0
 9714 20f2 FF        		.byte	-1
 9715 20f3 FF        		.byte	-1
 9716 20f4 FF        		.byte	-1
 9717 20f5 FF        		.byte	-1
 9718 20f6 FF        		.byte	-1
 9719 20f7 FF        		.byte	-1
 9720 20f8 FF        		.byte	-1
 9721 20f9 FF        		.byte	-1
 9722 20fa FF        		.byte	-1
 9723 20fb FF        		.byte	-1
 9724 20fc FF        		.byte	-1
 9725 20fd FF        		.byte	-1
 9726 20fe FF        		.byte	-1
 9727 20ff FF        		.byte	-1
 9728 2100 FF        		.byte	-1
 9729 2101 FE        		.byte	-2
 9730 2102 FF        		.byte	-1
 9731 2103 FF        		.byte	-1
 9732 2104 FF        		.byte	-1
 9733 2105 FE        		.byte	-2
 9734 2106 FF        		.byte	-1
 9735 2107 FF        		.byte	-1
 9736 2108 FF        		.byte	-1
 9737 2109 FE        		.byte	-2
 9738 210a FE        		.byte	-2
 9739 210b FE        		.byte	-2
 9740 210c FE        		.byte	-2
 9741 210d FE        		.byte	-2
 9742 210e FE        		.byte	-2
 9743 210f FD        		.byte	-3
 9744 2110 FD        		.byte	-3
 9745 2111 FD        		.byte	-3
 9746 2112 FD        		.byte	-3
 9747 2113 FC        		.byte	-4
 9748 2114 FC        		.byte	-4
 9749 2115 FC        		.byte	-4
 9750 2116 FC        		.byte	-4
 9751 2117 FC        		.byte	-4
 9752 2118 FC        		.byte	-4
 9753 2119 FD        		.byte	-3
 9754 211a FD        		.byte	-3
 9755 211b FD        		.byte	-3
 9756 211c FD        		.byte	-3
 9757 211d FE        		.byte	-2
 9758 211e FE        		.byte	-2
GAS LISTING /tmp/ccEQRkCa.s 			page 175


 9759 211f FE        		.byte	-2
 9760 2120 FF        		.byte	-1
 9761 2121 FF        		.byte	-1
 9762 2122 00        		.byte	0
 9763 2123 00        		.byte	0
 9764 2124 00        		.byte	0
 9765 2125 00        		.byte	0
 9766 2126 01        		.byte	1
 9767 2127 01        		.byte	1
 9768 2128 02        		.byte	2
 9769 2129 02        		.byte	2
 9770 212a 02        		.byte	2
 9771 212b 02        		.byte	2
 9772 212c 02        		.byte	2
 9773 212d 02        		.byte	2
 9774 212e 02        		.byte	2
 9775 212f 02        		.byte	2
 9776 2130 02        		.byte	2
 9777 2131 02        		.byte	2
 9778 2132 02        		.byte	2
 9779 2133 02        		.byte	2
 9780 2134 03        		.byte	3
 9781 2135 03        		.byte	3
 9782 2136 03        		.byte	3
 9783 2137 03        		.byte	3
 9784 2138 02        		.byte	2
 9785 2139 02        		.byte	2
 9786 213a 02        		.byte	2
 9787 213b 02        		.byte	2
 9788 213c 01        		.byte	1
 9789 213d 00        		.byte	0
 9790 213e 00        		.byte	0
 9791 213f 00        		.byte	0
 9792 2140 FF        		.byte	-1
 9793 2141 FE        		.byte	-2
 9794 2142 FE        		.byte	-2
 9795 2143 FD        		.byte	-3
 9796 2144 FD        		.byte	-3
 9797 2145 FC        		.byte	-4
 9798 2146 FC        		.byte	-4
 9799 2147 FC        		.byte	-4
 9800 2148 FC        		.byte	-4
 9801 2149 FC        		.byte	-4
 9802 214a FB        		.byte	-5
 9803 214b FB        		.byte	-5
 9804 214c FB        		.byte	-5
 9805 214d FC        		.byte	-4
 9806 214e FC        		.byte	-4
 9807 214f FB        		.byte	-5
 9808 2150 FC        		.byte	-4
 9809 2151 FC        		.byte	-4
 9810 2152 FD        		.byte	-3
 9811 2153 FD        		.byte	-3
 9812 2154 FD        		.byte	-3
 9813 2155 FD        		.byte	-3
 9814 2156 FE        		.byte	-2
 9815 2157 FE        		.byte	-2
GAS LISTING /tmp/ccEQRkCa.s 			page 176


 9816 2158 FE        		.byte	-2
 9817 2159 FF        		.byte	-1
 9818 215a FF        		.byte	-1
 9819 215b 00        		.byte	0
 9820 215c 00        		.byte	0
 9821 215d FF        		.byte	-1
 9822 215e 00        		.byte	0
 9823 215f 00        		.byte	0
 9824 2160 00        		.byte	0
 9825 2161 00        		.byte	0
 9826 2162 00        		.byte	0
 9827 2163 00        		.byte	0
 9828 2164 00        		.byte	0
 9829 2165 00        		.byte	0
 9830 2166 00        		.byte	0
 9831 2167 00        		.byte	0
 9832 2168 00        		.byte	0
 9833 2169 00        		.byte	0
 9834 216a 00        		.byte	0
 9835 216b 00        		.byte	0
 9836 216c 00        		.byte	0
 9837 216d 00        		.byte	0
 9838 216e 00        		.byte	0
 9839 216f FF        		.byte	-1
 9840 2170 FF        		.byte	-1
 9841 2171 00        		.byte	0
 9842 2172 00        		.byte	0
 9843 2173 FF        		.byte	-1
 9844 2174 FF        		.byte	-1
 9845 2175 FF        		.byte	-1
 9846 2176 FF        		.byte	-1
 9847 2177 FF        		.byte	-1
 9848 2178 FF        		.byte	-1
 9849 2179 FF        		.byte	-1
 9850 217a FF        		.byte	-1
 9851 217b FF        		.byte	-1
 9852 217c FF        		.byte	-1
 9853 217d FF        		.byte	-1
 9854 217e FF        		.byte	-1
 9855 217f FF        		.byte	-1
 9856 2180 FF        		.byte	-1
 9857 2181 FF        		.byte	-1
 9858 2182 FF        		.byte	-1
 9859 2183 FF        		.byte	-1
 9860 2184 FF        		.byte	-1
 9861 2185 FF        		.byte	-1
 9862 2186 FF        		.byte	-1
 9863 2187 FF        		.byte	-1
 9864 2188 FF        		.byte	-1
 9865 2189 FF        		.byte	-1
 9866 218a FE        		.byte	-2
 9867 218b FE        		.byte	-2
 9868 218c FE        		.byte	-2
 9869 218d FE        		.byte	-2
 9870 218e FE        		.byte	-2
 9871 218f FE        		.byte	-2
 9872 2190 FD        		.byte	-3
GAS LISTING /tmp/ccEQRkCa.s 			page 177


 9873 2191 FD        		.byte	-3
 9874 2192 FD        		.byte	-3
 9875 2193 FD        		.byte	-3
 9876 2194 FD        		.byte	-3
 9877 2195 FD        		.byte	-3
 9878 2196 FE        		.byte	-2
 9879 2197 FE        		.byte	-2
 9880 2198 FE        		.byte	-2
 9881 2199 FE        		.byte	-2
 9882 219a FF        		.byte	-1
 9883 219b FF        		.byte	-1
 9884 219c FF        		.byte	-1
 9885 219d 00        		.byte	0
 9886 219e 00        		.byte	0
 9887 219f 00        		.byte	0
 9888 21a0 00        		.byte	0
 9889 21a1 01        		.byte	1
 9890 21a2 01        		.byte	1
 9891 21a3 01        		.byte	1
 9892 21a4 01        		.byte	1
 9893 21a5 02        		.byte	2
 9894 21a6 02        		.byte	2
 9895 21a7 02        		.byte	2
 9896 21a8 02        		.byte	2
 9897 21a9 02        		.byte	2
 9898 21aa 02        		.byte	2
 9899 21ab 02        		.byte	2
 9900 21ac 03        		.byte	3
 9901 21ad 03        		.byte	3
 9902 21ae 03        		.byte	3
 9903 21af 03        		.byte	3
 9904 21b0 03        		.byte	3
 9905 21b1 04        		.byte	4
 9906 21b2 03        		.byte	3
 9907 21b3 03        		.byte	3
 9908 21b4 03        		.byte	3
 9909 21b5 03        		.byte	3
 9910 21b6 03        		.byte	3
 9911 21b7 02        		.byte	2
 9912 21b8 01        		.byte	1
 9913 21b9 01        		.byte	1
 9914 21ba 01        		.byte	1
 9915 21bb 00        		.byte	0
 9916 21bc FF        		.byte	-1
 9917 21bd FF        		.byte	-1
 9918 21be FE        		.byte	-2
 9919 21bf FE        		.byte	-2
 9920 21c0 FD        		.byte	-3
 9921 21c1 FC        		.byte	-4
 9922 21c2 FC        		.byte	-4
 9923 21c3 FC        		.byte	-4
 9924 21c4 FC        		.byte	-4
 9925 21c5 FC        		.byte	-4
 9926 21c6 FB        		.byte	-5
 9927 21c7 FC        		.byte	-4
 9928 21c8 FC        		.byte	-4
 9929 21c9 FC        		.byte	-4
GAS LISTING /tmp/ccEQRkCa.s 			page 178


 9930 21ca FC        		.byte	-4
 9931 21cb FC        		.byte	-4
 9932 21cc FD        		.byte	-3
 9933 21cd FD        		.byte	-3
 9934 21ce FD        		.byte	-3
 9935 21cf FD        		.byte	-3
 9936 21d0 FE        		.byte	-2
 9937 21d1 FE        		.byte	-2
 9938 21d2 FF        		.byte	-1
 9939 21d3 FF        		.byte	-1
 9940 21d4 FF        		.byte	-1
 9941 21d5 FF        		.byte	-1
 9942 21d6 00        		.byte	0
 9943 21d7 00        		.byte	0
 9944 21d8 00        		.byte	0
 9945 21d9 00        		.byte	0
 9946 21da 01        		.byte	1
 9947 21db 01        		.byte	1
 9948 21dc 00        		.byte	0
 9949 21dd 00        		.byte	0
 9950 21de 01        		.byte	1
 9951 21df 01        		.byte	1
 9952 21e0 01        		.byte	1
 9953 21e1 00        		.byte	0
 9954 21e2 00        		.byte	0
 9955 21e3 01        		.byte	1
 9956 21e4 01        		.byte	1
 9957 21e5 00        		.byte	0
 9958 21e6 00        		.byte	0
 9959 21e7 00        		.byte	0
 9960 21e8 00        		.byte	0
 9961 21e9 00        		.byte	0
 9962 21ea 00        		.byte	0
 9963 21eb 00        		.byte	0
 9964 21ec 00        		.byte	0
 9965 21ed 00        		.byte	0
 9966 21ee 00        		.byte	0
 9967 21ef FF        		.byte	-1
 9968 21f0 FF        		.byte	-1
 9969 21f1 00        		.byte	0
 9970 21f2 00        		.byte	0
 9971 21f3 FF        		.byte	-1
 9972 21f4 FF        		.byte	-1
 9973 21f5 00        		.byte	0
 9974 21f6 00        		.byte	0
 9975 21f7 FF        		.byte	-1
 9976 21f8 FF        		.byte	-1
 9977 21f9 FF        		.byte	-1
 9978 21fa 00        		.byte	0
 9979 21fb 00        		.byte	0
 9980 21fc FF        		.byte	-1
 9981 21fd FF        		.byte	-1
 9982 21fe 00        		.byte	0
 9983 21ff 00        		.byte	0
 9984 2200 00        		.byte	0
 9985 2201 FF        		.byte	-1
 9986 2202 00        		.byte	0
GAS LISTING /tmp/ccEQRkCa.s 			page 179


 9987 2203 00        		.byte	0
 9988 2204 FF        		.byte	-1
 9989 2205 FF        		.byte	-1
 9990 2206 FF        		.byte	-1
 9991 2207 FF        		.byte	-1
 9992 2208 FF        		.byte	-1
 9993 2209 FF        		.byte	-1
 9994 220a FE        		.byte	-2
 9995 220b FE        		.byte	-2
 9996 220c FF        		.byte	-1
 9997 220d FE        		.byte	-2
 9998 220e FE        		.byte	-2
 9999 220f FE        		.byte	-2
 10000 2210 FE        		.byte	-2
 10001 2211 FE        		.byte	-2
 10002 2212 FE        		.byte	-2
 10003 2213 FE        		.byte	-2
 10004 2214 FE        		.byte	-2
 10005 2215 FE        		.byte	-2
 10006 2216 FE        		.byte	-2
 10007 2217 FE        		.byte	-2
 10008 2218 FE        		.byte	-2
 10009 2219 FE        		.byte	-2
 10010 221a FF        		.byte	-1
 10011 221b FF        		.byte	-1
 10012 221c FF        		.byte	-1
 10013 221d FF        		.byte	-1
 10014 221e FF        		.byte	-1
 10015 221f 00        		.byte	0
 10016 2220 00        		.byte	0
 10017 2221 00        		.byte	0
 10018 2222 00        		.byte	0
 10019 2223 01        		.byte	1
 10020 2224 01        		.byte	1
 10021 2225 01        		.byte	1
 10022 2226 01        		.byte	1
 10023 2227 02        		.byte	2
 10024 2228 02        		.byte	2
 10025 2229 02        		.byte	2
 10026 222a 02        		.byte	2
 10027 222b 03        		.byte	3
 10028 222c 03        		.byte	3
 10029 222d 03        		.byte	3
 10030 222e 03        		.byte	3
 10031 222f 04        		.byte	4
 10032 2230 04        		.byte	4
 10033 2231 04        		.byte	4
 10034 2232 04        		.byte	4
 10035 2233 04        		.byte	4
 10036 2234 04        		.byte	4
 10037 2235 04        		.byte	4
 10038 2236 03        		.byte	3
 10039 2237 02        		.byte	2
 10040 2238 02        		.byte	2
 10041 2239 02        		.byte	2
 10042 223a 01        		.byte	1
 10043 223b 00        		.byte	0
GAS LISTING /tmp/ccEQRkCa.s 			page 180


 10044 223c FF        		.byte	-1
 10045 223d FF        		.byte	-1
 10046 223e FF        		.byte	-1
 10047 223f FE        		.byte	-2
 10048 2240 FD        		.byte	-3
 10049 2241 FD        		.byte	-3
 10050 2242 FD        		.byte	-3
 10051 2243 FD        		.byte	-3
 10052 2244 FC        		.byte	-4
 10053 2245 FB        		.byte	-5
 10054 2246 FC        		.byte	-4
 10055 2247 FD        		.byte	-3
 10056 2248 FC        		.byte	-4
 10057 2249 FC        		.byte	-4
 10058 224a FC        		.byte	-4
 10059 224b FD        		.byte	-3
 10060 224c FE        		.byte	-2
 10061 224d FD        		.byte	-3
 10062 224e FD        		.byte	-3
 10063 224f FE        		.byte	-2
 10064 2250 FF        		.byte	-1
 10065 2251 FF        		.byte	-1
 10066 2252 FF        		.byte	-1
 10067 2253 FF        		.byte	-1
 10068 2254 00        		.byte	0
 10069 2255 00        		.byte	0
 10070 2256 00        		.byte	0
 10071 2257 00        		.byte	0
 10072 2258 00        		.byte	0
 10073 2259 01        		.byte	1
 10074 225a 01        		.byte	1
 10075 225b 01        		.byte	1
 10076 225c 00        		.byte	0
 10077 225d 01        		.byte	1
 10078 225e 01        		.byte	1
 10079 225f 01        		.byte	1
 10080 2260 00        		.byte	0
 10081 2261 00        		.byte	0
 10082 2262 01        		.byte	1
 10083 2263 01        		.byte	1
 10084 2264 00        		.byte	0
 10085 2265 00        		.byte	0
 10086 2266 00        		.byte	0
 10087 2267 01        		.byte	1
 10088 2268 01        		.byte	1
 10089 2269 00        		.byte	0
 10090 226a 00        		.byte	0
 10091 226b 00        		.byte	0
 10092 226c 01        		.byte	1
 10093 226d 00        		.byte	0
 10094 226e FF        		.byte	-1
 10095 226f 00        		.byte	0
 10096 2270 00        		.byte	0
 10097 2271 00        		.byte	0
 10098 2272 FF        		.byte	-1
 10099 2273 FF        		.byte	-1
 10100 2274 00        		.byte	0
GAS LISTING /tmp/ccEQRkCa.s 			page 181


 10101 2275 00        		.byte	0
 10102 2276 00        		.byte	0
 10103 2277 FF        		.byte	-1
 10104 2278 FF        		.byte	-1
 10105 2279 00        		.byte	0
 10106 227a 00        		.byte	0
 10107 227b FF        		.byte	-1
 10108 227c FF        		.byte	-1
 10109 227d 00        		.byte	0
 10110 227e 00        		.byte	0
 10111 227f 00        		.byte	0
 10112 2280 FF        		.byte	-1
 10113 2281 FF        		.byte	-1
 10114 2282 00        		.byte	0
 10115 2283 00        		.byte	0
 10116 2284 FF        		.byte	-1
 10117 2285 FF        		.byte	-1
 10118 2286 FF        		.byte	-1
 10119 2287 00        		.byte	0
 10120 2288 00        		.byte	0
 10121 2289 FF        		.byte	-1
 10122 228a FF        		.byte	-1
 10123 228b FF        		.byte	-1
 10124 228c FF        		.byte	-1
 10125 228d FF        		.byte	-1
 10126 228e FE        		.byte	-2
 10127 228f FE        		.byte	-2
 10128 2290 FE        		.byte	-2
 10129 2291 FF        		.byte	-1
 10130 2292 FF        		.byte	-1
 10131 2293 FE        		.byte	-2
 10132 2294 FD        		.byte	-3
 10133 2295 FE        		.byte	-2
 10134 2296 FF        		.byte	-1
 10135 2297 FE        		.byte	-2
 10136 2298 FE        		.byte	-2
 10137 2299 FD        		.byte	-3
 10138 229a FE        		.byte	-2
 10139 229b FF        		.byte	-1
 10140 229c FE        		.byte	-2
 10141 229d FE        		.byte	-2
 10142 229e FE        		.byte	-2
 10143 229f FF        		.byte	-1
 10144 22a0 00        		.byte	0
 10145 22a1 FF        		.byte	-1
 10146 22a2 FE        		.byte	-2
 10147 22a3 FF        		.byte	-1
 10148 22a4 00        		.byte	0
 10149 22a5 00        		.byte	0
 10150 22a6 00        		.byte	0
 10151 22a7 FF        		.byte	-1
 10152 22a8 00        		.byte	0
 10153 22a9 01        		.byte	1
 10154 22aa 01        		.byte	1
 10155 22ab 00        		.byte	0
 10156 22ac 01        		.byte	1
 10157 22ad 01        		.byte	1
GAS LISTING /tmp/ccEQRkCa.s 			page 182


 10158 22ae 02        		.byte	2
 10159 22af 02        		.byte	2
 10160 22b0 02        		.byte	2
 10161 22b1 03        		.byte	3
 10162 22b2 04        		.byte	4
 10163 22b3 05        		.byte	5
 10164 22b4 06        		.byte	6
 10165 22b5 03        		.byte	3
 10166 22b6 01        		.byte	1
 10167 22b7 04        		.byte	4
 10168 22b8 07        		.byte	7
 10169 22b9 0D        		.byte	13
 10170 22ba 09        		.byte	9
 10171 22bb 00        		.byte	0
 10172 22bc 03        		.byte	3
 10173 22bd 09        		.byte	9
 10174 22be 03        		.byte	3
 10175 22bf F9        		.byte	-7
 10176 22c0 F8        		.byte	-8
 10177 22c1 FD        		.byte	-3
 10178 22c2 FF        		.byte	-1
 10179 22c3 F6        		.byte	-10
 10180 22c4 EF        		.byte	-17
 10181 22c5 F6        		.byte	-10
 10182 22c6 FD        		.byte	-3
 10183 22c7 F9        		.byte	-7
 10184 22c8 F2        		.byte	-14
 10185 22c9 F3        		.byte	-13
 10186 22ca FD        		.byte	-3
 10187 22cb 01        		.byte	1
 10188 22cc FB        		.byte	-5
 10189 22cd F6        		.byte	-10
 10190 22ce FD        		.byte	-3
 10191 22cf 05        		.byte	5
 10192 22d0 04        		.byte	4
 10193 22d1 FD        		.byte	-3
 10194 22d2 FC        		.byte	-4
 10195 22d3 05        		.byte	5
 10196 22d4 08        		.byte	8
 10197 22d5 02        		.byte	2
 10198 22d6 FC        		.byte	-4
 10199 22d7 FF        		.byte	-1
 10200 22d8 05        		.byte	5
 10201 22d9 04        		.byte	4
 10202 22da FC        		.byte	-4
 10203 22db F9        		.byte	-7
 10204 22dc FF        		.byte	-1
 10205 22dd 01        		.byte	1
 10206 22de FD        		.byte	-3
 10207 22df F8        		.byte	-8
 10208 22e0 F9        		.byte	-7
 10209 22e1 FF        		.byte	-1
 10210 22e2 FF        		.byte	-1
 10211 22e3 FB        		.byte	-5
 10212 22e4 FA        		.byte	-6
 10213 22e5 FE        		.byte	-2
 10214 22e6 01        		.byte	1
GAS LISTING /tmp/ccEQRkCa.s 			page 183


 10215 22e7 00        		.byte	0
 10216 22e8 FD        		.byte	-3
 10217 22e9 FE        		.byte	-2
 10218 22ea 02        		.byte	2
 10219 22eb 02        		.byte	2
 10220 22ec 00        		.byte	0
 10221 22ed FF        		.byte	-1
 10222 22ee 01        		.byte	1
 10223 22ef 03        		.byte	3
 10224 22f0 01        		.byte	1
 10225 22f1 FE        		.byte	-2
 10226 22f2 FF        		.byte	-1
 10227 22f3 00        		.byte	0
 10228 22f4 00        		.byte	0
 10229 22f5 FE        		.byte	-2
 10230 22f6 FD        		.byte	-3
 10231 22f7 FE        		.byte	-2
 10232 22f8 FF        		.byte	-1
 10233 22f9 FE        		.byte	-2
 10234 22fa FD        		.byte	-3
 10235 22fb FD        		.byte	-3
 10236 22fc FE        		.byte	-2
 10237 22fd FE        		.byte	-2
 10238 22fe FD        		.byte	-3
 10239 22ff FD        		.byte	-3
 10240 2300 FF        		.byte	-1
 10241 2301 FF        		.byte	-1
 10242 2302 FE        		.byte	-2
 10243 2303 FF        		.byte	-1
 10244 2304 FF        		.byte	-1
 10245 2305 FF        		.byte	-1
 10246 2306 FF        		.byte	-1
 10247 2307 FF        		.byte	-1
 10248 2308 FF        		.byte	-1
 10249 2309 00        		.byte	0
 10250 230a FF        		.byte	-1
 10251 230b FE        		.byte	-2
 10252 230c FF        		.byte	-1
 10253 230d FF        		.byte	-1
 10254 230e FF        		.byte	-1
 10255 230f FE        		.byte	-2
 10256 2310 FE        		.byte	-2
 10257 2311 FE        		.byte	-2
 10258 2312 FF        		.byte	-1
 10259 2313 FE        		.byte	-2
 10260 2314 FE        		.byte	-2
 10261 2315 FE        		.byte	-2
 10262 2316 FF        		.byte	-1
 10263 2317 FF        		.byte	-1
 10264 2318 FF        		.byte	-1
 10265 2319 FF        		.byte	-1
 10266 231a FF        		.byte	-1
 10267 231b 00        		.byte	0
 10268 231c FF        		.byte	-1
 10269 231d FF        		.byte	-1
 10270 231e FF        		.byte	-1
 10271 231f 00        		.byte	0
GAS LISTING /tmp/ccEQRkCa.s 			page 184


 10272 2320 00        		.byte	0
 10273 2321 FF        		.byte	-1
 10274 2322 FF        		.byte	-1
 10275 2323 FF        		.byte	-1
 10276 2324 FF        		.byte	-1
 10277 2325 FF        		.byte	-1
 10278 2326 FF        		.byte	-1
 10279 2327 FF        		.byte	-1
 10280 2328 FF        		.byte	-1
 10281 2329 FE        		.byte	-2
 10282 232a FE        		.byte	-2
 10283 232b FE        		.byte	-2
 10284 232c FE        		.byte	-2
 10285 232d FF        		.byte	-1
 10286 232e FD        		.byte	-3
 10287 232f FB        		.byte	-5
 10288 2330 FD        		.byte	-3
 10289 2331 FC        		.byte	-4
 10290 2332 FB        		.byte	-5
 10291 2333 FB        		.byte	-5
 10292 2334 FA        		.byte	-6
 10293 2335 FB        		.byte	-5
 10294 2336 FC        		.byte	-4
 10295 2337 FA        		.byte	-6
 10296 2338 FA        		.byte	-6
 10297 2339 FC        		.byte	-4
 10298 233a FC        		.byte	-4
 10299 233b FC        		.byte	-4
 10300 233c FB        		.byte	-5
 10301 233d FA        		.byte	-6
 10302 233e FE        		.byte	-2
 10303 233f FE        		.byte	-2
 10304 2340 FC        		.byte	-4
 10305 2341 FD        		.byte	-3
 10306 2342 FD        		.byte	-3
 10307 2343 FF        		.byte	-1
 10308 2344 FF        		.byte	-1
 10309 2345 FC        		.byte	-4
 10310 2346 FE        		.byte	-2
 10311 2347 00        		.byte	0
 10312 2348 00        		.byte	0
 10313 2349 00        		.byte	0
 10314 234a 00        		.byte	0
 10315 234b 02        		.byte	2
 10316 234c 04        		.byte	4
 10317 234d 04        		.byte	4
 10318 234e 04        		.byte	4
 10319 234f 07        		.byte	7
 10320 2350 08        		.byte	8
 10321 2351 09        		.byte	9
 10322 2352 0B        		.byte	11
 10323 2353 0C        		.byte	12
 10324 2354 0F        		.byte	15
 10325 2355 10        		.byte	16
 10326 2356 10        		.byte	16
 10327 2357 13        		.byte	19
 10328 2358 0A        		.byte	10
GAS LISTING /tmp/ccEQRkCa.s 			page 185


 10329 2359 05        		.byte	5
 10330 235a 0C        		.byte	12
 10331 235b 0B        		.byte	11
 10332 235c 00        		.byte	0
 10333 235d F9        		.byte	-7
 10334 235e F7        		.byte	-9
 10335 235f FE        		.byte	-2
 10336 2360 FC        		.byte	-4
 10337 2361 EF        		.byte	-17
 10338 2362 EE        		.byte	-18
 10339 2363 F7        		.byte	-9
 10340 2364 FA        		.byte	-6
 10341 2365 F7        		.byte	-9
 10342 2366 F2        		.byte	-14
 10343 2367 F6        		.byte	-10
 10344 2368 01        		.byte	1
 10345 2369 02        		.byte	2
 10346 236a FD        		.byte	-3
 10347 236b FF        		.byte	-1
 10348 236c 02        		.byte	2
 10349 236d 06        		.byte	6
 10350 236e 06        		.byte	6
 10351 236f 01        		.byte	1
 10352 2370 01        		.byte	1
 10353 2371 03        		.byte	3
 10354 2372 00        		.byte	0
 10355 2373 FF        		.byte	-1
 10356 2374 FE        		.byte	-2
 10357 2375 FA        		.byte	-6
 10358 2376 FA        		.byte	-6
 10359 2377 FB        		.byte	-5
 10360 2378 FA        		.byte	-6
 10361 2379 FA        		.byte	-6
 10362 237a F8        		.byte	-8
 10363 237b F8        		.byte	-8
 10364 237c FD        		.byte	-3
 10365 237d FE        		.byte	-2
 10366 237e FD        		.byte	-3
 10367 237f FE        		.byte	-2
 10368 2380 00        		.byte	0
 10369 2381 04        		.byte	4
 10370 2382 04        		.byte	4
 10371 2383 01        		.byte	1
 10372 2384 02        		.byte	2
 10373 2385 04        		.byte	4
 10374 2386 04        		.byte	4
 10375 2387 02        		.byte	2
 10376 2388 00        		.byte	0
 10377 2389 FF        		.byte	-1
 10378 238a 01        		.byte	1
 10379 238b FF        		.byte	-1
 10380 238c FD        		.byte	-3
 10381 238d FD        		.byte	-3
 10382 238e FD        		.byte	-3
 10383 238f FD        		.byte	-3
 10384 2390 FE        		.byte	-2
 10385 2391 FE        		.byte	-2
GAS LISTING /tmp/ccEQRkCa.s 			page 186


 10386 2392 FE        		.byte	-2
 10387 2393 FF        		.byte	-1
 10388 2394 00        		.byte	0
 10389 2395 01        		.byte	1
 10390 2396 02        		.byte	2
 10391 2397 01        		.byte	1
 10392 2398 02        		.byte	2
 10393 2399 03        		.byte	3
 10394 239a 03        		.byte	3
 10395 239b 03        		.byte	3
 10396 239c 01        		.byte	1
 10397 239d 01        		.byte	1
 10398 239e 02        		.byte	2
 10399 239f 00        		.byte	0
 10400 23a0 FF        		.byte	-1
 10401 23a1 FF        		.byte	-1
 10402 23a2 FE        		.byte	-2
 10403 23a3 FF        		.byte	-1
 10404 23a4 FF        		.byte	-1
 10405 23a5 FE        		.byte	-2
 10406 23a6 FE        		.byte	-2
 10407 23a7 FF        		.byte	-1
 10408 23a8 FF        		.byte	-1
 10409 23a9 00        		.byte	0
 10410 23aa 00        		.byte	0
 10411 23ab 00        		.byte	0
 10412 23ac 02        		.byte	2
 10413 23ad 02        		.byte	2
 10414 23ae 02        		.byte	2
 10415 23af 02        		.byte	2
 10416 23b0 01        		.byte	1
 10417 23b1 01        		.byte	1
 10418 23b2 02        		.byte	2
 10419 23b3 01        		.byte	1
 10420 23b4 00        		.byte	0
 10421 23b5 00        		.byte	0
 10422 23b6 00        		.byte	0
 10423 23b7 00        		.byte	0
 10424 23b8 FF        		.byte	-1
 10425 23b9 FF        		.byte	-1
 10426 23ba FF        		.byte	-1
 10427 23bb 00        		.byte	0
 10428 23bc 00        		.byte	0
 10429 23bd 00        		.byte	0
 10430 23be 00        		.byte	0
 10431 23bf 01        		.byte	1
 10432 23c0 01        		.byte	1
 10433 23c1 01        		.byte	1
 10434 23c2 01        		.byte	1
 10435 23c3 01        		.byte	1
 10436 23c4 01        		.byte	1
 10437 23c5 01        		.byte	1
 10438 23c6 01        		.byte	1
 10439 23c7 01        		.byte	1
 10440 23c8 00        		.byte	0
 10441 23c9 00        		.byte	0
 10442 23ca 00        		.byte	0
GAS LISTING /tmp/ccEQRkCa.s 			page 187


 10443 23cb 00        		.byte	0
 10444 23cc 00        		.byte	0
 10445 23cd FF        		.byte	-1
 10446 23ce 00        		.byte	0
 10447 23cf 00        		.byte	0
 10448 23d0 00        		.byte	0
 10449 23d1 00        		.byte	0
 10450 23d2 00        		.byte	0
 10451 23d3 00        		.byte	0
 10452 23d4 01        		.byte	1
 10453 23d5 01        		.byte	1
 10454 23d6 01        		.byte	1
 10455 23d7 01        		.byte	1
 10456 23d8 01        		.byte	1
 10457 23d9 01        		.byte	1
 10458 23da 01        		.byte	1
 10459 23db 00        		.byte	0
 10460 23dc 00        		.byte	0
 10461 23dd 00        		.byte	0
 10462 23de 00        		.byte	0
 10463 23df FF        		.byte	-1
 10464 23e0 00        		.byte	0
 10465 23e1 FF        		.byte	-1
 10466 23e2 F9        		.byte	-7
 10467 23e3 FD        		.byte	-3
 10468 23e4 01        		.byte	1
 10469 23e5 F9        		.byte	-7
 10470 23e6 F7        		.byte	-9
 10471 23e7 F8        		.byte	-8
 10472 23e8 FB        		.byte	-5
 10473 23e9 FD        		.byte	-3
 10474 23ea F7        		.byte	-9
 10475 23eb F7        		.byte	-9
 10476 23ec FE        		.byte	-2
 10477 23ed FF        		.byte	-1
 10478 23ee FE        		.byte	-2
 10479 23ef FF        		.byte	-1
 10480 23f0 FF        		.byte	-1
 10481 23f1 02        		.byte	2
 10482 23f2 03        		.byte	3
 10483 23f3 01        		.byte	1
 10484 23f4 03        		.byte	3
 10485 23f5 02        		.byte	2
 10486 23f6 00        		.byte	0
 10487 23f7 03        		.byte	3
 10488 23f8 02        		.byte	2
 10489 23f9 FF        		.byte	-1
 10490 23fa FF        		.byte	-1
 10491 23fb FF        		.byte	-1
 10492 23fc 01        		.byte	1
 10493 23fd 01        		.byte	1
 10494 23fe FE        		.byte	-2
 10495 23ff 00        		.byte	0
 10496 2400 02        		.byte	2
 10497 2401 02        		.byte	2
 10498 2402 03        		.byte	3
 10499 2403 02        		.byte	2
GAS LISTING /tmp/ccEQRkCa.s 			page 188


 10500 2404 03        		.byte	3
 10501 2405 05        		.byte	5
 10502 2406 04        		.byte	4
 10503 2407 05        		.byte	5
 10504 2408 06        		.byte	6
 10505 2409 05        		.byte	5
 10506 240a 05        		.byte	5
 10507 240b 07        		.byte	7
 10508 240c 07        		.byte	7
 10509 240d 07        		.byte	7
 10510 240e 09        		.byte	9
 10511 240f 0B        		.byte	11
 10512 2410 0E        		.byte	14
 10513 2411 0F        		.byte	15
 10514 2412 10        		.byte	16
 10515 2413 11        		.byte	17
 10516 2414 13        		.byte	19
 10517 2415 0F        		.byte	15
 10518 2416 03        		.byte	3
 10519 2417 03        		.byte	3
 10520 2418 07        		.byte	7
 10521 2419 FE        		.byte	-2
 10522 241a F4        		.byte	-12
 10523 241b F2        		.byte	-14
 10524 241c F4        		.byte	-12
 10525 241d F6        		.byte	-10
 10526 241e F2        		.byte	-14
 10527 241f F0        		.byte	-16
 10528 2420 F7        		.byte	-9
 10529 2421 FA        		.byte	-6
 10530 2422 FC        		.byte	-4
 10531 2423 01        		.byte	1
 10532 2424 03        		.byte	3
 10533 2425 03        		.byte	3
 10534 2426 05        		.byte	5
 10535 2427 07        		.byte	7
 10536 2428 07        		.byte	7
 10537 2429 03        		.byte	3
 10538 242a FD        		.byte	-3
 10539 242b F9        		.byte	-7
 10540 242c F9        		.byte	-7
 10541 242d F8        		.byte	-8
 10542 242e F2        		.byte	-14
 10543 242f ED        		.byte	-19
 10544 2430 F0        		.byte	-16
 10545 2431 F5        		.byte	-11
 10546 2432 F7        		.byte	-9
 10547 2433 F7        		.byte	-9
 10548 2434 FA        		.byte	-6
 10549 2435 00        		.byte	0
 10550 2436 05        		.byte	5
 10551 2437 07        		.byte	7
 10552 2438 08        		.byte	8
 10553 2439 08        		.byte	8
 10554 243a 08        		.byte	8
 10555 243b 07        		.byte	7
 10556 243c 06        		.byte	6
GAS LISTING /tmp/ccEQRkCa.s 			page 189


 10557 243d 02        		.byte	2
 10558 243e FD        		.byte	-3
 10559 243f FB        		.byte	-5
 10560 2440 FB        		.byte	-5
 10561 2441 F9        		.byte	-7
 10562 2442 F7        		.byte	-9
 10563 2443 F6        		.byte	-10
 10564 2444 F8        		.byte	-8
 10565 2445 FB        		.byte	-5
 10566 2446 FD        		.byte	-3
 10567 2447 FF        		.byte	-1
 10568 2448 01        		.byte	1
 10569 2449 04        		.byte	4
 10570 244a 06        		.byte	6
 10571 244b 07        		.byte	7
 10572 244c 07        		.byte	7
 10573 244d 06        		.byte	6
 10574 244e 04        		.byte	4
 10575 244f 03        		.byte	3
 10576 2450 02        		.byte	2
 10577 2451 FF        		.byte	-1
 10578 2452 FC        		.byte	-4
 10579 2453 FB        		.byte	-5
 10580 2454 FB        		.byte	-5
 10581 2455 FA        		.byte	-6
 10582 2456 FA        		.byte	-6
 10583 2457 FB        		.byte	-5
 10584 2458 FD        		.byte	-3
 10585 2459 FF        		.byte	-1
 10586 245a 01        		.byte	1
 10587 245b 02        		.byte	2
 10588 245c 03        		.byte	3
 10589 245d 04        		.byte	4
 10590 245e 05        		.byte	5
 10591 245f 05        		.byte	5
 10592 2460 04        		.byte	4
 10593 2461 02        		.byte	2
 10594 2462 00        		.byte	0
 10595 2463 FF        		.byte	-1
 10596 2464 FE        		.byte	-2
 10597 2465 FD        		.byte	-3
 10598 2466 FB        		.byte	-5
 10599 2467 FB        		.byte	-5
 10600 2468 FC        		.byte	-4
 10601 2469 FD        		.byte	-3
 10602 246a FD        		.byte	-3
 10603 246b FE        		.byte	-2
 10604 246c 00        		.byte	0
 10605 246d 01        		.byte	1
 10606 246e 03        		.byte	3
 10607 246f 03        		.byte	3
 10608 2470 03        		.byte	3
 10609 2471 03        		.byte	3
 10610 2472 03        		.byte	3
 10611 2473 02        		.byte	2
 10612 2474 01        		.byte	1
 10613 2475 00        		.byte	0
GAS LISTING /tmp/ccEQRkCa.s 			page 190


 10614 2476 FF        		.byte	-1
 10615 2477 FE        		.byte	-2
 10616 2478 FD        		.byte	-3
 10617 2479 FD        		.byte	-3
 10618 247a FD        		.byte	-3
 10619 247b FD        		.byte	-3
 10620 247c FE        		.byte	-2
 10621 247d FF        		.byte	-1
 10622 247e 00        		.byte	0
 10623 247f FF        		.byte	-1
 10624 2480 00        		.byte	0
 10625 2481 FF        		.byte	-1
 10626 2482 FF        		.byte	-1
 10627 2483 00        		.byte	0
 10628 2484 FC        		.byte	-4
 10629 2485 FA        		.byte	-6
 10630 2486 FE        		.byte	-2
 10631 2487 FB        		.byte	-5
 10632 2488 F9        		.byte	-7
 10633 2489 FB        		.byte	-5
 10634 248a FA        		.byte	-6
 10635 248b FB        		.byte	-5
 10636 248c FC        		.byte	-4
 10637 248d FC        		.byte	-4
 10638 248e FE        		.byte	-2
 10639 248f FE        		.byte	-2
 10640 2490 FE        		.byte	-2
 10641 2491 01        		.byte	1
 10642 2492 00        		.byte	0
 10643 2493 FF        		.byte	-1
 10644 2494 00        		.byte	0
 10645 2495 00        		.byte	0
 10646 2496 FF        		.byte	-1
 10647 2497 FD        		.byte	-3
 10648 2498 FB        		.byte	-5
 10649 2499 FC        		.byte	-4
 10650 249a FC        		.byte	-4
 10651 249b FB        		.byte	-5
 10652 249c FB        		.byte	-5
 10653 249d FA        		.byte	-6
 10654 249e FC        		.byte	-4
 10655 249f FE        		.byte	-2
 10656 24a0 FD        		.byte	-3
 10657 24a1 FF        		.byte	-1
 10658 24a2 00        		.byte	0
 10659 24a3 01        		.byte	1
 10660 24a4 04        		.byte	4
 10661 24a5 04        		.byte	4
 10662 24a6 03        		.byte	3
 10663 24a7 04        		.byte	4
 10664 24a8 04        		.byte	4
 10665 24a9 05        		.byte	5
 10666 24aa 04        		.byte	4
 10667 24ab 03        		.byte	3
 10668 24ac 03        		.byte	3
 10669 24ad 03        		.byte	3
 10670 24ae 04        		.byte	4
GAS LISTING /tmp/ccEQRkCa.s 			page 191


 10671 24af 05        		.byte	5
 10672 24b0 04        		.byte	4
 10673 24b1 04        		.byte	4
 10674 24b2 06        		.byte	6
 10675 24b3 06        		.byte	6
 10676 24b4 06        		.byte	6
 10677 24b5 05        		.byte	5
 10678 24b6 04        		.byte	4
 10679 24b7 05        		.byte	5
 10680 24b8 05        		.byte	5
 10681 24b9 06        		.byte	6
 10682 24ba 06        		.byte	6
 10683 24bb 05        		.byte	5
 10684 24bc 05        		.byte	5
 10685 24bd 07        		.byte	7
 10686 24be 07        		.byte	7
 10687 24bf 07        		.byte	7
 10688 24c0 07        		.byte	7
 10689 24c1 07        		.byte	7
 10690 24c2 08        		.byte	8
 10691 24c3 0A        		.byte	10
 10692 24c4 0B        		.byte	11
 10693 24c5 0B        		.byte	11
 10694 24c6 0A        		.byte	10
 10695 24c7 0B        		.byte	11
 10696 24c8 08        		.byte	8
 10697 24c9 03        		.byte	3
 10698 24ca 03        		.byte	3
 10699 24cb 00        		.byte	0
 10700 24cc FC        		.byte	-4
 10701 24cd FB        		.byte	-5
 10702 24ce F9        		.byte	-7
 10703 24cf F5        		.byte	-11
 10704 24d0 F5        		.byte	-11
 10705 24d1 F5        		.byte	-11
 10706 24d2 F5        		.byte	-11
 10707 24d3 F5        		.byte	-11
 10708 24d4 F4        		.byte	-12
 10709 24d5 F9        		.byte	-7
 10710 24d6 FD        		.byte	-3
 10711 24d7 FC        		.byte	-4
 10712 24d8 FC        		.byte	-4
 10713 24d9 FE        		.byte	-2
 10714 24da 00        		.byte	0
 10715 24db 00        		.byte	0
 10716 24dc FF        		.byte	-1
 10717 24dd FD        		.byte	-3
 10718 24de FC        		.byte	-4
 10719 24df FC        		.byte	-4
 10720 24e0 FD        		.byte	-3
 10721 24e1 FD        		.byte	-3
 10722 24e2 FA        		.byte	-6
 10723 24e3 FB        		.byte	-5
 10724 24e4 FE        		.byte	-2
 10725 24e5 FF        		.byte	-1
 10726 24e6 FF        		.byte	-1
 10727 24e7 FE        		.byte	-2
GAS LISTING /tmp/ccEQRkCa.s 			page 192


 10728 24e8 00        		.byte	0
 10729 24e9 02        		.byte	2
 10730 24ea 01        		.byte	1
 10731 24eb 00        		.byte	0
 10732 24ec 00        		.byte	0
 10733 24ed 00        		.byte	0
 10734 24ee 00        		.byte	0
 10735 24ef FF        		.byte	-1
 10736 24f0 FE        		.byte	-2
 10737 24f1 FE        		.byte	-2
 10738 24f2 FB        		.byte	-5
 10739 24f3 F9        		.byte	-7
 10740 24f4 FC        		.byte	-4
 10741 24f5 FC        		.byte	-4
 10742 24f6 F9        		.byte	-7
 10743 24f7 F8        		.byte	-8
 10744 24f8 FA        		.byte	-6
 10745 24f9 FC        		.byte	-4
 10746 24fa FA        		.byte	-6
 10747 24fb F8        		.byte	-8
 10748 24fc F9        		.byte	-7
 10749 24fd F9        		.byte	-7
 10750 24fe F9        		.byte	-7
 10751 24ff FA        		.byte	-6
 10752 2500 F9        		.byte	-7
 10753 2501 F8        		.byte	-8
 10754 2502 FA        		.byte	-6
 10755 2503 FD        		.byte	-3
 10756 2504 FD        		.byte	-3
 10757 2505 FC        		.byte	-4
 10758 2506 FD        		.byte	-3
 10759 2507 00        		.byte	0
 10760 2508 01        		.byte	1
 10761 2509 00        		.byte	0
 10762 250a 00        		.byte	0
 10763 250b 01        		.byte	1
 10764 250c 03        		.byte	3
 10765 250d 03        		.byte	3
 10766 250e 02        		.byte	2
 10767 250f 03        		.byte	3
 10768 2510 03        		.byte	3
 10769 2511 04        		.byte	4
 10770 2512 04        		.byte	4
 10771 2513 04        		.byte	4
 10772 2514 04        		.byte	4
 10773 2515 04        		.byte	4
 10774 2516 05        		.byte	5
 10775 2517 06        		.byte	6
 10776 2518 05        		.byte	5
 10777 2519 04        		.byte	4
 10778 251a 05        		.byte	5
 10779 251b 05        		.byte	5
 10780 251c 04        		.byte	4
 10781 251d 05        		.byte	5
 10782 251e 07        		.byte	7
 10783 251f 04        		.byte	4
 10784 2520 04        		.byte	4
GAS LISTING /tmp/ccEQRkCa.s 			page 193


 10785 2521 07        		.byte	7
 10786 2522 07        		.byte	7
 10787 2523 05        		.byte	5
 10788 2524 06        		.byte	6
 10789 2525 07        		.byte	7
 10790 2526 07        		.byte	7
 10791 2527 07        		.byte	7
 10792 2528 06        		.byte	6
 10793 2529 08        		.byte	8
 10794 252a 07        		.byte	7
 10795 252b 06        		.byte	6
 10796 252c 09        		.byte	9
 10797 252d 0A        		.byte	10
 10798 252e 07        		.byte	7
 10799 252f 03        		.byte	3
 10800 2530 01        		.byte	1
 10801 2531 04        		.byte	4
 10802 2532 03        		.byte	3
 10803 2533 FE        		.byte	-2
 10804 2534 FD        		.byte	-3
 10805 2535 FE        		.byte	-2
 10806 2536 FE        		.byte	-2
 10807 2537 FF        		.byte	-1
 10808 2538 FD        		.byte	-3
 10809 2539 FB        		.byte	-5
 10810 253a FB        		.byte	-5
 10811 253b FC        		.byte	-4
 10812 253c FE        		.byte	-2
 10813 253d FC        		.byte	-4
 10814 253e FA        		.byte	-6
 10815 253f FB        		.byte	-5
 10816 2540 FB        		.byte	-5
 10817 2541 FB        		.byte	-5
 10818 2542 FA        		.byte	-6
 10819 2543 F9        		.byte	-7
 10820 2544 F9        		.byte	-7
 10821 2545 F9        		.byte	-7
 10822 2546 F9        		.byte	-7
 10823 2547 FA        		.byte	-6
 10824 2548 F9        		.byte	-7
 10825 2549 F9        		.byte	-7
 10826 254a FA        		.byte	-6
 10827 254b FA        		.byte	-6
 10828 254c F9        		.byte	-7
 10829 254d FA        		.byte	-6
 10830 254e FA        		.byte	-6
 10831 254f FA        		.byte	-6
 10832 2550 FA        		.byte	-6
 10833 2551 F9        		.byte	-7
 10834 2552 FA        		.byte	-6
 10835 2553 FA        		.byte	-6
 10836 2554 F9        		.byte	-7
 10837 2555 F9        		.byte	-7
 10838 2556 F8        		.byte	-8
 10839 2557 F8        		.byte	-8
 10840 2558 F8        		.byte	-8
 10841 2559 F9        		.byte	-7
GAS LISTING /tmp/ccEQRkCa.s 			page 194


 10842 255a F9        		.byte	-7
 10843 255b F8        		.byte	-8
 10844 255c FA        		.byte	-6
 10845 255d FB        		.byte	-5
 10846 255e FB        		.byte	-5
 10847 255f FC        		.byte	-4
 10848 2560 FC        		.byte	-4
 10849 2561 FD        		.byte	-3
 10850 2562 FD        		.byte	-3
 10851 2563 FE        		.byte	-2
 10852 2564 FE        		.byte	-2
 10853 2565 FE        		.byte	-2
 10854 2566 FF        		.byte	-1
 10855 2567 00        		.byte	0
 10856 2568 01        		.byte	1
 10857 2569 00        		.byte	0
 10858 256a 00        		.byte	0
 10859 256b 00        		.byte	0
 10860 256c 00        		.byte	0
 10861 256d 01        		.byte	1
 10862 256e 01        		.byte	1
 10863 256f 00        		.byte	0
 10864 2570 01        		.byte	1
 10865 2571 02        		.byte	2
 10866 2572 03        		.byte	3
 10867 2573 02        		.byte	2
 10868 2574 02        		.byte	2
 10869 2575 02        		.byte	2
 10870 2576 03        		.byte	3
 10871 2577 05        		.byte	5
 10872 2578 05        		.byte	5
 10873 2579 04        		.byte	4
 10874 257a 05        		.byte	5
 10875 257b 07        		.byte	7
 10876 257c 07        		.byte	7
 10877 257d 05        		.byte	5
 10878 257e 05        		.byte	5
 10879 257f 05        		.byte	5
 10880 2580 05        		.byte	5
 10881 2581 05        		.byte	5
 10882 2582 04        		.byte	4
 10883 2583 03        		.byte	3
 10884 2584 04        		.byte	4
 10885 2585 05        		.byte	5
 10886 2586 05        		.byte	5
 10887 2587 05        		.byte	5
 10888 2588 06        		.byte	6
 10889 2589 06        		.byte	6
 10890 258a 06        		.byte	6
 10891 258b 08        		.byte	8
 10892 258c 05        		.byte	5
 10893 258d 04        		.byte	4
 10894 258e 08        		.byte	8
 10895 258f 05        		.byte	5
 10896 2590 01        		.byte	1
 10897 2591 04        		.byte	4
 10898 2592 05        		.byte	5
GAS LISTING /tmp/ccEQRkCa.s 			page 195


 10899 2593 01        		.byte	1
 10900 2594 00        		.byte	0
 10901 2595 03        		.byte	3
 10902 2596 06        		.byte	6
 10903 2597 00        		.byte	0
 10904 2598 FE        		.byte	-2
 10905 2599 02        		.byte	2
 10906 259a FF        		.byte	-1
 10907 259b FD        		.byte	-3
 10908 259c FE        		.byte	-2
 10909 259d FC        		.byte	-4
 10910 259e F3        		.byte	-13
 10911 259f ED        		.byte	-19
 10912 25a0 F2        		.byte	-14
 10913 25a1 F2        		.byte	-14
 10914 25a2 E9        		.byte	-23
 10915 25a3 EA        		.byte	-22
 10916 25a4 ED        		.byte	-19
 10917 25a5 EE        		.byte	-18
 10918 25a6 F3        		.byte	-13
 10919 25a7 F3        		.byte	-13
 10920 25a8 F2        		.byte	-14
 10921 25a9 F2        		.byte	-14
 10922 25aa F6        		.byte	-10
 10923 25ab FA        		.byte	-6
 10924 25ac F8        		.byte	-8
 10925 25ad F4        		.byte	-12
 10926 25ae F7        		.byte	-9
 10927 25af FA        		.byte	-6
 10928 25b0 FA        		.byte	-6
 10929 25b1 FA        		.byte	-6
 10930 25b2 F9        		.byte	-7
 10931 25b3 FA        		.byte	-6
 10932 25b4 FB        		.byte	-5
 10933 25b5 FE        		.byte	-2
 10934 25b6 FF        		.byte	-1
 10935 25b7 FD        		.byte	-3
 10936 25b8 FE        		.byte	-2
 10937 25b9 01        		.byte	1
 10938 25ba 03        		.byte	3
 10939 25bb 02        		.byte	2
 10940 25bc 02        		.byte	2
 10941 25bd 02        		.byte	2
 10942 25be 03        		.byte	3
 10943 25bf 03        		.byte	3
 10944 25c0 03        		.byte	3
 10945 25c1 03        		.byte	3
 10946 25c2 03        		.byte	3
 10947 25c3 04        		.byte	4
 10948 25c4 06        		.byte	6
 10949 25c5 05        		.byte	5
 10950 25c6 05        		.byte	5
 10951 25c7 06        		.byte	6
 10952 25c8 07        		.byte	7
 10953 25c9 06        		.byte	6
 10954 25ca 06        		.byte	6
 10955 25cb 06        		.byte	6
GAS LISTING /tmp/ccEQRkCa.s 			page 196


 10956 25cc 05        		.byte	5
 10957 25cd 05        		.byte	5
 10958 25ce 05        		.byte	5
 10959 25cf 05        		.byte	5
 10960 25d0 06        		.byte	6
 10961 25d1 07        		.byte	7
 10962 25d2 08        		.byte	8
 10963 25d3 08        		.byte	8
 10964 25d4 08        		.byte	8
 10965 25d5 08        		.byte	8
 10966 25d6 08        		.byte	8
 10967 25d7 08        		.byte	8
 10968 25d8 08        		.byte	8
 10969 25d9 06        		.byte	6
 10970 25da 05        		.byte	5
 10971 25db 06        		.byte	6
 10972 25dc 05        		.byte	5
 10973 25dd 03        		.byte	3
 10974 25de 03        		.byte	3
 10975 25df 02        		.byte	2
 10976 25e0 01        		.byte	1
 10977 25e1 01        		.byte	1
 10978 25e2 01        		.byte	1
 10979 25e3 01        		.byte	1
 10980 25e4 00        		.byte	0
 10981 25e5 01        		.byte	1
 10982 25e6 01        		.byte	1
 10983 25e7 01        		.byte	1
 10984 25e8 01        		.byte	1
 10985 25e9 01        		.byte	1
 10986 25ea 00        		.byte	0
 10987 25eb 00        		.byte	0
 10988 25ec 00        		.byte	0
 10989 25ed FF        		.byte	-1
 10990 25ee FE        		.byte	-2
 10991 25ef FE        		.byte	-2
 10992 25f0 FE        		.byte	-2
 10993 25f1 FE        		.byte	-2
 10994 25f2 FE        		.byte	-2
 10995 25f3 FD        		.byte	-3
 10996 25f4 FD        		.byte	-3
 10997 25f5 FE        		.byte	-2
 10998 25f6 FE        		.byte	-2
 10999 25f7 FE        		.byte	-2
 11000 25f8 FE        		.byte	-2
 11001 25f9 FD        		.byte	-3
 11002 25fa FD        		.byte	-3
 11003 25fb FE        		.byte	-2
 11004 25fc FE        		.byte	-2
 11005 25fd FE        		.byte	-2
 11006 25fe FE        		.byte	-2
 11007 25ff FE        		.byte	-2
 11008 2600 FF        		.byte	-1
 11009 2601 FF        		.byte	-1
 11010 2602 FF        		.byte	-1
 11011 2603 FF        		.byte	-1
 11012 2604 FF        		.byte	-1
GAS LISTING /tmp/ccEQRkCa.s 			page 197


 11013 2605 FF        		.byte	-1
 11014 2606 FF        		.byte	-1
 11015 2607 FF        		.byte	-1
 11016 2608 FF        		.byte	-1
 11017 2609 FF        		.byte	-1
 11018 260a FF        		.byte	-1
 11019 260b FF        		.byte	-1
 11020 260c FE        		.byte	-2
 11021 260d FF        		.byte	-1
 11022 260e 00        		.byte	0
 11023 260f FF        		.byte	-1
 11024 2610 01        		.byte	1
 11025 2611 01        		.byte	1
 11026 2612 01        		.byte	1
 11027 2613 02        		.byte	2
 11028 2614 03        		.byte	3
 11029 2615 03        		.byte	3
 11030 2616 03        		.byte	3
 11031 2617 04        		.byte	4
 11032 2618 04        		.byte	4
 11033 2619 04        		.byte	4
 11034 261a 04        		.byte	4
 11035 261b 05        		.byte	5
 11036 261c 04        		.byte	4
 11037 261d 04        		.byte	4
 11038 261e 04        		.byte	4
 11039 261f 04        		.byte	4
 11040 2620 04        		.byte	4
 11041 2621 03        		.byte	3
 11042 2622 03        		.byte	3
 11043 2623 04        		.byte	4
 11044 2624 03        		.byte	3
 11045 2625 03        		.byte	3
 11046 2626 05        		.byte	5
 11047 2627 04        		.byte	4
 11048 2628 05        		.byte	5
 11049 2629 06        		.byte	6
 11050 262a 06        		.byte	6
 11051 262b 06        		.byte	6
 11052 262c 06        		.byte	6
 11053 262d 07        		.byte	7
 11054 262e 08        		.byte	8
 11055 262f 08        		.byte	8
 11056 2630 08        		.byte	8
 11057 2631 07        		.byte	7
 11058 2632 06        		.byte	6
 11059 2633 07        		.byte	7
 11060 2634 07        		.byte	7
 11061 2635 04        		.byte	4
 11062 2636 05        		.byte	5
 11063 2637 06        		.byte	6
 11064 2638 03        		.byte	3
 11065 2639 04        		.byte	4
 11066 263a 05        		.byte	5
 11067 263b 04        		.byte	4
 11068 263c 03        		.byte	3
 11069 263d 03        		.byte	3
GAS LISTING /tmp/ccEQRkCa.s 			page 198


 11070 263e 03        		.byte	3
 11071 263f 02        		.byte	2
 11072 2640 02        		.byte	2
 11073 2641 03        		.byte	3
 11074 2642 02        		.byte	2
 11075 2643 01        		.byte	1
 11076 2644 01        		.byte	1
 11077 2645 01        		.byte	1
 11078 2646 00        		.byte	0
 11079 2647 00        		.byte	0
 11080 2648 00        		.byte	0
 11081 2649 FF        		.byte	-1
 11082 264a FF        		.byte	-1
 11083 264b FE        		.byte	-2
 11084 264c FE        		.byte	-2
 11085 264d FE        		.byte	-2
 11086 264e FE        		.byte	-2
 11087 264f FE        		.byte	-2
 11088 2650 FD        		.byte	-3
 11089 2651 FD        		.byte	-3
 11090 2652 FF        		.byte	-1
 11091 2653 FF        		.byte	-1
 11092 2654 FF        		.byte	-1
 11093 2655 00        		.byte	0
 11094 2656 00        		.byte	0
 11095 2657 00        		.byte	0
 11096 2658 01        		.byte	1
 11097 2659 01        		.byte	1
 11098 265a 01        		.byte	1
 11099 265b 01        		.byte	1
 11100 265c 01        		.byte	1
 11101 265d 02        		.byte	2
 11102 265e 02        		.byte	2
 11103 265f 02        		.byte	2
 11104 2660 03        		.byte	3
 11105 2661 03        		.byte	3
 11106 2662 03        		.byte	3
 11107 2663 03        		.byte	3
 11108 2664 03        		.byte	3
 11109 2665 04        		.byte	4
 11110 2666 03        		.byte	3
 11111 2667 04        		.byte	4
 11112 2668 03        		.byte	3
 11113 2669 02        		.byte	2
 11114 266a 03        		.byte	3
 11115 266b 02        		.byte	2
 11116 266c 01        		.byte	1
 11117 266d 01        		.byte	1
 11118 266e 01        		.byte	1
 11119 266f 01        		.byte	1
 11120 2670 00        		.byte	0
 11121 2671 01        		.byte	1
 11122 2672 01        		.byte	1
 11123 2673 00        		.byte	0
 11124 2674 00        		.byte	0
 11125 2675 00        		.byte	0
 11126 2676 FE        		.byte	-2
GAS LISTING /tmp/ccEQRkCa.s 			page 199


 11127 2677 FF        		.byte	-1
 11128 2678 FF        		.byte	-1
 11129 2679 FE        		.byte	-2
 11130 267a FE        		.byte	-2
 11131 267b FE        		.byte	-2
 11132 267c FE        		.byte	-2
 11133 267d FE        		.byte	-2
 11134 267e FE        		.byte	-2
 11135 267f FE        		.byte	-2
 11136 2680 FE        		.byte	-2
 11137 2681 FE        		.byte	-2
 11138 2682 FF        		.byte	-1
 11139 2683 FF        		.byte	-1
 11140 2684 FF        		.byte	-1
 11141 2685 FF        		.byte	-1
 11142 2686 FE        		.byte	-2
 11143 2687 FF        		.byte	-1
 11144 2688 FF        		.byte	-1
 11145 2689 00        		.byte	0
 11146 268a 00        		.byte	0
 11147 268b 00        		.byte	0
 11148 268c 00        		.byte	0
 11149 268d 01        		.byte	1
 11150 268e FF        		.byte	-1
 11151 268f FF        		.byte	-1
 11152 2690 FF        		.byte	-1
 11153 2691 FF        		.byte	-1
 11154 2692 FF        		.byte	-1
 11155 2693 00        		.byte	0
 11156 2694 00        		.byte	0
 11157 2695 00        		.byte	0
 11158 2696 01        		.byte	1
 11159 2697 01        		.byte	1
 11160 2698 00        		.byte	0
 11161 2699 FF        		.byte	-1
 11162 269a 00        		.byte	0
 11163 269b 00        		.byte	0
 11164 269c 00        		.byte	0
 11165 269d 00        		.byte	0
 11166 269e FF        		.byte	-1
 11167 269f 00        		.byte	0
 11168 26a0 00        		.byte	0
 11169 26a1 FF        		.byte	-1
 11170 26a2 FF        		.byte	-1
 11171 26a3 FE        		.byte	-2
 11172 26a4 FE        		.byte	-2
 11173 26a5 FE        		.byte	-2
 11174 26a6 FE        		.byte	-2
 11175 26a7 FE        		.byte	-2
 11176 26a8 FE        		.byte	-2
 11177 26a9 FD        		.byte	-3
 11178 26aa FE        		.byte	-2
 11179 26ab FE        		.byte	-2
 11180 26ac FD        		.byte	-3
 11181 26ad FD        		.byte	-3
 11182 26ae FC        		.byte	-4
 11183 26af FC        		.byte	-4
GAS LISTING /tmp/ccEQRkCa.s 			page 200


 11184 26b0 FC        		.byte	-4
 11185 26b1 FC        		.byte	-4
 11186 26b2 FB        		.byte	-5
 11187 26b3 FB        		.byte	-5
 11188 26b4 FB        		.byte	-5
 11189 26b5 FC        		.byte	-4
 11190 26b6 FC        		.byte	-4
 11191 26b7 FC        		.byte	-4
 11192 26b8 FB        		.byte	-5
 11193 26b9 FB        		.byte	-5
 11194 26ba FB        		.byte	-5
 11195 26bb FB        		.byte	-5
 11196 26bc FB        		.byte	-5
 11197 26bd FB        		.byte	-5
 11198 26be FB        		.byte	-5
 11199 26bf FB        		.byte	-5
 11200 26c0 FB        		.byte	-5
 11201 26c1 FA        		.byte	-6
 11202 26c2 FA        		.byte	-6
 11203 26c3 FA        		.byte	-6
 11204 26c4 FA        		.byte	-6
 11205 26c5 FA        		.byte	-6
 11206 26c6 FA        		.byte	-6
 11207 26c7 FB        		.byte	-5
 11208 26c8 FC        		.byte	-4
 11209 26c9 FB        		.byte	-5
 11210 26ca FB        		.byte	-5
 11211 26cb FB        		.byte	-5
 11212 26cc FB        		.byte	-5
 11213 26cd FB        		.byte	-5
 11214 26ce FB        		.byte	-5
 11215 26cf FA        		.byte	-6
 11216 26d0 FB        		.byte	-5
 11217 26d1 FB        		.byte	-5
 11218 26d2 FB        		.byte	-5
 11219 26d3 FB        		.byte	-5
 11220 26d4 FB        		.byte	-5
 11221 26d5 FB        		.byte	-5
 11222 26d6 FB        		.byte	-5
 11223 26d7 FB        		.byte	-5
 11224 26d8 FB        		.byte	-5
 11225 26d9 FB        		.byte	-5
 11226 26da FB        		.byte	-5
 11227 26db FC        		.byte	-4
 11228 26dc FB        		.byte	-5
 11229 26dd FB        		.byte	-5
 11230 26de FC        		.byte	-4
 11231 26df FC        		.byte	-4
 11232 26e0 FD        		.byte	-3
 11233 26e1 FD        		.byte	-3
 11234 26e2 FE        		.byte	-2
 11235 26e3 FF        		.byte	-1
 11236 26e4 FF        		.byte	-1
 11237 26e5 00        		.byte	0
 11238 26e6 01        		.byte	1
 11239 26e7 01        		.byte	1
 11240 26e8 02        		.byte	2
GAS LISTING /tmp/ccEQRkCa.s 			page 201


 11241 26e9 02        		.byte	2
 11242 26ea 02        		.byte	2
 11243 26eb 02        		.byte	2
 11244 26ec 02        		.byte	2
 11245 26ed 02        		.byte	2
 11246 26ee 03        		.byte	3
 11247 26ef 02        		.byte	2
 11248 26f0 02        		.byte	2
 11249 26f1 02        		.byte	2
 11250 26f2 02        		.byte	2
 11251 26f3 02        		.byte	2
 11252 26f4 02        		.byte	2
 11253 26f5 02        		.byte	2
 11254 26f6 01        		.byte	1
 11255 26f7 00        		.byte	0
 11256 26f8 01        		.byte	1
 11257 26f9 00        		.byte	0
 11258 26fa FF        		.byte	-1
 11259 26fb FF        		.byte	-1
 11260 26fc FF        		.byte	-1
 11261 26fd FE        		.byte	-2
 11262 26fe FE        		.byte	-2
 11263 26ff FE        		.byte	-2
 11264 2700 FE        		.byte	-2
 11265 2701 FD        		.byte	-3
 11266 2702 FD        		.byte	-3
 11267 2703 FD        		.byte	-3
 11268 2704 FD        		.byte	-3
 11269 2705 FD        		.byte	-3
 11270 2706 FD        		.byte	-3
 11271 2707 FD        		.byte	-3
 11272 2708 FD        		.byte	-3
 11273 2709 FD        		.byte	-3
 11274 270a FE        		.byte	-2
 11275 270b FE        		.byte	-2
 11276 270c FE        		.byte	-2
 11277 270d FF        		.byte	-1
 11278 270e FF        		.byte	-1
 11279 270f 01        		.byte	1
 11280 2710 01        		.byte	1
 11281 2711 01        		.byte	1
 11282 2712 01        		.byte	1
 11283 2713 01        		.byte	1
 11284 2714 01        		.byte	1
 11285 2715 01        		.byte	1
 11286 2716 01        		.byte	1
 11287 2717 01        		.byte	1
 11288 2718 01        		.byte	1
 11289 2719 02        		.byte	2
 11290 271a 02        		.byte	2
 11291 271b 01        		.byte	1
 11292 271c 01        		.byte	1
 11293 271d 00        		.byte	0
 11294 271e 00        		.byte	0
 11295 271f 00        		.byte	0
 11296 2720 FF        		.byte	-1
 11297 2721 FF        		.byte	-1
GAS LISTING /tmp/ccEQRkCa.s 			page 202


 11298 2722 FF        		.byte	-1
 11299 2723 FF        		.byte	-1
 11300 2724 FF        		.byte	-1
 11301 2725 FF        		.byte	-1
 11302 2726 FF        		.byte	-1
 11303 2727 FE        		.byte	-2
 11304 2728 FE        		.byte	-2
 11305 2729 FE        		.byte	-2
 11306 272a FD        		.byte	-3
 11307 272b FC        		.byte	-4
 11308 272c FC        		.byte	-4
 11309 272d FC        		.byte	-4
 11310 272e FC        		.byte	-4
 11311 272f FC        		.byte	-4
 11312 2730 FC        		.byte	-4
 11313 2731 FC        		.byte	-4
 11314 2732 FC        		.byte	-4
 11315 2733 FC        		.byte	-4
 11316 2734 FB        		.byte	-5
 11317 2735 FB        		.byte	-5
 11318 2736 FC        		.byte	-4
 11319 2737 FC        		.byte	-4
 11320 2738 FC        		.byte	-4
 11321 2739 FC        		.byte	-4
 11322 273a FD        		.byte	-3
 11323 273b FD        		.byte	-3
 11324 273c FD        		.byte	-3
 11325 273d FD        		.byte	-3
 11326 273e FD        		.byte	-3
 11327 273f FD        		.byte	-3
 11328 2740 FD        		.byte	-3
 11329 2741 FD        		.byte	-3
 11330 2742 FD        		.byte	-3
 11331 2743 FD        		.byte	-3
 11332 2744 FD        		.byte	-3
 11333 2745 FD        		.byte	-3
 11334 2746 FD        		.byte	-3
 11335 2747 FC        		.byte	-4
 11336 2748 FC        		.byte	-4
 11337 2749 FC        		.byte	-4
 11338 274a FC        		.byte	-4
 11339 274b FC        		.byte	-4
 11340 274c FB        		.byte	-5
 11341 274d FB        		.byte	-5
 11342 274e FB        		.byte	-5
 11343 274f FB        		.byte	-5
 11344 2750 FB        		.byte	-5
 11345 2751 FC        		.byte	-4
 11346 2752 FC        		.byte	-4
 11347 2753 FD        		.byte	-3
 11348 2754 FD        		.byte	-3
 11349 2755 FD        		.byte	-3
 11350 2756 FD        		.byte	-3
 11351 2757 FD        		.byte	-3
 11352 2758 FE        		.byte	-2
 11353 2759 FE        		.byte	-2
 11354 275a FE        		.byte	-2
GAS LISTING /tmp/ccEQRkCa.s 			page 203


 11355 275b FF        		.byte	-1
 11356 275c FF        		.byte	-1
 11357 275d 00        		.byte	0
 11358 275e 01        		.byte	1
 11359 275f 01        		.byte	1
 11360 2760 01        		.byte	1
 11361 2761 01        		.byte	1
 11362 2762 01        		.byte	1
 11363 2763 01        		.byte	1
 11364 2764 01        		.byte	1
 11365 2765 01        		.byte	1
 11366 2766 01        		.byte	1
 11367 2767 01        		.byte	1
 11368 2768 01        		.byte	1
 11369 2769 02        		.byte	2
 11370 276a 03        		.byte	3
 11371 276b 03        		.byte	3
 11372 276c 04        		.byte	4
 11373 276d 04        		.byte	4
 11374 276e 04        		.byte	4
 11375 276f 04        		.byte	4
 11376 2770 04        		.byte	4
 11377 2771 04        		.byte	4
 11378 2772 05        		.byte	5
 11379 2773 04        		.byte	4
 11380 2774 04        		.byte	4
 11381 2775 04        		.byte	4
 11382 2776 04        		.byte	4
 11383 2777 03        		.byte	3
 11384 2778 03        		.byte	3
 11385 2779 03        		.byte	3
 11386 277a 03        		.byte	3
 11387 277b 03        		.byte	3
 11388 277c 03        		.byte	3
 11389 277d 02        		.byte	2
 11390 277e 02        		.byte	2
 11391 277f 02        		.byte	2
 11392 2780 01        		.byte	1
 11393 2781 01        		.byte	1
 11394 2782 01        		.byte	1
 11395 2783 00        		.byte	0
 11396 2784 00        		.byte	0
 11397 2785 FF        		.byte	-1
 11398 2786 FF        		.byte	-1
 11399 2787 FF        		.byte	-1
 11400 2788 FF        		.byte	-1
 11401 2789 FF        		.byte	-1
 11402 278a FF        		.byte	-1
 11403 278b FF        		.byte	-1
 11404 278c FF        		.byte	-1
 11405 278d 00        		.byte	0
 11406 278e 00        		.byte	0
 11407 278f 00        		.byte	0
 11408 2790 00        		.byte	0
 11409 2791 01        		.byte	1
 11410 2792 01        		.byte	1
 11411 2793 01        		.byte	1
GAS LISTING /tmp/ccEQRkCa.s 			page 204


 11412 2794 01        		.byte	1
 11413 2795 01        		.byte	1
 11414 2796 00        		.byte	0
 11415 2797 00        		.byte	0
 11416 2798 FF        		.byte	-1
 11417 2799 01        		.byte	1
 11418 279a 01        		.byte	1
 11419 279b FF        		.byte	-1
 11420 279c 00        		.byte	0
 11421 279d 00        		.byte	0
 11422 279e FF        		.byte	-1
 11423 279f FE        		.byte	-2
 11424 27a0 FE        		.byte	-2
 11425 27a1 FD        		.byte	-3
 11426 27a2 FC        		.byte	-4
 11427 27a3 FC        		.byte	-4
 11428 27a4 FC        		.byte	-4
 11429 27a5 FB        		.byte	-5
 11430 27a6 FB        		.byte	-5
 11431 27a7 FB        		.byte	-5
 11432 27a8 FC        		.byte	-4
 11433 27a9 FC        		.byte	-4
 11434 27aa FD        		.byte	-3
 11435 27ab FD        		.byte	-3
 11436 27ac FD        		.byte	-3
 11437 27ad FE        		.byte	-2
 11438 27ae FE        		.byte	-2
 11439 27af FF        		.byte	-1
 11440 27b0 FF        		.byte	-1
 11441 27b1 FF        		.byte	-1
 11442 27b2 FF        		.byte	-1
 11443 27b3 00        		.byte	0
 11444 27b4 00        		.byte	0
 11445 27b5 01        		.byte	1
 11446 27b6 01        		.byte	1
 11447 27b7 01        		.byte	1
 11448 27b8 02        		.byte	2
 11449 27b9 02        		.byte	2
 11450 27ba 03        		.byte	3
 11451 27bb 03        		.byte	3
 11452 27bc 03        		.byte	3
 11453 27bd 04        		.byte	4
 11454 27be 04        		.byte	4
 11455 27bf 04        		.byte	4
 11456 27c0 04        		.byte	4
 11457 27c1 04        		.byte	4
 11458 27c2 05        		.byte	5
 11459 27c3 05        		.byte	5
 11460 27c4 05        		.byte	5
 11461 27c5 06        		.byte	6
 11462 27c6 06        		.byte	6
 11463 27c7 06        		.byte	6
 11464 27c8 05        		.byte	5
 11465 27c9 05        		.byte	5
 11466 27ca 05        		.byte	5
 11467 27cb 05        		.byte	5
 11468 27cc 05        		.byte	5
GAS LISTING /tmp/ccEQRkCa.s 			page 205


 11469 27cd 05        		.byte	5
 11470 27ce 05        		.byte	5
 11471 27cf 04        		.byte	4
 11472 27d0 04        		.byte	4
 11473 27d1 04        		.byte	4
 11474 27d2 04        		.byte	4
 11475 27d3 03        		.byte	3
 11476 27d4 03        		.byte	3
 11477 27d5 03        		.byte	3
 11478 27d6 02        		.byte	2
 11479 27d7 02        		.byte	2
 11480 27d8 01        		.byte	1
 11481 27d9 01        		.byte	1
 11482 27da 01        		.byte	1
 11483 27db 01        		.byte	1
 11484 27dc 00        		.byte	0
 11485 27dd 00        		.byte	0
 11486 27de 00        		.byte	0
 11487 27df FF        		.byte	-1
 11488 27e0 FF        		.byte	-1
 11489 27e1 FF        		.byte	-1
 11490 27e2 FF        		.byte	-1
 11491 27e3 FE        		.byte	-2
 11492 27e4 FE        		.byte	-2
 11493 27e5 FF        		.byte	-1
 11494 27e6 FF        		.byte	-1
 11495 27e7 FF        		.byte	-1
 11496 27e8 FE        		.byte	-2
 11497 27e9 FE        		.byte	-2
 11498 27ea FE        		.byte	-2
 11499 27eb FD        		.byte	-3
 11500 27ec FC        		.byte	-4
 11501 27ed FC        		.byte	-4
 11502 27ee FC        		.byte	-4
 11503 27ef FC        		.byte	-4
 11504 27f0 FC        		.byte	-4
 11505 27f1 FB        		.byte	-5
 11506 27f2 FC        		.byte	-4
 11507 27f3 FB        		.byte	-5
 11508 27f4 FB        		.byte	-5
 11509 27f5 FB        		.byte	-5
 11510 27f6 FB        		.byte	-5
 11511 27f7 FB        		.byte	-5
 11512 27f8 FB        		.byte	-5
 11513 27f9 FB        		.byte	-5
 11514 27fa FB        		.byte	-5
 11515 27fb FB        		.byte	-5
 11516 27fc FB        		.byte	-5
 11517 27fd FB        		.byte	-5
 11518 27fe FB        		.byte	-5
 11519 27ff FB        		.byte	-5
 11520 2800 FB        		.byte	-5
 11521 2801 FB        		.byte	-5
 11522 2802 FB        		.byte	-5
 11523 2803 FB        		.byte	-5
 11524 2804 FA        		.byte	-6
 11525 2805 FA        		.byte	-6
GAS LISTING /tmp/ccEQRkCa.s 			page 206


 11526 2806 FA        		.byte	-6
 11527 2807 FA        		.byte	-6
 11528 2808 FA        		.byte	-6
 11529 2809 FA        		.byte	-6
 11530 280a FA        		.byte	-6
 11531 280b FA        		.byte	-6
 11532 280c F9        		.byte	-7
 11533 280d FA        		.byte	-6
 11534 280e FA        		.byte	-6
 11535 280f FA        		.byte	-6
 11536 2810 FA        		.byte	-6
 11537 2811 FA        		.byte	-6
 11538 2812 FB        		.byte	-5
 11539 2813 FB        		.byte	-5
 11540 2814 FB        		.byte	-5
 11541 2815 FC        		.byte	-4
 11542 2816 FC        		.byte	-4
 11543 2817 FD        		.byte	-3
 11544 2818 FD        		.byte	-3
 11545 2819 FD        		.byte	-3
 11546 281a FD        		.byte	-3
 11547 281b FE        		.byte	-2
 11548 281c FE        		.byte	-2
 11549 281d FE        		.byte	-2
 11550 281e FE        		.byte	-2
 11551 281f FE        		.byte	-2
 11552 2820 FE        		.byte	-2
 11553 2821 FE        		.byte	-2
 11554 2822 FE        		.byte	-2
 11555 2823 FE        		.byte	-2
 11556 2824 FE        		.byte	-2
 11557 2825 FE        		.byte	-2
 11558 2826 FE        		.byte	-2
 11559 2827 FE        		.byte	-2
 11560 2828 FF        		.byte	-1
 11561 2829 FE        		.byte	-2
 11562 282a FE        		.byte	-2
 11563 282b FE        		.byte	-2
 11564 282c FE        		.byte	-2
 11565 282d FE        		.byte	-2
 11566 282e FE        		.byte	-2
 11567 282f FE        		.byte	-2
 11568 2830 FE        		.byte	-2
 11569 2831 FE        		.byte	-2
 11570 2832 FE        		.byte	-2
 11571 2833 FF        		.byte	-1
 11572 2834 FF        		.byte	-1
 11573 2835 FF        		.byte	-1
 11574 2836 FF        		.byte	-1
 11575 2837 FF        		.byte	-1
 11576 2838 FF        		.byte	-1
 11577 2839 FF        		.byte	-1
 11578 283a FF        		.byte	-1
 11579 283b 00        		.byte	0
 11580 283c 00        		.byte	0
 11581 283d 00        		.byte	0
 11582 283e 00        		.byte	0
GAS LISTING /tmp/ccEQRkCa.s 			page 207


 11583 283f 00        		.byte	0
 11584 2840 00        		.byte	0
 11585 2841 00        		.byte	0
 11586 2842 00        		.byte	0
 11587 2843 00        		.byte	0
 11588 2844 01        		.byte	1
 11589 2845 01        		.byte	1
 11590 2846 01        		.byte	1
 11591 2847 01        		.byte	1
 11592 2848 01        		.byte	1
 11593 2849 01        		.byte	1
 11594 284a 01        		.byte	1
 11595 284b 01        		.byte	1
 11596 284c 01        		.byte	1
 11597 284d 01        		.byte	1
 11598 284e 01        		.byte	1
 11599 284f 01        		.byte	1
 11600 2850 01        		.byte	1
 11601 2851 01        		.byte	1
 11602 2852 01        		.byte	1
 11603 2853 01        		.byte	1
 11604 2854 01        		.byte	1
 11605 2855 01        		.byte	1
 11606 2856 01        		.byte	1
 11607 2857 01        		.byte	1
 11608 2858 01        		.byte	1
 11609 2859 01        		.byte	1
 11610 285a 01        		.byte	1
 11611 285b 01        		.byte	1
 11612 285c 02        		.byte	2
 11613 285d 02        		.byte	2
 11614 285e 02        		.byte	2
 11615 285f 02        		.byte	2
 11616 2860 02        		.byte	2
 11617 2861 02        		.byte	2
 11618 2862 02        		.byte	2
 11619 2863 02        		.byte	2
 11620 2864 02        		.byte	2
 11621 2865 02        		.byte	2
 11622 2866 02        		.byte	2
 11623 2867 02        		.byte	2
 11624 2868 02        		.byte	2
 11625 2869 03        		.byte	3
 11626 286a 03        		.byte	3
 11627 286b 03        		.byte	3
 11628 286c 03        		.byte	3
 11629 286d 03        		.byte	3
 11630 286e 03        		.byte	3
 11631 286f 03        		.byte	3
 11632 2870 03        		.byte	3
 11633 2871 03        		.byte	3
 11634 2872 03        		.byte	3
 11635 2873 03        		.byte	3
 11636 2874 03        		.byte	3
 11637 2875 03        		.byte	3
 11638 2876 03        		.byte	3
 11639 2877 03        		.byte	3
GAS LISTING /tmp/ccEQRkCa.s 			page 208


 11640 2878 03        		.byte	3
 11641 2879 03        		.byte	3
 11642 287a 03        		.byte	3
 11643 287b 03        		.byte	3
 11644 287c 03        		.byte	3
 11645 287d 03        		.byte	3
 11646 287e 03        		.byte	3
 11647 287f 03        		.byte	3
 11648 2880 03        		.byte	3
 11649 2881 03        		.byte	3
 11650 2882 03        		.byte	3
 11651 2883 02        		.byte	2
 11652 2884 02        		.byte	2
 11653 2885 02        		.byte	2
 11654 2886 02        		.byte	2
 11655 2887 02        		.byte	2
 11656 2888 02        		.byte	2
 11657 2889 02        		.byte	2
 11658 288a 02        		.byte	2
 11659 288b 02        		.byte	2
 11660 288c 02        		.byte	2
 11661 288d 02        		.byte	2
 11662 288e 01        		.byte	1
 11663 288f 01        		.byte	1
 11664 2890 01        		.byte	1
 11665 2891 01        		.byte	1
 11666 2892 01        		.byte	1
 11667 2893 01        		.byte	1
 11668 2894 01        		.byte	1
 11669 2895 01        		.byte	1
 11670 2896 01        		.byte	1
 11671 2897 01        		.byte	1
 11672 2898 01        		.byte	1
 11673 2899 01        		.byte	1
 11674 289a 01        		.byte	1
 11675 289b 00        		.byte	0
 11676 289c 00        		.byte	0
 11677 289d 01        		.byte	1
 11678 289e 01        		.byte	1
 11679 289f 01        		.byte	1
 11680 28a0 01        		.byte	1
 11681 28a1 01        		.byte	1
 11682 28a2 01        		.byte	1
 11683 28a3 01        		.byte	1
 11684 28a4 01        		.byte	1
 11685 28a5 01        		.byte	1
 11686 28a6 01        		.byte	1
 11687 28a7 01        		.byte	1
 11688 28a8 01        		.byte	1
 11689 28a9 01        		.byte	1
 11690 28aa 01        		.byte	1
 11691 28ab 01        		.byte	1
 11692 28ac 01        		.byte	1
 11693 28ad 01        		.byte	1
 11694 28ae 01        		.byte	1
 11695 28af 01        		.byte	1
 11696 28b0 01        		.byte	1
GAS LISTING /tmp/ccEQRkCa.s 			page 209


 11697 28b1 01        		.byte	1
 11698 28b2 01        		.byte	1
 11699 28b3 01        		.byte	1
 11700 28b4 01        		.byte	1
 11701 28b5 01        		.byte	1
 11702 28b6 01        		.byte	1
 11703 28b7 02        		.byte	2
 11704 28b8 01        		.byte	1
 11705 28b9 01        		.byte	1
 11706 28ba 01        		.byte	1
 11707 28bb 01        		.byte	1
 11708 28bc 01        		.byte	1
 11709 28bd 01        		.byte	1
 11710 28be 01        		.byte	1
 11711 28bf 01        		.byte	1
 11712 28c0 01        		.byte	1
 11713 28c1 01        		.byte	1
 11714 28c2 01        		.byte	1
 11715 28c3 01        		.byte	1
 11716 28c4 01        		.byte	1
 11717 28c5 01        		.byte	1
 11718 28c6 00        		.byte	0
 11719 28c7 00        		.byte	0
 11720 28c8 00        		.byte	0
 11721 28c9 00        		.byte	0
 11722 28ca 00        		.byte	0
 11723 28cb 00        		.byte	0
 11724 28cc 00        		.byte	0
 11725 28cd 00        		.byte	0
 11726 28ce FF        		.byte	-1
 11727 28cf FF        		.byte	-1
 11728 28d0 FF        		.byte	-1
 11729 28d1 FF        		.byte	-1
 11730 28d2 FF        		.byte	-1
 11731 28d3 FF        		.byte	-1
 11732 28d4 FF        		.byte	-1
 11733 28d5 FF        		.byte	-1
 11734 28d6 FF        		.byte	-1
 11735 28d7 FE        		.byte	-2
 11736 28d8 FE        		.byte	-2
 11737 28d9 FE        		.byte	-2
 11738 28da FE        		.byte	-2
 11739 28db FE        		.byte	-2
 11740 28dc FE        		.byte	-2
 11741 28dd FE        		.byte	-2
 11742 28de FE        		.byte	-2
 11743 28df FE        		.byte	-2
 11744 28e0 FE        		.byte	-2
 11745 28e1 FE        		.byte	-2
 11746 28e2 FE        		.byte	-2
 11747 28e3 FE        		.byte	-2
 11748 28e4 FE        		.byte	-2
 11749 28e5 FE        		.byte	-2
 11750 28e6 FE        		.byte	-2
 11751 28e7 FE        		.byte	-2
 11752 28e8 FE        		.byte	-2
 11753 28e9 FE        		.byte	-2
GAS LISTING /tmp/ccEQRkCa.s 			page 210


 11754 28ea FE        		.byte	-2
 11755 28eb FE        		.byte	-2
 11756 28ec FE        		.byte	-2
 11757 28ed FE        		.byte	-2
 11758 28ee FE        		.byte	-2
 11759 28ef FE        		.byte	-2
 11760 28f0 FE        		.byte	-2
 11761 28f1 FE        		.byte	-2
 11762 28f2 FE        		.byte	-2
 11763 28f3 FE        		.byte	-2
 11764 28f4 FE        		.byte	-2
 11765 28f5 FE        		.byte	-2
 11766 28f6 FE        		.byte	-2
 11767 28f7 FE        		.byte	-2
 11768 28f8 FE        		.byte	-2
 11769 28f9 FE        		.byte	-2
 11770 28fa FE        		.byte	-2
 11771 28fb FE        		.byte	-2
 11772 28fc FE        		.byte	-2
 11773 28fd FE        		.byte	-2
 11774 28fe FE        		.byte	-2
 11775 28ff FE        		.byte	-2
 11776 2900 FE        		.byte	-2
 11777 2901 FF        		.byte	-1
 11778 2902 FF        		.byte	-1
 11779 2903 FF        		.byte	-1
 11780 2904 FF        		.byte	-1
 11781 2905 FF        		.byte	-1
 11782 2906 FF        		.byte	-1
 11783 2907 FF        		.byte	-1
 11784 2908 FF        		.byte	-1
 11785 2909 FF        		.byte	-1
 11786 290a FF        		.byte	-1
 11787 290b FF        		.byte	-1
 11788 290c FF        		.byte	-1
 11789 290d FF        		.byte	-1
 11790 290e FF        		.byte	-1
 11791 290f FF        		.byte	-1
 11792 2910 FF        		.byte	-1
 11793 2911 FF        		.byte	-1
 11794 2912 FF        		.byte	-1
 11795 2913 FF        		.byte	-1
 11796 2914 FF        		.byte	-1
 11797 2915 FF        		.byte	-1
 11798 2916 FF        		.byte	-1
 11799 2917 FF        		.byte	-1
 11800 2918 FF        		.byte	-1
 11801 2919 FF        		.byte	-1
 11802 291a FF        		.byte	-1
 11803 291b FF        		.byte	-1
 11804 291c FF        		.byte	-1
 11805 291d FF        		.byte	-1
 11806 291e FF        		.byte	-1
 11807 291f FF        		.byte	-1
 11808 2920 FF        		.byte	-1
 11809 2921 FF        		.byte	-1
 11810 2922 FF        		.byte	-1
GAS LISTING /tmp/ccEQRkCa.s 			page 211


 11811 2923 FF        		.byte	-1
 11812 2924 FF        		.byte	-1
 11813 2925 FF        		.byte	-1
 11814 2926 FF        		.byte	-1
 11815 2927 FF        		.byte	-1
 11816 2928 FF        		.byte	-1
 11817 2929 FF        		.byte	-1
 11818 292a FF        		.byte	-1
 11819 292b FF        		.byte	-1
 11820 292c FF        		.byte	-1
 11821 292d FF        		.byte	-1
 11822 292e FF        		.byte	-1
 11823 292f FF        		.byte	-1
 11824 2930 FF        		.byte	-1
 11825 2931 FF        		.byte	-1
 11826 2932 FF        		.byte	-1
 11827 2933 FF        		.byte	-1
 11828 2934 FF        		.byte	-1
 11829 2935 FF        		.byte	-1
 11830 2936 FF        		.byte	-1
 11831 2937 FF        		.byte	-1
 11832 2938 FF        		.byte	-1
 11833 2939 FF        		.byte	-1
 11834 293a FF        		.byte	-1
 11835 293b FF        		.byte	-1
 11836 293c FF        		.byte	-1
 11837 293d FF        		.byte	-1
 11838 293e FF        		.byte	-1
 11839 293f FF        		.byte	-1
 11840 2940 FF        		.byte	-1
 11841 2941 FF        		.byte	-1
 11842 2942 FE        		.byte	-2
 11843 2943 FE        		.byte	-2
 11844 2944 FE        		.byte	-2
 11845 2945 FE        		.byte	-2
 11846 2946 FE        		.byte	-2
 11847 2947 FE        		.byte	-2
 11848 2948 FE        		.byte	-2
 11849 2949 FE        		.byte	-2
 11850 294a FE        		.byte	-2
 11851 294b FE        		.byte	-2
 11852 294c FE        		.byte	-2
 11853 294d FE        		.byte	-2
 11854 294e FE        		.byte	-2
 11855 294f FE        		.byte	-2
 11856 2950 FE        		.byte	-2
 11857 2951 FE        		.byte	-2
 11858 2952 FE        		.byte	-2
 11859 2953 FE        		.byte	-2
 11860 2954 FE        		.byte	-2
 11861 2955 FE        		.byte	-2
 11862 2956 FE        		.byte	-2
 11863 2957 FE        		.byte	-2
 11864 2958 FE        		.byte	-2
 11865 2959 FE        		.byte	-2
 11866 295a FE        		.byte	-2
 11867 295b FE        		.byte	-2
GAS LISTING /tmp/ccEQRkCa.s 			page 212


 11868 295c FE        		.byte	-2
 11869 295d FE        		.byte	-2
 11870 295e FE        		.byte	-2
 11871 295f FE        		.byte	-2
 11872 2960 FE        		.byte	-2
 11873 2961 FE        		.byte	-2
 11874 2962 FE        		.byte	-2
 11875 2963 FE        		.byte	-2
 11876 2964 FE        		.byte	-2
 11877 2965 FE        		.byte	-2
 11878 2966 FE        		.byte	-2
 11879 2967 FE        		.byte	-2
 11880 2968 FF        		.byte	-1
 11881 2969 FF        		.byte	-1
 11882 296a FF        		.byte	-1
 11883 296b FE        		.byte	-2
 11884 296c FF        		.byte	-1
 11885 296d FF        		.byte	-1
 11886 296e FF        		.byte	-1
 11887 296f FF        		.byte	-1
 11888 2970 FF        		.byte	-1
 11889 2971 FF        		.byte	-1
 11890 2972 FF        		.byte	-1
 11891 2973 FF        		.byte	-1
 11892 2974 FF        		.byte	-1
 11893 2975 FF        		.byte	-1
 11894 2976 FF        		.byte	-1
 11895 2977 FF        		.byte	-1
 11896 2978 FF        		.byte	-1
 11897 2979 FF        		.byte	-1
 11898 297a FF        		.byte	-1
 11899 297b FF        		.byte	-1
 11900 297c FF        		.byte	-1
 11901 297d FF        		.byte	-1
 11902 297e FF        		.byte	-1
 11903 297f FF        		.byte	-1
 11904 2980 FF        		.byte	-1
 11905 2981 00        		.byte	0
 11906 2982 00        		.byte	0
 11907 2983 00        		.byte	0
 11908 2984 00        		.byte	0
 11909 2985 00        		.byte	0
 11910 2986 00        		.byte	0
 11911 2987 00        		.byte	0
 11912 2988 00        		.byte	0
 11913 2989 00        		.byte	0
 11914 298a 00        		.byte	0
 11915 298b 00        		.byte	0
 11916 298c 00        		.byte	0
 11917 298d 00        		.byte	0
 11918 298e 01        		.byte	1
 11919 298f 01        		.byte	1
 11920 2990 01        		.byte	1
 11921 2991 01        		.byte	1
 11922 2992 01        		.byte	1
 11923 2993 01        		.byte	1
 11924 2994 01        		.byte	1
GAS LISTING /tmp/ccEQRkCa.s 			page 213


 11925 2995 01        		.byte	1
 11926 2996 01        		.byte	1
 11927 2997 01        		.byte	1
 11928 2998 02        		.byte	2
 11929 2999 02        		.byte	2
 11930 299a 02        		.byte	2
 11931 299b 02        		.byte	2
 11932 299c 02        		.byte	2
 11933 299d 02        		.byte	2
 11934 299e 02        		.byte	2
 11935 299f 02        		.byte	2
 11936 29a0 02        		.byte	2
 11937 29a1 02        		.byte	2
 11938 29a2 01        		.byte	1
 11939 29a3 01        		.byte	1
 11940 29a4 01        		.byte	1
 11941 29a5 01        		.byte	1
 11942 29a6 01        		.byte	1
 11943 29a7 01        		.byte	1
 11944 29a8 01        		.byte	1
 11945 29a9 01        		.byte	1
 11946 29aa 01        		.byte	1
 11947 29ab 00        		.byte	0
 11948 29ac 00        		.byte	0
 11949 29ad 00        		.byte	0
 11950 29ae 00        		.byte	0
 11951 29af 00        		.byte	0
 11952 29b0 00        		.byte	0
 11953 29b1 00        		.byte	0
 11954 29b2 00        		.byte	0
 11955 29b3 00        		.byte	0
 11956 29b4 00        		.byte	0
 11957 29b5 00        		.byte	0
 11958 29b6 00        		.byte	0
 11959 29b7 FF        		.byte	-1
 11960 29b8 FF        		.byte	-1
 11961 29b9 FF        		.byte	-1
 11962 29ba FF        		.byte	-1
 11963 29bb FF        		.byte	-1
 11964 29bc FF        		.byte	-1
 11965 29bd FF        		.byte	-1
 11966 29be FF        		.byte	-1
 11967 29bf FF        		.byte	-1
 11968 29c0 FF        		.byte	-1
 11969 29c1 FF        		.byte	-1
 11970 29c2 FF        		.byte	-1
 11971 29c3 FF        		.byte	-1
 11972 29c4 FF        		.byte	-1
 11973 29c5 FF        		.byte	-1
 11974 29c6 FF        		.byte	-1
 11975 29c7 FF        		.byte	-1
 11976 29c8 FF        		.byte	-1
 11977 29c9 FF        		.byte	-1
 11978 29ca FF        		.byte	-1
 11979 29cb FF        		.byte	-1
 11980 29cc FF        		.byte	-1
 11981 29cd FF        		.byte	-1
GAS LISTING /tmp/ccEQRkCa.s 			page 214


 11982 29ce FF        		.byte	-1
 11983 29cf FF        		.byte	-1
 11984 29d0 FF        		.byte	-1
 11985 29d1 FF        		.byte	-1
 11986 29d2 FF        		.byte	-1
 11987 29d3 FF        		.byte	-1
 11988 29d4 FF        		.byte	-1
 11989 29d5 FF        		.byte	-1
 11990 29d6 FF        		.byte	-1
 11991 29d7 FF        		.byte	-1
 11992 29d8 FF        		.byte	-1
 11993 29d9 FF        		.byte	-1
 11994 29da FF        		.byte	-1
 11995 29db FF        		.byte	-1
 11996 29dc FF        		.byte	-1
 11997 29dd FF        		.byte	-1
 11998 29de FF        		.byte	-1
 11999 29df FF        		.byte	-1
 12000 29e0 FF        		.byte	-1
 12001 29e1 FF        		.byte	-1
 12002 29e2 FF        		.byte	-1
 12003 29e3 FF        		.byte	-1
 12004 29e4 FF        		.byte	-1
 12005 29e5 FF        		.byte	-1
 12006 29e6 FF        		.byte	-1
 12007 29e7 FF        		.byte	-1
 12008 29e8 FF        		.byte	-1
 12009 29e9 FF        		.byte	-1
 12010 29ea FF        		.byte	-1
 12011 29eb FE        		.byte	-2
 12012 29ec FE        		.byte	-2
 12013 29ed FE        		.byte	-2
 12014 29ee FE        		.byte	-2
 12015 29ef FE        		.byte	-2
 12016 29f0 FE        		.byte	-2
 12017 29f1 FE        		.byte	-2
 12018 29f2 FE        		.byte	-2
 12019 29f3 FE        		.byte	-2
 12020 29f4 FE        		.byte	-2
 12021 29f5 FE        		.byte	-2
 12022 29f6 FE        		.byte	-2
 12023 29f7 FE        		.byte	-2
 12024 29f8 FE        		.byte	-2
 12025 29f9 FE        		.byte	-2
 12026 29fa FF        		.byte	-1
 12027 29fb FF        		.byte	-1
 12028 29fc FF        		.byte	-1
 12029 29fd FF        		.byte	-1
 12030 29fe FF        		.byte	-1
 12031 29ff FF        		.byte	-1
 12032 2a00 FF        		.byte	-1
 12033 2a01 FF        		.byte	-1
 12034 2a02 FF        		.byte	-1
 12035 2a03 FF        		.byte	-1
 12036 2a04 FF        		.byte	-1
 12037 2a05 FF        		.byte	-1
 12038 2a06 FF        		.byte	-1
GAS LISTING /tmp/ccEQRkCa.s 			page 215


 12039 2a07 FF        		.byte	-1
 12040 2a08 FF        		.byte	-1
 12041 2a09 FF        		.byte	-1
 12042 2a0a FF        		.byte	-1
 12043 2a0b FF        		.byte	-1
 12044 2a0c FF        		.byte	-1
 12045 2a0d FF        		.byte	-1
 12046 2a0e FF        		.byte	-1
 12047 2a0f FF        		.byte	-1
 12048 2a10 FF        		.byte	-1
 12049 2a11 FF        		.byte	-1
 12050 2a12 FF        		.byte	-1
 12051 2a13 FF        		.byte	-1
 12052 2a14 FF        		.byte	-1
 12053 2a15 FF        		.byte	-1
 12054 2a16 FF        		.byte	-1
 12055 2a17 FF        		.byte	-1
 12056 2a18 FF        		.byte	-1
 12057 2a19 FF        		.byte	-1
 12058 2a1a FF        		.byte	-1
 12059 2a1b FF        		.byte	-1
 12060 2a1c FF        		.byte	-1
 12061 2a1d FF        		.byte	-1
 12062 2a1e FF        		.byte	-1
 12063 2a1f FF        		.byte	-1
 12064 2a20 FF        		.byte	-1
 12065 2a21 FF        		.byte	-1
 12066 2a22 FF        		.byte	-1
 12067 2a23 FF        		.byte	-1
 12068 2a24 FF        		.byte	-1
 12069 2a25 FF        		.byte	-1
 12070 2a26 FF        		.byte	-1
 12071 2a27 FF        		.byte	-1
 12072 2a28 FF        		.byte	-1
 12073 2a29 FF        		.byte	-1
 12074 2a2a FF        		.byte	-1
 12075 2a2b FF        		.byte	-1
 12076 2a2c FF        		.byte	-1
 12077 2a2d FF        		.byte	-1
 12078 2a2e FF        		.byte	-1
 12079 2a2f FF        		.byte	-1
 12080 2a30 FF        		.byte	-1
 12081 2a31 FF        		.byte	-1
 12082 2a32 FF        		.byte	-1
 12083 2a33 FF        		.byte	-1
 12084 2a34 FF        		.byte	-1
 12085 2a35 FF        		.byte	-1
 12086 2a36 FF        		.byte	-1
 12087 2a37 FF        		.byte	-1
 12088 2a38 FF        		.byte	-1
 12089 2a39 FF        		.byte	-1
 12090 2a3a FF        		.byte	-1
 12091 2a3b FF        		.byte	-1
 12092 2a3c FF        		.byte	-1
 12093 2a3d FF        		.byte	-1
 12094 2a3e FF        		.byte	-1
 12095 2a3f FF        		.byte	-1
GAS LISTING /tmp/ccEQRkCa.s 			page 216


 12096 2a40 FF        		.byte	-1
 12097 2a41 FF        		.byte	-1
 12098 2a42 FF        		.byte	-1
 12099 2a43 FF        		.byte	-1
 12100 2a44 FF        		.byte	-1
 12101 2a45 FF        		.byte	-1
 12102 2a46 FF        		.byte	-1
 12103 2a47 FF        		.byte	-1
 12104 2a48 FF        		.byte	-1
 12105 2a49 FF        		.byte	-1
 12106 2a4a FF        		.byte	-1
 12107 2a4b FF        		.byte	-1
 12108 2a4c FF        		.byte	-1
 12109 2a4d FF        		.byte	-1
 12110 2a4e FF        		.byte	-1
 12111 2a4f FF        		.byte	-1
 12112 2a50 FF        		.byte	-1
 12113 2a51 FF        		.byte	-1
 12114 2a52 FF        		.byte	-1
 12115 2a53 FF        		.byte	-1
 12116 2a54 FF        		.byte	-1
 12117 2a55 FF        		.byte	-1
 12118 2a56 FF        		.byte	-1
 12119 2a57 FF        		.byte	-1
 12120 2a58 FF        		.byte	-1
 12121 2a59 FF        		.byte	-1
 12122 2a5a FF        		.byte	-1
 12123 2a5b FF        		.byte	-1
 12124 2a5c FF        		.byte	-1
 12125 2a5d FF        		.byte	-1
 12126 2a5e FF        		.byte	-1
 12127 2a5f FF        		.byte	-1
 12128 2a60 FF        		.byte	-1
 12129 2a61 FF        		.byte	-1
 12130 2a62 FF        		.byte	-1
 12131 2a63 FF        		.byte	-1
 12132 2a64 FF        		.byte	-1
 12133 2a65 FF        		.byte	-1
 12134 2a66 FF        		.byte	-1
 12135 2a67 FF        		.byte	-1
 12136 2a68 FF        		.byte	-1
 12137 2a69 FF        		.byte	-1
 12138 2a6a FF        		.byte	-1
 12139 2a6b FF        		.byte	-1
 12140 2a6c FF        		.byte	-1
 12141 2a6d FF        		.byte	-1
 12142 2a6e FF        		.byte	-1
 12143 2a6f FF        		.byte	-1
 12144 2a70 FF        		.byte	-1
 12145 2a71 FF        		.byte	-1
 12146 2a72 FF        		.byte	-1
 12147 2a73 FF        		.byte	-1
 12148 2a74 FF        		.byte	-1
 12149 2a75 FF        		.byte	-1
 12150 2a76 FF        		.byte	-1
 12151 2a77 FF        		.byte	-1
 12152 2a78 FF        		.byte	-1
GAS LISTING /tmp/ccEQRkCa.s 			page 217


 12153 2a79 FF        		.byte	-1
 12154 2a7a FF        		.byte	-1
 12155 2a7b FF        		.byte	-1
 12156 2a7c FF        		.byte	-1
 12157 2a7d FF        		.byte	-1
 12158 2a7e FF        		.byte	-1
 12159 2a7f FF        		.byte	-1
 12160 2a80 FF        		.byte	-1
 12161 2a81 FF        		.byte	-1
 12162 2a82 FF        		.byte	-1
 12163 2a83 FF        		.byte	-1
 12164 2a84 FF        		.byte	-1
 12165 2a85 FF        		.byte	-1
 12166 2a86 FF        		.byte	-1
 12167 2a87 FF        		.byte	-1
 12168 2a88 FF        		.byte	-1
 12169 2a89 00        		.byte	0
 12170 2a8a 00        		.byte	0
 12171 2a8b FF        		.byte	-1
 12172 2a8c FF        		.byte	-1
 12173 2a8d FF        		.byte	-1
 12174 2a8e FF        		.byte	-1
 12175 2a8f FF        		.byte	-1
 12176 2a90 FF        		.byte	-1
 12177 2a91 FF        		.byte	-1
 12178 2a92 FF        		.byte	-1
 12179 2a93 FF        		.byte	-1
 12180 2a94 FF        		.byte	-1
 12181 2a95 FF        		.byte	-1
 12182 2a96 FF        		.byte	-1
 12183 2a97 FF        		.byte	-1
 12184 2a98 FF        		.byte	-1
 12185 2a99 FF        		.byte	-1
 12186 2a9a FF        		.byte	-1
 12187 2a9b FF        		.byte	-1
 12188 2a9c FF        		.byte	-1
 12189 2a9d FF        		.byte	-1
 12190 2a9e FF        		.byte	-1
 12191 2a9f FF        		.byte	-1
 12192 2aa0 FF        		.byte	-1
 12193 2aa1 FF        		.byte	-1
 12194 2aa2 FF        		.byte	-1
 12195 2aa3 FF        		.byte	-1
 12196 2aa4 FF        		.byte	-1
 12197 2aa5 FF        		.byte	-1
 12198 2aa6 FF        		.byte	-1
 12199 2aa7 FF        		.byte	-1
 12200 2aa8 FF        		.byte	-1
 12201 2aa9 FF        		.byte	-1
 12202 2aaa FF        		.byte	-1
 12203 2aab FF        		.byte	-1
 12204 2aac FF        		.byte	-1
 12205 2aad FF        		.byte	-1
 12206 2aae FF        		.byte	-1
 12207 2aaf FF        		.byte	-1
 12208 2ab0 FF        		.byte	-1
 12209 2ab1 FF        		.byte	-1
GAS LISTING /tmp/ccEQRkCa.s 			page 218


 12210 2ab2 FF        		.byte	-1
 12211 2ab3 FF        		.byte	-1
 12212 2ab4 FF        		.byte	-1
 12213 2ab5 FF        		.byte	-1
 12214 2ab6 FF        		.byte	-1
 12215 2ab7 00        		.byte	0
 12216 2ab8 00        		.byte	0
 12217 2ab9 00        		.byte	0
 12218 2aba 00        		.byte	0
 12219 2abb 00        		.byte	0
 12220 2abc 00        		.byte	0
 12221 2abd 00        		.byte	0
 12222 2abe 00        		.byte	0
 12223 2abf 00        		.byte	0
 12224 2ac0 00        		.byte	0
 12225 2ac1 00        		.byte	0
 12226 2ac2 00        		.byte	0
 12227 2ac3 00        		.byte	0
 12228 2ac4 00        		.byte	0
 12229 2ac5 00        		.byte	0
 12230 2ac6 00        		.byte	0
 12231 2ac7 00        		.byte	0
 12232 2ac8 00        		.byte	0
 12233 2ac9 00        		.byte	0
 12234 2aca 00        		.byte	0
 12235 2acb 00        		.byte	0
 12236 2acc 00        		.byte	0
 12237 2acd 00        		.byte	0
 12238 2ace 00        		.byte	0
 12239 2acf 00        		.byte	0
 12240 2ad0 00        		.byte	0
 12241 2ad1 00        		.byte	0
 12242 2ad2 00        		.byte	0
 12243 2ad3 00        		.byte	0
 12244 2ad4 00        		.byte	0
 12245 2ad5 00        		.byte	0
 12246 2ad6 00        		.byte	0
 12247 2ad7 00        		.byte	0
 12248 2ad8 00        		.byte	0
 12249 2ad9 00        		.byte	0
 12250 2ada 00        		.byte	0
 12251 2adb 00        		.byte	0
 12252 2adc 00        		.byte	0
 12253 2add 00        		.byte	0
 12254 2ade 00        		.byte	0
 12255 2adf 00        		.byte	0
 12256 2ae0 00        		.byte	0
 12257 2ae1 00        		.byte	0
 12258 2ae2 00        		.byte	0
 12259 2ae3 00        		.byte	0
 12260 2ae4 00        		.byte	0
 12261 2ae5 00        		.byte	0
 12262 2ae6 00        		.byte	0
 12263 2ae7 00        		.byte	0
 12264 2ae8 00        		.byte	0
 12265 2ae9 00        		.byte	0
 12266 2aea 00        		.byte	0
GAS LISTING /tmp/ccEQRkCa.s 			page 219


 12267 2aeb 00        		.byte	0
 12268 2aec 00        		.byte	0
 12269 2aed 00        		.byte	0
 12270 2aee 00        		.byte	0
 12271 2aef 00        		.byte	0
 12272 2af0 00        		.byte	0
 12273 2af1 00        		.byte	0
 12274 2af2 00        		.byte	0
 12275 2af3 00        		.byte	0
 12276 2af4 00        		.byte	0
 12277 2af5 00        		.byte	0
 12278 2af6 00        		.byte	0
 12279 2af7 00        		.byte	0
 12280 2af8 00        		.byte	0
 12281 2af9 00        		.byte	0
 12282 2afa 00        		.byte	0
 12283 2afb 00        		.byte	0
 12284 2afc 00        		.byte	0
 12285 2afd 00        		.byte	0
 12286 2afe 00        		.byte	0
 12287 2aff 00        		.byte	0
 12288 2b00 00        		.byte	0
 12289 2b01 00        		.byte	0
 12290 2b02 00        		.byte	0
 12291 2b03 00        		.byte	0
 12292 2b04 00        		.byte	0
 12293 2b05 00        		.byte	0
 12294 2b06 00        		.byte	0
 12295 2b07 00        		.byte	0
 12296 2b08 00        		.byte	0
 12297 2b09 00        		.byte	0
 12298 2b0a 00        		.byte	0
 12299 2b0b 00        		.byte	0
 12300 2b0c 00        		.byte	0
 12301 2b0d 00        		.byte	0
 12302 2b0e 00        		.byte	0
 12303 2b0f 00        		.byte	0
 12304 2b10 00        		.byte	0
 12305 2b11 00        		.byte	0
 12306 2b12 00        		.byte	0
 12307 2b13 00        		.byte	0
 12308 2b14 00        		.byte	0
 12309 2b15 00        		.byte	0
 12310 2b16 00        		.byte	0
 12311 2b17 00        		.byte	0
 12312 2b18 00        		.byte	0
 12313 2b19 00        		.byte	0
 12314 2b1a 00        		.byte	0
 12315 2b1b 00        		.byte	0
 12316 2b1c 00        		.byte	0
 12317 2b1d 00        		.byte	0
 12318 2b1e 00        		.byte	0
 12319 2b1f 00        		.byte	0
 12320 2b20 00        		.byte	0
 12321 2b21 00        		.byte	0
 12322 2b22 00        		.byte	0
 12323 2b23 00        		.byte	0
GAS LISTING /tmp/ccEQRkCa.s 			page 220


 12324 2b24 00        		.byte	0
 12325 2b25 00        		.byte	0
 12326 2b26 00        		.byte	0
 12327 2b27 00        		.byte	0
 12328 2b28 00        		.byte	0
 12329 2b29 00        		.byte	0
 12330 2b2a 00        		.byte	0
 12331 2b2b 00        		.byte	0
 12332 2b2c 00        		.byte	0
 12333 2b2d 00        		.byte	0
 12334 2b2e 00        		.byte	0
 12335 2b2f 00        		.byte	0
 12336 2b30 00        		.byte	0
 12337 2b31 00        		.byte	0
 12338 2b32 00        		.byte	0
 12339 2b33 00        		.byte	0
 12340 2b34 00        		.byte	0
 12341 2b35 00        		.byte	0
 12342 2b36 00        		.byte	0
 12343 2b37 00        		.byte	0
 12344 2b38 00        		.byte	0
 12345 2b39 00        		.byte	0
 12346 2b3a 00        		.byte	0
 12347 2b3b 00        		.byte	0
 12348 2b3c 00        		.byte	0
 12349 2b3d 00        		.byte	0
 12350 2b3e 00        		.byte	0
 12351 2b3f 00        		.byte	0
 12352 2b40 00        		.byte	0
 12353 2b41 00        		.byte	0
 12354 2b42 00        		.byte	0
 12355 2b43 00        		.byte	0
 12356 2b44 00        		.byte	0
 12357 2b45 00        		.byte	0
 12358 2b46 00        		.byte	0
 12359 2b47 00        		.byte	0
 12360 2b48 00        		.byte	0
 12361 2b49 00        		.byte	0
 12362 2b4a 00        		.byte	0
 12363 2b4b 00        		.byte	0
 12364 2b4c 00        		.byte	0
 12365 2b4d 00        		.byte	0
 12366 2b4e 00        		.byte	0
 12367 2b4f 00        		.byte	0
 12368 2b50 00        		.byte	0
 12369 2b51 00        		.byte	0
 12370 2b52 00        		.byte	0
 12371 2b53 00        		.byte	0
 12372 2b54 00        		.byte	0
 12373 2b55 00        		.byte	0
 12374 2b56 00        		.byte	0
 12375 2b57 00        		.byte	0
 12376 2b58 00        		.byte	0
 12377 2b59 00        		.byte	0
 12378 2b5a 00        		.byte	0
 12379 2b5b 00        		.byte	0
 12380 2b5c 00        		.byte	0
GAS LISTING /tmp/ccEQRkCa.s 			page 221


 12381 2b5d 00        		.byte	0
 12382 2b5e 00        		.byte	0
 12383 2b5f 00        		.byte	0
 12384 2b60 00        		.byte	0
 12385 2b61 00        		.byte	0
 12386 2b62 00        		.byte	0
 12387 2b63 00        		.byte	0
 12388 2b64 00        		.byte	0
 12389 2b65 00        		.byte	0
 12390 2b66 00        		.byte	0
 12391 2b67 00        		.byte	0
 12392 2b68 00        		.byte	0
 12393 2b69 00        		.byte	0
 12394 2b6a 00        		.byte	0
 12395 2b6b 00        		.byte	0
 12396 2b6c 00        		.byte	0
 12397 2b6d 00        		.byte	0
 12398 2b6e 00        		.byte	0
 12399 2b6f 00        		.byte	0
 12400 2b70 00        		.byte	0
 12401 2b71 00        		.byte	0
 12402 2b72 00        		.byte	0
 12403 2b73 FF        		.byte	-1
 12404 2b74 FF        		.byte	-1
 12405 2b75 FF        		.byte	-1
 12406 2b76 FF        		.byte	-1
 12407 2b77 FF        		.byte	-1
 12408 2b78 FF        		.byte	-1
 12409 2b79 FF        		.byte	-1
 12410 2b7a FF        		.byte	-1
 12411 2b7b FF        		.byte	-1
 12412 2b7c FF        		.byte	-1
 12413 2b7d FF        		.byte	-1
 12414 2b7e FF        		.byte	-1
 12415 2b7f FF        		.byte	-1
 12416 2b80 FF        		.byte	-1
 12417 2b81 FF        		.byte	-1
 12418 2b82 FF        		.byte	-1
 12419 2b83 FF        		.byte	-1
 12420 2b84 FF        		.byte	-1
 12421 2b85 FF        		.byte	-1
 12422 2b86 FF        		.byte	-1
 12423 2b87 FF        		.byte	-1
 12424 2b88 FF        		.byte	-1
 12425 2b89 FF        		.byte	-1
 12426 2b8a FF        		.byte	-1
 12427 2b8b FF        		.byte	-1
 12428 2b8c FF        		.byte	-1
 12429 2b8d FF        		.byte	-1
 12430 2b8e FF        		.byte	-1
 12431 2b8f FF        		.byte	-1
 12432 2b90 FF        		.byte	-1
 12433 2b91 FF        		.byte	-1
 12434 2b92 FF        		.byte	-1
 12435 2b93 FF        		.byte	-1
 12436 2b94 FF        		.byte	-1
 12437 2b95 FF        		.byte	-1
GAS LISTING /tmp/ccEQRkCa.s 			page 222


 12438 2b96 FF        		.byte	-1
 12439 2b97 FF        		.byte	-1
 12440 2b98 FF        		.byte	-1
 12441 2b99 FF        		.byte	-1
 12442 2b9a FF        		.byte	-1
 12443 2b9b FF        		.byte	-1
 12444 2b9c FF        		.byte	-1
 12445 2b9d FF        		.byte	-1
 12446 2b9e FF        		.byte	-1
 12447 2b9f FF        		.byte	-1
 12448 2ba0 FF        		.byte	-1
 12450               	.global	lfsr
 12451               		.data
 12454               	lfsr:
 12455 0000 E1AC      		.word	-21279
 12457               	.global	wavedone
 12458               		.section .bss
 12461               	wavedone:
 12462 0000 00        		.zero	1
 12464               	.global	sample1Count
 12467               	sample1Count:
 12468 0001 0000      		.zero	2
 12470               	.global	sample0Count
 12473               	sample0Count:
 12474 0003 0000      		.zero	2
 12476               	.global	sampleCount
 12479               	sampleCount:
 12480 0005 0000      		.zero	2
 12482               		.comm	fade_out_mode,1,1
 12484               		.comm	fade_in_mode,1,1
 12486               		.comm	fade_out,2,1
 12488               		.comm	fade_in,2,1
 12490               		.comm	mode_button,1,1
 12492               		.comm	mode,1,1
 12494               		.comm	frametimer,2,1
 12496               		.comm	volume1,1,1
 12498               		.comm	volume,1,1
 12500               		.comm	speed_rec1,1,1
 12502               		.comm	speed1,1,1
 12504               		.comm	speed_rec,1,1
 12506               		.comm	speed,1,1
 12508               		.comm	voiceptr,2,1
 12510               		.comm	wave1,1,1
 12512               		.comm	wave0,1,1
 12514               		.comm	wave,1,1
 12516               	.global	freq_rs
 12517               		.data
 12520               	freq_rs:
 12521 0002 77        		.byte	119
 12522 0003 71        		.byte	113
 12523 0004 6A        		.byte	106
 12524 0005 64        		.byte	100
 12525 0006 5F        		.byte	95
 12526 0007 59        		.byte	89
 12527 0008 7F        		.byte	127
 12528 0009 50        		.byte	80
 12529 000a 71        		.byte	113
GAS LISTING /tmp/ccEQRkCa.s 			page 223


 12530 000b 47        		.byte	71
 12531 000c 43        		.byte	67
 12532 000d 5F        		.byte	95
 12533 000e 77        		.byte	119
 12534 000f 71        		.byte	113
 12535 0010 50        		.byte	80
 12536 0011 7E        		.byte	126
 12537 0012 47        		.byte	71
 12538 0013 70        		.byte	112
 12539 0014 7F        		.byte	127
 12540 0015 50        		.byte	80
 12541 0016 5E        		.byte	94
 12542 0017 47        		.byte	71
 12543 0018 43        		.byte	67
 12544 0019 5F        		.byte	95
 12545 001a 77        		.byte	119
 12546 001b 7F        		.byte	127
 12547 001c 5D        		.byte	93
 12548 001d 71        		.byte	113
 12549 001e 53        		.byte	83
 12550 001f 7B        		.byte	123
 12551 0020 5F        		.byte	95
 12552 0021 46        		.byte	70
 12553 0022 5E        		.byte	94
 12554 0023 47        		.byte	71
 12555 0024 43        		.byte	67
 12556 0025 57        		.byte	87
 12557 0026 70        		.byte	112
 12558 0027 7F        		.byte	127
 12559 0028 71        		.byte	113
 12560 0029 71        		.byte	113
 12561 002a 4D        		.byte	77
 12562 002b 7B        		.byte	123
 12563 002c 5F        		.byte	95
 12564 002d 41        		.byte	65
 12565 002e 7F        		.byte	127
 12566 002f 6F        		.byte	111
 12567 0030 58        		.byte	88
 12568 0031 57        		.byte	87
 12569 0032 70        		.byte	112
 12570 0033 4A        		.byte	74
 12571 0034 7B        		.byte	123
 12572 0035 71        		.byte	113
 12573 0036 50        		.byte	80
 12574 0037 7B        		.byte	123
 12575 0038 5F        		.byte	95
 12576 0039 7F        		.byte	127
 12577 003a 57        		.byte	87
 12578 003b 5B        		.byte	91
 12579 003c 58        		.byte	88
 12580 003d 57        		.byte	87
 12581 003e 54        		.byte	84
 12582 003f 4A        		.byte	74
 12583 0040 80        		.byte	-128
 12584 0041 71        		.byte	113
 12585 0042 50        		.byte	80
 12586 0043 7B        		.byte	123
GAS LISTING /tmp/ccEQRkCa.s 			page 224


 12587 0044 80        		.byte	-128
 12588 0045 47        		.byte	71
 12589 0046 57        		.byte	87
 12590 0047 5B        		.byte	91
 12591 0048 42        		.byte	66
 12592 0049 80        		.byte	-128
 12593 004a 80        		.byte	-128
 12594 004b 80        		.byte	-128
 12595 004c 80        		.byte	-128
 12596 004d 80        		.byte	-128
 12597 004e 80        		.byte	-128
 12598 004f 80        		.byte	-128
 12599 0050 80        		.byte	-128
 12600 0051 80        		.byte	-128
 12601 0052 80        		.byte	-128
 12602 0053 80        		.byte	-128
 12603 0054 80        		.byte	-128
 12604 0055 80        		.byte	-128
 12605 0056 80        		.byte	-128
 12607               	.global	freq_s
 12610               	freq_s:
 12611 0057 02        		.byte	2
 12612 0058 02        		.byte	2
 12613 0059 02        		.byte	2
 12614 005a 02        		.byte	2
 12615 005b 02        		.byte	2
 12616 005c 02        		.byte	2
 12617 005d 03        		.byte	3
 12618 005e 02        		.byte	2
 12619 005f 03        		.byte	3
 12620 0060 02        		.byte	2
 12621 0061 02        		.byte	2
 12622 0062 03        		.byte	3
 12623 0063 04        		.byte	4
 12624 0064 04        		.byte	4
 12625 0065 03        		.byte	3
 12626 0066 05        		.byte	5
 12627 0067 03        		.byte	3
 12628 0068 05        		.byte	5
 12629 0069 06        		.byte	6
 12630 006a 04        		.byte	4
 12631 006b 05        		.byte	5
 12632 006c 04        		.byte	4
 12633 006d 04        		.byte	4
 12634 006e 06        		.byte	6
 12635 006f 08        		.byte	8
 12636 0070 09        		.byte	9
 12637 0071 07        		.byte	7
 12638 0072 09        		.byte	9
 12639 0073 07        		.byte	7
 12640 0074 0B        		.byte	11
 12641 0075 09        		.byte	9
 12642 0076 07        		.byte	7
 12643 0077 0A        		.byte	10
 12644 0078 08        		.byte	8
 12645 0079 08        		.byte	8
 12646 007a 0B        		.byte	11
GAS LISTING /tmp/ccEQRkCa.s 			page 225


 12647 007b 0F        		.byte	15
 12648 007c 12        		.byte	18
 12649 007d 11        		.byte	17
 12650 007e 12        		.byte	18
 12651 007f 0D        		.byte	13
 12652 0080 16        		.byte	22
 12653 0081 12        		.byte	18
 12654 0082 0D        		.byte	13
 12655 0083 1B        		.byte	27
 12656 0084 19        		.byte	25
 12657 0085 15        		.byte	21
 12658 0086 16        		.byte	22
 12659 0087 1E        		.byte	30
 12660 0088 15        		.byte	21
 12661 0089 25        		.byte	37
 12662 008a 24        		.byte	36
 12663 008b 1B        		.byte	27
 12664 008c 2C        		.byte	44
 12665 008d 24        		.byte	36
 12666 008e 33        		.byte	51
 12667 008f 25        		.byte	37
 12668 0090 29        		.byte	41
 12669 0091 2A        		.byte	42
 12670 0092 2C        		.byte	44
 12671 0093 2D        		.byte	45
 12672 0094 2A        		.byte	42
 12673 0095 4D        		.byte	77
 12674 0096 48        		.byte	72
 12675 0097 36        		.byte	54
 12676 0098 58        		.byte	88
 12677 0099 61        		.byte	97
 12678 009a 39        		.byte	57
 12679 009b 4A        		.byte	74
 12680 009c 52        		.byte	82
 12681 009d 3F        		.byte	63
 12682 009e 7E        		.byte	126
 12683 009f 7E        		.byte	126
 12684 00a0 7E        		.byte	126
 12685 00a1 7E        		.byte	126
 12686 00a2 7E        		.byte	126
 12687 00a3 7E        		.byte	126
 12688 00a4 7E        		.byte	126
 12689 00a5 7E        		.byte	126
 12690 00a6 7E        		.byte	126
 12691 00a7 7E        		.byte	126
 12692 00a8 7E        		.byte	126
 12693 00a9 7E        		.byte	126
 12694 00aa 7E        		.byte	126
 12695 00ab 7E        		.byte	126
 12697               		.text
 12699               	.Letext0:
 12700               		.ident	"GCC: (GNU) 7.2.0"
 12701               	.global __do_copy_data
 12702               	.global __do_clear_bss
GAS LISTING /tmp/ccEQRkCa.s 			page 226


DEFINED SYMBOLS
                            *ABS*:0000000000000000 util.c
     /tmp/ccEQRkCa.s:2      *ABS*:000000000000003e __SP_H__
     /tmp/ccEQRkCa.s:3      *ABS*:000000000000003d __SP_L__
     /tmp/ccEQRkCa.s:4      *ABS*:000000000000003f __SREG__
     /tmp/ccEQRkCa.s:5      *ABS*:0000000000000000 __tmp_reg__
     /tmp/ccEQRkCa.s:6      *ABS*:0000000000000001 __zero_reg__
     /tmp/ccEQRkCa.s:115    .text:0000000000000000 voiceQuicklySleep
     /tmp/ccEQRkCa.s:136    .text:0000000000000004 GetFrametimer
                            *COM*:0000000000000002 frametimer
     /tmp/ccEQRkCa.s:177    .text:0000000000000012 GetRandom
     /tmp/ccEQRkCa.s:12454  .data:0000000000000000 lfsr
     /tmp/ccEQRkCa.s:237    .text:0000000000000060 __vector_14
     /tmp/ccEQRkCa.s:263    .text:0000000000000062 __vector_16
     /tmp/ccEQRkCa.s:287    .text:0000000000000074 intcont
     /tmp/ccEQRkCa.s:284    .text:0000000000000070 make_zero
                            *COM*:0000000000000002 voiceptr
                            *COM*:0000000000000001 wave
     /tmp/ccEQRkCa.s:430    .text:0000000000000118 voicePlayWave
     /tmp/ccEQRkCa.s:12473  .bss:0000000000000003 sample0Count
     /tmp/ccEQRkCa.s:6016   .progmem.data:0000000000001281 aud0dat
                            *COM*:0000000000000001 wave0
     /tmp/ccEQRkCa.s:12467  .bss:0000000000000001 sample1Count
     /tmp/ccEQRkCa.s:1274   .progmem.data:0000000000000000 aud1dat
                            *COM*:0000000000000001 wave1
     /tmp/ccEQRkCa.s:12461  .bss:0000000000000000 wavedone
     /tmp/ccEQRkCa.s:610    .text:000000000000022a voiceDoSquare
     /tmp/ccEQRkCa.s:12479  .bss:0000000000000005 sampleCount
                            *COM*:0000000000000001 speed1
                            *COM*:0000000000000001 speed
     /tmp/ccEQRkCa.s:702    .text:00000000000002ce voiceDoBasicSynth
     /tmp/ccEQRkCa.s:1265   .bss:000000000000000e up.1869
                            *COM*:0000000000000001 speed_rec
     /tmp/ccEQRkCa.s:1262   .bss:000000000000000d up1.1870
                            *COM*:0000000000000001 speed_rec1
                            *COM*:0000000000000001 volume
     /tmp/ccEQRkCa.s:927    .text:0000000000000434 voiceTunedNoise
     /tmp/ccEQRkCa.s:1259   .bss:000000000000000c mark_s.1873
     /tmp/ccEQRkCa.s:974    .text:0000000000000462 voiceDrums
     /tmp/ccEQRkCa.s:1256   .bss:000000000000000b drum_s.1877
     /tmp/ccEQRkCa.s:1253   .bss:000000000000000a drum_f.1878
     /tmp/ccEQRkCa.s:1250   .bss:0000000000000008 ticks.1879
                            *COM*:0000000000000002 fade_out
                            *COM*:0000000000000001 fade_out_mode
     /tmp/ccEQRkCa.s:1085   .text:0000000000000500 voiceNoise
                             .bss:0000000000000007 speedmark.1884
     /tmp/ccEQRkCa.s:1132   .text:000000000000052e ReadButtonMask
                            *COM*:0000000000000001 fade_in_mode
                            *COM*:0000000000000002 fade_in
                            *COM*:0000000000000001 mode_button
                            *COM*:0000000000000001 mode
                            *COM*:0000000000000001 volume1
     /tmp/ccEQRkCa.s:12520  .data:0000000000000002 freq_rs
     /tmp/ccEQRkCa.s:12610  .data:0000000000000057 freq_s

UNDEFINED SYMBOLS
__udivmodhi4
GAS LISTING /tmp/ccEQRkCa.s 			page 227


__do_copy_data
__do_clear_bss
