GAS LISTING /tmp/ccdhZXtX.s 			page 1


   1               		.file	"main.c"
   2               	__SP_H__ = 0x3e
   3               	__SP_L__ = 0x3d
   4               	__SREG__ = 0x3f
   5               	__tmp_reg__ = 0
   6               	__zero_reg__ = 1
   9               		.text
  10               	.Ltext0:
 107               		.section	.text.startup,"ax",@progbits
 109               	.global	main
 111               	main:
 112               		.stabd	46,0,0
   1:main.c        **** #include <avr/io.h>
   2:main.c        **** #include <avr/interrupt.h>
   3:main.c        **** #include <util/delay.h>
   4:main.c        **** #include <avr/pgmspace.h>
   5:main.c        **** #include "util.h"
   6:main.c        **** 
   7:main.c        **** 
   8:main.c        **** register int8_t wave asm("r2");
   9:main.c        **** 
  10:main.c        **** 
  11:main.c        **** int main()
  12:main.c        **** {
 114               	.LM0:
 115               	.LFBB1:
 116               	/* prologue: function */
 117               	/* frame size = 0 */
 118               	/* stack size = 0 */
 119               	.L__stack_usage = 0
  13:main.c        **** 	CLKPR=0x80;
 121               	.LM1:
 122 0000 80E8      		ldi r24,lo8(-128)
 123 0002 8093 6100 		sts 97,r24
  14:main.c        **** 	CLKPR=0x01;
 125               	.LM2:
 126 0006 81E0      		ldi r24,lo8(1)
 127 0008 8093 6100 		sts 97,r24
  15:main.c        **** 
  16:main.c        **** 	//Set outputs to be: Speaker and TX light.
  17:main.c        **** 	DDRD = (_BV(3) | _BV(5) | _BV(6) | _BV(1) );
 129               	.LM3:
 130 000c 9AE6      		ldi r25,lo8(106)
 131 000e 9AB9      		out 0xa,r25
  18:main.c        **** 	DDRB = _BV(3);
 133               	.LM4:
 134 0010 98E0      		ldi r25,lo8(8)
 135 0012 94B9      		out 0x4,r25
  19:main.c        **** 
  20:main.c        **** //_BV(COM0A1) |
  21:main.c        **** //_BV(COM0B1) | 
  22:main.c        **** 	TCCR0A = _BV(COM0B1) | _BV(COM0A1) | _BV(WGM01) | _BV(WGM00); //Phase correct PWM on TCCR0A, Clear
 137               	.LM5:
 138 0014 93EA      		ldi r25,lo8(-93)
 139 0016 94BD      		out 0x24,r25
  23:main.c        **** 	TCCR0B = _BV(CS00);
 141               	.LM6:
GAS LISTING /tmp/ccdhZXtX.s 			page 2


 142 0018 85BD      		out 0x25,r24
  24:main.c        **** 	TIMSK0 |= _BV(TOIE0);// | _BV(OCIE0A);
 144               	.LM7:
 145 001a 8091 6E00 		lds r24,110
 146 001e 8160      		ori r24,lo8(1)
 147 0020 8093 6E00 		sts 110,r24
  25:main.c        **** 	OCR0A = OCR0B = 255;
 149               	.LM8:
 150 0024 8FEF      		ldi r24,lo8(-1)
 151 0026 88BD      		out 0x28,r24
 152 0028 87BD      		out 0x27,r24
  26:main.c        **** 	//DDRD &= ~_BV(5);
  27:main.c        **** 	//DDRD |= _BV(6);
  28:main.c        **** 	//DDRD &= ~_BV(6);
  29:main.c        **** 
  30:main.c        **** 
  31:main.c        **** 
  32:main.c        **** 	PORTB |= _BV(0) | _BV(1) | _BV(4) | _BV(5);
 154               	.LM9:
 155 002a 85B1      		in r24,0x5
 156 002c 8363      		ori r24,lo8(51)
 157 002e 85B9      		out 0x5,r24
  33:main.c        **** 	PORTC |= 0x3f;
 159               	.LM10:
 160 0030 88B1      		in r24,0x8
 161 0032 8F63      		ori r24,lo8(63)
 162 0034 88B9      		out 0x8,r24
  34:main.c        **** 	PORTD |= _BV(0) | _BV(2) | _BV(4) | _BV(7);
 164               	.LM11:
 165 0036 8BB1      		in r24,0xb
 166 0038 8569      		ori r24,lo8(-107)
 167 003a 8BB9      		out 0xb,r24
  35:main.c        **** 	PORTE |= _BV(3) | _BV(2) | _BV(1);
 169               	.LM12:
 170 003c 8EB1      		in r24,0xe
 171 003e 8E60      		ori r24,lo8(14)
 172 0040 8EB9      		out 0xe,r24
  36:main.c        **** 
  37:main.c        **** 	sei();
 174               	.LM13:
 175               	/* #APP */
 176               	 ;  37 "main.c" 1
 177 0042 7894      		sei
 178               	 ;  0 "" 2
 179               	/* #NOAPP */
 180               	.LBB2:
  38:main.c        **** 
  39:main.c        **** 
  40:main.c        **** 
  41:main.c        **** 
  42:main.c        **** 	while(1)
  43:main.c        **** 	{
  44:main.c        **** 		uint8_t ts = 0;
  45:main.c        **** 		uint8_t i;
  46:main.c        **** 		i = PINB;
  47:main.c        **** 		if( !( i & _BV(0) ) ) voiceptr = &voicePlayWave;
 182               	.LM14:
GAS LISTING /tmp/ccdhZXtX.s 			page 3


 183 0044 20E0      		ldi r18,lo8(gs(voicePlayWave))
 184 0046 30E0      		ldi r19,hi8(gs(voicePlayWave))
  48:main.c        **** 		if( !( i & _BV(1) ) ) ts = 3;
  49:main.c        **** 		if( !( i & _BV(4) ) ) ts = 4; //SUSPECT
  50:main.c        **** 		if( !( i & _BV(5) ) ) ts = 16;
  51:main.c        **** 		i = PINC;
  52:main.c        **** 		if( !( i & _BV(0) ) ) ts = 5;
  53:main.c        **** 		if( !( i & _BV(1) ) ) ts = 6;
  54:main.c        **** 		if( !( i & _BV(2) ) ) ts = 17; // /SUSPECT
  55:main.c        **** 		if( !( i & _BV(3) ) ) ts = 8; // /SUSPECT
  56:main.c        **** 		if( !( i & _BV(5) ) ) ts = 9;
  57:main.c        **** 		if( !( i & _BV(4) ) ) ts = 16;
  58:main.c        **** 		i = PIND;
  59:main.c        **** 		if( !( i & _BV(0) ) ) ts = 10;
  60:main.c        **** 		if( !( i & _BV(2) ) ) ts = 11;
  61:main.c        **** 		if( !( i & _BV(4) ) ) ts = 12;
  62:main.c        **** 		if( !( i & _BV(7) ) ) ts = 13;
  63:main.c        **** 		i = PINE;
  64:main.c        **** 		if( !( i & _BV(1) ) ) ts = 18;
  65:main.c        **** 		if( !( i & _BV(2) ) ) ts = 14;
  66:main.c        **** 		if( !( i & _BV(3) ) ) ts = 15;
  67:main.c        **** 		speed = ts;
  68:main.c        **** 		if( ts != 0 )
  69:main.c        **** 		{
  70:main.c        **** 			voiceptr = &voiceDoBasicSynth;
 186               	.LM15:
 187 0048 40E0      		ldi r20,lo8(gs(voiceDoBasicSynth))
 188 004a 50E0      		ldi r21,hi8(gs(voiceDoBasicSynth))
 189               	.L2:
  46:main.c        **** 		if( !( i & _BV(0) ) ) voiceptr = &voicePlayWave;
 191               	.LM16:
 192 004c 93B1      		in r25,0x3
  47:main.c        **** 		if( !( i & _BV(1) ) ) ts = 3;
 194               	.LM17:
 195 004e 90FD      		sbrc r25,0
 196 0050 00C0      		rjmp .L3
  47:main.c        **** 		if( !( i & _BV(1) ) ) ts = 3;
 198               	.LM18:
 199 0052 3093 0000 		sts voiceptr+1,r19
 200 0056 2093 0000 		sts voiceptr,r18
 201               	.L3:
  48:main.c        **** 		if( !( i & _BV(1) ) ) ts = 3;
 203               	.LM19:
 204 005a 91FD      		sbrc r25,1
 205 005c 00C0      		rjmp .L22
 206 005e 83E0      		ldi r24,lo8(3)
 207 0060 00C0      		rjmp .L4
 208               	.L22:
  44:main.c        **** 		uint8_t i;
 210               	.LM20:
 211 0062 80E0      		ldi r24,0
 212               	.L4:
  49:main.c        **** 		if( !( i & _BV(5) ) ) ts = 16;
 214               	.LM21:
 215 0064 94FF      		sbrs r25,4
 216 0066 84E0      		ldi r24,lo8(4)
 217               	.L5:
GAS LISTING /tmp/ccdhZXtX.s 			page 4


  50:main.c        **** 		i = PINC;
 219               	.LM22:
 220 0068 95FF      		sbrs r25,5
 221 006a 80E1      		ldi r24,lo8(16)
 222               	.L6:
  51:main.c        **** 		if( !( i & _BV(0) ) ) ts = 5;
 224               	.LM23:
 225 006c 96B1      		in r25,0x6
  52:main.c        **** 		if( !( i & _BV(1) ) ) ts = 6;
 227               	.LM24:
 228 006e 90FF      		sbrs r25,0
 229 0070 85E0      		ldi r24,lo8(5)
 230               	.L7:
  53:main.c        **** 		if( !( i & _BV(2) ) ) ts = 17; // /SUSPECT
 232               	.LM25:
 233 0072 91FF      		sbrs r25,1
 234 0074 86E0      		ldi r24,lo8(6)
 235               	.L8:
  54:main.c        **** 		if( !( i & _BV(3) ) ) ts = 8; // /SUSPECT
 237               	.LM26:
 238 0076 92FF      		sbrs r25,2
 239 0078 81E1      		ldi r24,lo8(17)
 240               	.L9:
  55:main.c        **** 		if( !( i & _BV(5) ) ) ts = 9;
 242               	.LM27:
 243 007a 93FF      		sbrs r25,3
 244 007c 88E0      		ldi r24,lo8(8)
 245               	.L10:
  56:main.c        **** 		if( !( i & _BV(4) ) ) ts = 16;
 247               	.LM28:
 248 007e 95FF      		sbrs r25,5
 249 0080 89E0      		ldi r24,lo8(9)
 250               	.L11:
  57:main.c        **** 		i = PIND;
 252               	.LM29:
 253 0082 94FF      		sbrs r25,4
 254 0084 80E1      		ldi r24,lo8(16)
 255               	.L12:
  58:main.c        **** 		if( !( i & _BV(0) ) ) ts = 10;
 257               	.LM30:
 258 0086 99B1      		in r25,0x9
  59:main.c        **** 		if( !( i & _BV(2) ) ) ts = 11;
 260               	.LM31:
 261 0088 90FF      		sbrs r25,0
 262 008a 8AE0      		ldi r24,lo8(10)
 263               	.L13:
  60:main.c        **** 		if( !( i & _BV(4) ) ) ts = 12;
 265               	.LM32:
 266 008c 92FF      		sbrs r25,2
 267 008e 8BE0      		ldi r24,lo8(11)
 268               	.L14:
  61:main.c        **** 		if( !( i & _BV(7) ) ) ts = 13;
 270               	.LM33:
 271 0090 94FF      		sbrs r25,4
 272 0092 8CE0      		ldi r24,lo8(12)
 273               	.L15:
  62:main.c        **** 		i = PINE;
GAS LISTING /tmp/ccdhZXtX.s 			page 5


 275               	.LM34:
 276 0094 97FF      		sbrs r25,7
 277 0096 8DE0      		ldi r24,lo8(13)
 278               	.L16:
  63:main.c        **** 		if( !( i & _BV(1) ) ) ts = 18;
 280               	.LM35:
 281 0098 9CB1      		in r25,0xc
  64:main.c        **** 		if( !( i & _BV(2) ) ) ts = 14;
 283               	.LM36:
 284 009a 91FF      		sbrs r25,1
 285 009c 82E1      		ldi r24,lo8(18)
 286               	.L17:
  65:main.c        **** 		if( !( i & _BV(3) ) ) ts = 15;
 288               	.LM37:
 289 009e 92FF      		sbrs r25,2
 290 00a0 8EE0      		ldi r24,lo8(14)
 291               	.L18:
  66:main.c        **** 		speed = ts;
 293               	.LM38:
 294 00a2 93FF      		sbrs r25,3
 295 00a4 8FE0      		ldi r24,lo8(15)
 296               	.L19:
  67:main.c        **** 		if( ts != 0 )
 298               	.LM39:
 299 00a6 8093 0000 		sts speed,r24
  68:main.c        **** 		{
 301               	.LM40:
 302 00aa 8823      		tst r24
 303 00ac 01F0      		breq .L20
 305               	.LM41:
 306 00ae 5093 0000 		sts voiceptr+1,r21
 307 00b2 4093 0000 		sts voiceptr,r20
  71:main.c        **** 			PORTD &=~_BV(1); //LED
 309               	.LM42:
 310 00b6 5998      		cbi 0xb,1
 311 00b8 00C0      		rjmp .L2
 312               	.L20:
  72:main.c        **** 		}
  73:main.c        **** 		else
  74:main.c        **** 		{
  75:main.c        **** 			PORTD |= _BV(1); //LED
 314               	.LM43:
 315 00ba 599A      		sbi 0xb,1
 316 00bc 00C0      		rjmp .L2
 317               	.LBE2:
 322               	.Lscope1:
 324               		.stabd	78,0,0
 326               		.text
 328               	.Letext0:
 329               		.ident	"GCC: (GNU) 4.9.2"
GAS LISTING /tmp/ccdhZXtX.s 			page 6


DEFINED SYMBOLS
                            *ABS*:0000000000000000 main.c
     /tmp/ccdhZXtX.s:2      *ABS*:000000000000003e __SP_H__
     /tmp/ccdhZXtX.s:3      *ABS*:000000000000003d __SP_L__
     /tmp/ccdhZXtX.s:4      *ABS*:000000000000003f __SREG__
     /tmp/ccdhZXtX.s:5      *ABS*:0000000000000000 __tmp_reg__
     /tmp/ccdhZXtX.s:6      *ABS*:0000000000000001 __zero_reg__
     /tmp/ccdhZXtX.s:111    .text.startup:0000000000000000 main

UNDEFINED SYMBOLS
voicePlayWave
voiceDoBasicSynth
voiceptr
speed
GAS LISTING /tmp/ccdhZXtX.s 			page 1


   1               		.file	"util.c"
   2               	__SP_H__ = 0x3e
   3               	__SP_L__ = 0x3d
   4               	__SREG__ = 0x3f
   5               	__tmp_reg__ = 0
   6               	__zero_reg__ = 1
   9               		.text
  10               	.Ltext0:
 110               	.global	voiceQuicklySleep
 112               	voiceQuicklySleep:
 113               		.stabd	46,0,0
   1:util.c        **** #include "util.h"
   2:util.c        **** #include <avr/io.h>
   3:util.c        **** #include <avr/interrupt.h>
   4:util.c        **** #include <util/delay.h>
   5:util.c        **** #include <avr/pgmspace.h>
   6:util.c        **** 
   7:util.c        **** int8_t wave;
   8:util.c        **** 
   9:util.c        **** uint8_t (* volatile voiceptr)();
  10:util.c        **** volatile uint8_t speed;
  11:util.c        **** 
  12:util.c        **** //https://stackoverflow.com/questions/1558321/how-do-i-generate-random-numbers-in-a-microcontroller
  13:util.c        **** 
  14:util.c        **** uint8_t lfsr = 231;
  15:util.c        **** 
  16:util.c        **** uint8_t GetRandom()
  17:util.c        **** {
  18:util.c        **** 	uint8_t input_bit = ((lfsr >> 0) ^ (lfsr >> 2) ^ (lfsr >> 3) ^ (lfsr >> 4)) & 1;
  19:util.c        **** 	lfsr = (lfsr >> 1) | (input_bit << 7);
  20:util.c        **** 	return lfsr;
  21:util.c        **** }
  22:util.c        **** 
  23:util.c        **** 
  24:util.c        **** 
  25:util.c        **** 
  26:util.c        **** ISR( TIMER0_COMPA_vect, ISR_NAKED  )
  27:util.c        **** {
  28:util.c        **** /*	if( wave < 0 )
  29:util.c        **** 	{
  30:util.c        **** 		//Switch the inverting rail.  WARNING: Do we need to put the second rail into high impedance mode
  31:util.c        **** 	}
  32:util.c        **** 	else
  33:util.c        **** 	{
  34:util.c        **** 		//Switch the inverting rail.  WARNING: Do we need to put the second rail into high impedance mode
  35:util.c        **** */
  36:util.c        **** //	}
  37:util.c        **** 	asm( "reti" );
  38:util.c        **** }
  39:util.c        **** 
  40:util.c        **** 
  41:util.c        **** //		mov r25, r2\n\
  42:util.c        **** 		lsl r2\n\
  43:util.c        **** 		out 0x27,r2 /*OCR0A*/ \n\
  44:util.c        **** 		out 0x28,r2 /*OCR0B*/ \n\
  45:util.c        **** 		brcs cont__\n\
  46:util.c        **** 		cbi 0xa,3 /*DDRD |= _BV(3) */\n\
GAS LISTING /tmp/ccdhZXtX.s 			page 2


  47:util.c        **** 		cbi 0x4,3 /*DDRB |= _BV(3) */\n\
  48:util.c        **** cont__:\n\
  49:util.c        **** 		push r0\n\
  50:util.c        **** 
  51:util.c        **** //#define NAKED_T0OVF
  52:util.c        **** 
  53:util.c        **** ISR( TIMER0_OVF_vect, ISR_NAKED )
  54:util.c        **** {
  55:util.c        **** 	asm( "\n\
  56:util.c        **** 		sbis 0x1E, 1	/* If we aren't supposed to do any operations, don't skip the jump to normal operati
  57:util.c        **** 		rjmp intcont\n\
  58:util.c        **** 		sbic 0x1E, 0	/* If _BV(0) is set, continue to the below code. */ \n\
  59:util.c        **** 		rjmp make_zero\n\
  60:util.c        **** 		sbi 0xb,3 /*PORT |= _BV(3) */\n\
  61:util.c        **** 		sbi 0x5,3 /*PORTB |= _BV(3) */\n\
  62:util.c        **** 		rjmp intcont\n\
  63:util.c        **** make_zero:\n\
  64:util.c        **** 		cbi 0xb,3 /*PORTD &=~_BV(3) */\n\
  65:util.c        **** 		cbi 0x5,3 /*PORTB &=~_BV(3) */\n\
  66:util.c        **** intcont:\n\
  67:util.c        **** 		push r0\n\
  68:util.c        **** 		push r1\n\
  69:util.c        **** 		in r0,63 /*Store SREG*/\n\
  70:util.c        **** 		push r0\n\
  71:util.c        **** 		clr r1\n\
  72:util.c        **** 		push r18\n\
  73:util.c        **** 		push r19\n\
  74:util.c        **** 		push r20\n\
  75:util.c        **** 		push r21\n\
  76:util.c        **** 		push r24\n\
  77:util.c        **** 		push r25\n\
  78:util.c        **** 	");
  79:util.c        **** 
  80:util.c        **** 	/*Ok... We can do whatever we want in here, as long as it's fast and before the end we update
  81:util.c        **** 		OCR0A and OCR0B.  That will cause the actual registers to update AFTER the next cycle. */
  82:util.c        **** 
  83:util.c        **** 	//Handle TIM0 OVR.  This happens at 31kHz.
  84:util.c        **** 	if( !voiceptr() )
  85:util.c        **** 	{
  86:util.c        **** 			//This disables the output drive.
  87:util.c        **** 			DDRB &=~_BV(3);
  88:util.c        **** 			DDRD &=~_BV(3);
  89:util.c        **** 			PORTB |= _BV(3);
  90:util.c        **** 			PORTD |= _BV(3);
  91:util.c        **** 			OCR0A = OCR0B = 255;
  92:util.c        **** 			goto end_int;
  93:util.c        **** 	}
  94:util.c        **** 	else
  95:util.c        **** 	{
  96:util.c        **** 		DDRD |= _BV(3);
  97:util.c        **** 		DDRB |= _BV(3);
  98:util.c        **** 	}
  99:util.c        **** 
 100:util.c        **** 	//Tricky: Detect if we're switching states, if so, need to trigger early-interrupt-handler transit
 101:util.c        **** 	//This data is stored in GPIOR0 so we can operate at the beginning of the next interrupt without i
 102:util.c        **** 	if( wave < 0 )
 103:util.c        **** 	{
GAS LISTING /tmp/ccdhZXtX.s 			page 3


 104:util.c        **** 		if( GPIOR0 & _BV(0) )
 105:util.c        **** 			GPIOR0 |= _BV(1); //If transition, trigger.
 106:util.c        **** 		else
 107:util.c        **** 			GPIOR0 &=~_BV(1);
 108:util.c        **** 		GPIOR0 &= ~_BV(0);
 109:util.c        **** 	}
 110:util.c        **** 	else
 111:util.c        **** 	{
 112:util.c        **** 		if( !(GPIOR0 & _BV(0)) )
 113:util.c        **** 			GPIOR0 |= _BV(1); //If transition, trigger.
 114:util.c        **** 		else
 115:util.c        **** 			GPIOR0 &=~_BV(1);
 116:util.c        **** 		GPIOR0 |= _BV(0);
 117:util.c        **** 	}
 118:util.c        **** 
 119:util.c        **** 	OCR0A = OCR0B = ((uint8_t)wave)<<1;
 120:util.c        **** end_int:
 121:util.c        **** 	asm( "\
 122:util.c        **** 		pop r25\n\
 123:util.c        **** 		pop r24\n\
 124:util.c        **** 		pop r21\n\
 125:util.c        **** 		pop r20\n\
 126:util.c        **** 		pop r19\n\
 127:util.c        **** 		pop r18\n\
 128:util.c        **** 		pop r0\n\
 129:util.c        **** 		out 63, r0 /*Restore SREG*/\n\
 130:util.c        **** 		pop r1\n\
 131:util.c        **** 		pop r0\n\
 132:util.c        **** 		reti\n");
 133:util.c        **** }
 134:util.c        **** 
 135:util.c        **** 
 136:util.c        **** 
 137:util.c        **** #ifdef HAS_SAMPLES
 138:util.c        **** const extern int8_t PROGMEM auddat[7981];
 139:util.c        **** uint8_t voicePlayWave()
 140:util.c        **** {
 141:util.c        **** 	static uint16_t sampleCount = 0;
 142:util.c        **** 	wave = pgm_read_byte( &auddat[sampleCount>>2] );
 143:util.c        **** 	if( sampleCount == 32000 )
 144:util.c        **** 	{
 145:util.c        **** 		voiceptr = voiceQuicklySleep;
 146:util.c        **** 		sampleCount = 0;
 147:util.c        **** 	}
 148:util.c        **** 	sampleCount++;
 149:util.c        **** 	return 1;
 150:util.c        **** }
 151:util.c        **** #else
 152:util.c        **** uint8_t voicePlayWave()
 153:util.c        **** {
 154:util.c        **** 	voiceptr = voiceQuicklySleep;
 155:util.c        **** }
 156:util.c        **** 
 157:util.c        **** #endif
 158:util.c        **** 
 159:util.c        **** uint8_t voiceDoBasicSynth()
 160:util.c        **** {
GAS LISTING /tmp/ccdhZXtX.s 			page 4


 161:util.c        **** 	int16_t twave;
 162:util.c        **** 	static uint8_t up;
 163:util.c        **** 	if( !speed )
 164:util.c        **** 	{
 165:util.c        **** 		voiceptr = voiceQuicklySleep;
 166:util.c        **** 		return 0;
 167:util.c        **** 	}
 168:util.c        **** 
 169:util.c        **** 	twave = wave;
 170:util.c        **** 	if( up )
 171:util.c        **** 	{
 172:util.c        **** 		twave+=speed;
 173:util.c        **** 		if( twave > 100 ) { up = 0; twave = 100 - (twave-100); } //I hope this is right.
 174:util.c        **** 	}
 175:util.c        **** 	else
 176:util.c        **** 	{
 177:util.c        **** 		twave-=speed;
 178:util.c        **** 		if( twave < -100 ) { up = 1; twave = -100 - (twave+100); } //I hope this is right.
 179:util.c        **** 	}
 180:util.c        **** 	wave = twave;
 181:util.c        **** 	return 1;
 182:util.c        **** }
 183:util.c        **** 
 184:util.c        **** 
 185:util.c        **** 
 186:util.c        **** uint8_t voiceQuicklySleep()
 187:util.c        **** {
 115               	.LM0:
 116               	.LFBB1:
 117               	/* prologue: function */
 118               	/* frame size = 0 */
 119               	/* stack size = 0 */
 120               	.L__stack_usage = 0
 188:util.c        **** 	return 0;
 189:util.c        **** }
 122               	.LM1:
 123 0000 80E0      		ldi r24,0
 124 0002 0895      		ret
 126               	.Lscope1:
 128               		.stabd	78,0,0
 130               	.global	GetRandom
 132               	GetRandom:
 133               		.stabd	46,0,0
  17:util.c        **** 	uint8_t input_bit = ((lfsr >> 0) ^ (lfsr >> 2) ^ (lfsr >> 3) ^ (lfsr >> 4)) & 1;
 135               	.LM2:
 136               	.LFBB2:
 137               	/* prologue: function */
 138               	/* frame size = 0 */
 139               	/* stack size = 0 */
 140               	.L__stack_usage = 0
  18:util.c        **** 	lfsr = (lfsr >> 1) | (input_bit << 7);
 142               	.LM3:
 143 0004 9091 0000 		lds r25,lfsr
 144 0008 292F      		mov r18,r25
 145 000a 2295      		swap r18
 146 000c 2F70      		andi r18,lo8(15)
 147 000e 892F      		mov r24,r25
GAS LISTING /tmp/ccdhZXtX.s 			page 5


 148 0010 8695      		lsr r24
 149 0012 8695      		lsr r24
 150 0014 8695      		lsr r24
 151 0016 8227      		eor r24,r18
 152 0018 292F      		mov r18,r25
 153 001a 2695      		lsr r18
 154 001c 2695      		lsr r18
 155 001e 2927      		eor r18,r25
 156 0020 8227      		eor r24,r18
  19:util.c        **** 	return lfsr;
 158               	.LM4:
 159 0022 8795      		ror r24
 160 0024 8827      		clr r24
 161 0026 8795      		ror r24
 162 0028 9695      		lsr r25
 163 002a 892B      		or r24,r25
 164 002c 8093 0000 		sts lfsr,r24
  21:util.c        **** 
 166               	.LM5:
 167 0030 0895      		ret
 169               	.Lscope2:
 171               		.stabd	78,0,0
 173               	.global	__vector_14
 175               	__vector_14:
 176               		.stabd	46,0,0
  27:util.c        **** /*	if( wave < 0 )
 178               	.LM6:
 179               	.LFBB3:
 180               	/* prologue: naked */
 181               	/* frame size = 0 */
 182               	/* stack size = 0 */
 183               	.L__stack_usage = 0
  37:util.c        **** }
 185               	.LM7:
 186               	/* #APP */
 187               	 ;  37 "util.c" 1
 188 0032 1895      		reti
 189               	 ;  0 "" 2
 190               	/* epilogue start */
  38:util.c        **** 
 192               	.LM8:
 193               	/* #NOAPP */
 195               	.Lscope3:
 197               		.stabd	78,0,0
 199               	.global	__vector_16
 201               	__vector_16:
 202               		.stabd	46,0,0
  54:util.c        **** 	asm( "\n\
 204               	.LM9:
 205               	.LFBB4:
 206               	/* prologue: naked */
 207               	/* frame size = 0 */
 208               	/* stack size = 0 */
 209               	.L__stack_usage = 0
  55:util.c        **** 		sbis 0x1E, 1	/* If we aren't supposed to do any operations, don't skip the jump to normal operati
 211               	.LM10:
 212               	/* #APP */
GAS LISTING /tmp/ccdhZXtX.s 			page 6


 213               	 ;  55 "util.c" 1
 214               		
 215 0034 F19B      			sbis 0x1E, 1	/* If we aren't supposed to do any operations, don't skip the jump to normal operati
 216 0036 00C0      			rjmp intcont
 217 0038 F099      			sbic 0x1E, 0	/* If _BV(0) is set, continue to the below code. */ 
 218 003a 00C0      			rjmp make_zero
 219 003c 5B9A      			sbi 0xb,3 /*PORT |= _BV(3) */
 220 003e 2B9A      			sbi 0x5,3 /*PORTB |= _BV(3) */
 221 0040 00C0      			rjmp intcont
 222               	make_zero:
 223 0042 5B98      			cbi 0xb,3 /*PORTD &=~_BV(3) */
 224 0044 2B98      			cbi 0x5,3 /*PORTB &=~_BV(3) */
 225               	intcont:
 226 0046 0F92      			push r0
 227 0048 1F92      			push r1
 228 004a 0FB6      			in r0,63 /*Store SREG*/
 229 004c 0F92      			push r0
 230 004e 1124      			clr r1
 231 0050 2F93      			push r18
 232 0052 3F93      			push r19
 233 0054 4F93      			push r20
 234 0056 5F93      			push r21
 235 0058 8F93      			push r24
 236 005a 9F93      			push r25
 237               		
 238               	 ;  0 "" 2
  84:util.c        **** 	{
 240               	.LM11:
 241               	/* #NOAPP */
 242 005c E091 0000 		lds r30,voiceptr
 243 0060 F091 0000 		lds r31,voiceptr+1
 244 0064 0995      		icall
 245 0066 8111      		cpse r24,__zero_reg__
 246 0068 00C0      		rjmp .L5
  87:util.c        **** 			DDRD &=~_BV(3);
 248               	.LM12:
 249 006a 2398      		cbi 0x4,3
  88:util.c        **** 			PORTB |= _BV(3);
 251               	.LM13:
 252 006c 5398      		cbi 0xa,3
  89:util.c        **** 			PORTD |= _BV(3);
 254               	.LM14:
 255 006e 2B9A      		sbi 0x5,3
  90:util.c        **** 			OCR0A = OCR0B = 255;
 257               	.LM15:
 258 0070 5B9A      		sbi 0xb,3
  91:util.c        **** 			goto end_int;
 260               	.LM16:
 261 0072 8FEF      		ldi r24,lo8(-1)
 262 0074 88BD      		out 0x28,r24
 263 0076 87BD      		out 0x27,r24
  92:util.c        **** 	}
 265               	.LM17:
 266 0078 00C0      		rjmp .L6
 267               	.L5:
  96:util.c        **** 		DDRB |= _BV(3);
 269               	.LM18:
GAS LISTING /tmp/ccdhZXtX.s 			page 7


 270 007a 539A      		sbi 0xa,3
  97:util.c        **** 	}
 272               	.LM19:
 273 007c 239A      		sbi 0x4,3
 102:util.c        **** 	{
 275               	.LM20:
 276 007e 8091 0000 		lds r24,wave
 277 0082 87FF      		sbrs r24,7
 278 0084 00C0      		rjmp .L7
 104:util.c        **** 			GPIOR0 |= _BV(1); //If transition, trigger.
 280               	.LM21:
 281 0086 F09B      		sbis 0x1e,0
 282 0088 00C0      		rjmp .L8
 105:util.c        **** 		else
 284               	.LM22:
 285 008a F19A      		sbi 0x1e,1
 286 008c 00C0      		rjmp .L9
 287               	.L8:
 107:util.c        **** 		GPIOR0 &= ~_BV(0);
 289               	.LM23:
 290 008e F198      		cbi 0x1e,1
 291               	.L9:
 108:util.c        **** 	}
 293               	.LM24:
 294 0090 F098      		cbi 0x1e,0
 295 0092 00C0      		rjmp .L10
 296               	.L7:
 112:util.c        **** 			GPIOR0 |= _BV(1); //If transition, trigger.
 298               	.LM25:
 299 0094 F099      		sbic 0x1e,0
 300 0096 00C0      		rjmp .L11
 113:util.c        **** 		else
 302               	.LM26:
 303 0098 F19A      		sbi 0x1e,1
 304 009a 00C0      		rjmp .L12
 305               	.L11:
 115:util.c        **** 		GPIOR0 |= _BV(0);
 307               	.LM27:
 308 009c F198      		cbi 0x1e,1
 309               	.L12:
 116:util.c        **** 	}
 311               	.LM28:
 312 009e F09A      		sbi 0x1e,0
 313               	.L10:
 119:util.c        **** end_int:
 315               	.LM29:
 316 00a0 8091 0000 		lds r24,wave
 317 00a4 880F      		lsl r24
 318 00a6 88BD      		out 0x28,r24
 319 00a8 87BD      		out 0x27,r24
 320               	.L6:
 121:util.c        **** 		pop r25\n\
 322               	.LM30:
 323               	/* #APP */
 324               	 ;  121 "util.c" 1
 325 00aa 9F91      				pop r25
 326 00ac 8F91      			pop r24
GAS LISTING /tmp/ccdhZXtX.s 			page 8


 327 00ae 5F91      			pop r21
 328 00b0 4F91      			pop r20
 329 00b2 3F91      			pop r19
 330 00b4 2F91      			pop r18
 331 00b6 0F90      			pop r0
 332 00b8 0FBE      			out 63, r0 /*Restore SREG*/
 333 00ba 1F90      			pop r1
 334 00bc 0F90      			pop r0
 335 00be 1895      			reti
 336               	
 337               	 ;  0 "" 2
 338               	/* epilogue start */
 133:util.c        **** 
 340               	.LM31:
 341               	/* #NOAPP */
 343               	.Lscope4:
 345               		.stabd	78,0,0
 347               	.global	voicePlayWave
 349               	voicePlayWave:
 350               		.stabd	46,0,0
 140:util.c        **** 	static uint16_t sampleCount = 0;
 352               	.LM32:
 353               	.LFBB5:
 354               	/* prologue: function */
 355               	/* frame size = 0 */
 356               	/* stack size = 0 */
 357               	.L__stack_usage = 0
 358               	.LBB2:
 142:util.c        **** 	if( sampleCount == 32000 )
 360               	.LM33:
 361 00c0 8091 0000 		lds r24,sampleCount.1827
 362 00c4 9091 0000 		lds r25,sampleCount.1827+1
 363 00c8 FC01      		movw r30,r24
 364 00ca F695      		lsr r31
 365 00cc E795      		ror r30
 366 00ce F695      		lsr r31
 367 00d0 E795      		ror r30
 368 00d2 E050      		subi r30,lo8(-(auddat))
 369 00d4 F040      		sbci r31,hi8(-(auddat))
 370               	/* #APP */
 371               	 ;  142 "util.c" 1
 372 00d6 E491      		lpm r30, Z
 373               		
 374               	 ;  0 "" 2
 375               	/* #NOAPP */
 376               	.LBE2:
 377 00d8 E093 0000 		sts wave,r30
 143:util.c        **** 	{
 379               	.LM34:
 380 00dc 8115      		cp r24,__zero_reg__
 381 00de 9D47      		sbci r25,125
 382 00e0 01F4      		brne .L14
 145:util.c        **** 		sampleCount = 0;
 384               	.LM35:
 385 00e2 80E0      		ldi r24,lo8(gs(voiceQuicklySleep))
 386 00e4 90E0      		ldi r25,hi8(gs(voiceQuicklySleep))
 387 00e6 9093 0000 		sts voiceptr+1,r25
GAS LISTING /tmp/ccdhZXtX.s 			page 9


 388 00ea 8093 0000 		sts voiceptr,r24
 146:util.c        **** 	}
 390               	.LM36:
 391 00ee 1092 0000 		sts sampleCount.1827+1,__zero_reg__
 392 00f2 1092 0000 		sts sampleCount.1827,__zero_reg__
 393               	.L14:
 148:util.c        **** 	return 1;
 395               	.LM37:
 396 00f6 8091 0000 		lds r24,sampleCount.1827
 397 00fa 9091 0000 		lds r25,sampleCount.1827+1
 398 00fe 0196      		adiw r24,1
 399 0100 9093 0000 		sts sampleCount.1827+1,r25
 400 0104 8093 0000 		sts sampleCount.1827,r24
 150:util.c        **** #else
 402               	.LM38:
 403 0108 81E0      		ldi r24,lo8(1)
 404 010a 0895      		ret
 409               	.Lscope5:
 411               		.stabd	78,0,0
 413               	.global	voiceDoBasicSynth
 415               	voiceDoBasicSynth:
 416               		.stabd	46,0,0
 160:util.c        **** 	int16_t twave;
 418               	.LM39:
 419               	.LFBB6:
 420               	/* prologue: function */
 421               	/* frame size = 0 */
 422               	/* stack size = 0 */
 423               	.L__stack_usage = 0
 163:util.c        **** 	{
 425               	.LM40:
 426 010c 8091 0000 		lds r24,speed
 427 0110 8111      		cpse r24,__zero_reg__
 428 0112 00C0      		rjmp .L17
 165:util.c        **** 		return 0;
 430               	.LM41:
 431 0114 20E0      		ldi r18,lo8(gs(voiceQuicklySleep))
 432 0116 30E0      		ldi r19,hi8(gs(voiceQuicklySleep))
 433 0118 3093 0000 		sts voiceptr+1,r19
 434 011c 2093 0000 		sts voiceptr,r18
 166:util.c        **** 	}
 436               	.LM42:
 437 0120 0895      		ret
 438               	.L17:
 169:util.c        **** 	if( up )
 440               	.LM43:
 441 0122 8091 0000 		lds r24,wave
 442 0126 082E      		mov __tmp_reg__,r24
 443 0128 000C      		lsl r0
 444 012a 990B      		sbc r25,r25
 170:util.c        **** 	{
 446               	.LM44:
 447 012c 2091 0000 		lds r18,up.1834
 448 0130 2223      		tst r18
 449 0132 01F0      		breq .L19
 172:util.c        **** 		if( twave > 100 ) { up = 0; twave = 100 - (twave-100); } //I hope this is right.
 451               	.LM45:
GAS LISTING /tmp/ccdhZXtX.s 			page 10


 452 0134 2091 0000 		lds r18,speed
 453 0138 820F      		add r24,r18
 454 013a 911D      		adc r25,__zero_reg__
 173:util.c        **** 	}
 456               	.LM46:
 457 013c 8536      		cpi r24,101
 458 013e 9105      		cpc r25,__zero_reg__
 459 0140 04F0      		brlt .L20
 173:util.c        **** 	}
 461               	.LM47:
 462 0142 1092 0000 		sts up.1834,__zero_reg__
 463 0146 28EC      		ldi r18,lo8(-56)
 464 0148 30E0      		ldi r19,0
 465 014a 00C0      		rjmp .L21
 466               	.L19:
 177:util.c        **** 		if( twave < -100 ) { up = 1; twave = -100 - (twave+100); } //I hope this is right.
 468               	.LM48:
 469 014c 2091 0000 		lds r18,speed
 470 0150 821B      		sub r24,r18
 471 0152 9109      		sbc r25,__zero_reg__
 178:util.c        **** 	}
 473               	.LM49:
 474 0154 8C39      		cpi r24,-100
 475 0156 5FEF      		ldi r21,-1
 476 0158 9507      		cpc r25,r21
 477 015a 04F4      		brge .L20
 178:util.c        **** 	}
 479               	.LM50:
 480 015c 21E0      		ldi r18,lo8(1)
 481 015e 2093 0000 		sts up.1834,r18
 482 0162 28E3      		ldi r18,lo8(56)
 483 0164 3FEF      		ldi r19,lo8(-1)
 484               	.L21:
 485 0166 A901      		movw r20,r18
 486 0168 481B      		sub r20,r24
 487 016a 590B      		sbc r21,r25
 488 016c CA01      		movw r24,r20
 489               	.L20:
 180:util.c        **** 	return 1;
 491               	.LM51:
 492 016e 8093 0000 		sts wave,r24
 181:util.c        **** }
 494               	.LM52:
 495 0172 81E0      		ldi r24,lo8(1)
 182:util.c        **** 
 497               	.LM53:
 498 0174 0895      		ret
 503               	.Lscope6:
 505               		.stabd	78,0,0
 506               		.local	up.1834
 507               		.comm	up.1834,1,1
 508               		.local	sampleCount.1827
 509               		.comm	sampleCount.1827,2,1
 510               	.global	lfsr
 511               		.data
 514               	lfsr:
 515 0000 E7        		.byte	-25
GAS LISTING /tmp/ccdhZXtX.s 			page 11


 516               		.comm	speed,1,1
 517               		.comm	voiceptr,2,1
 518               		.comm	wave,1,1
 523               		.text
 525               	.Letext0:
 526               		.ident	"GCC: (GNU) 4.9.2"
 527               	.global __do_copy_data
 528               	.global __do_clear_bss
GAS LISTING /tmp/ccdhZXtX.s 			page 12


DEFINED SYMBOLS
                            *ABS*:0000000000000000 util.c
     /tmp/ccdhZXtX.s:2      *ABS*:000000000000003e __SP_H__
     /tmp/ccdhZXtX.s:3      *ABS*:000000000000003d __SP_L__
     /tmp/ccdhZXtX.s:4      *ABS*:000000000000003f __SREG__
     /tmp/ccdhZXtX.s:5      *ABS*:0000000000000000 __tmp_reg__
     /tmp/ccdhZXtX.s:6      *ABS*:0000000000000001 __zero_reg__
     /tmp/ccdhZXtX.s:112    .text:0000000000000000 voiceQuicklySleep
     /tmp/ccdhZXtX.s:132    .text:0000000000000004 GetRandom
     /tmp/ccdhZXtX.s:514    .data:0000000000000000 lfsr
     /tmp/ccdhZXtX.s:175    .text:0000000000000032 __vector_14
     /tmp/ccdhZXtX.s:201    .text:0000000000000034 __vector_16
     /tmp/ccdhZXtX.s:225    .text:0000000000000046 intcont
     /tmp/ccdhZXtX.s:222    .text:0000000000000042 make_zero
                            *COM*:0000000000000002 voiceptr
                            *COM*:0000000000000001 wave
     /tmp/ccdhZXtX.s:349    .text:00000000000000c0 voicePlayWave
     /tmp/ccdhZXtX.s:507    .bss:0000000000000001 sampleCount.1827
     /tmp/ccdhZXtX.s:415    .text:000000000000010c voiceDoBasicSynth
                            *COM*:0000000000000001 speed
                             .bss:0000000000000000 up.1834

UNDEFINED SYMBOLS
auddat
__do_copy_data
__do_clear_bss
GAS LISTING /tmp/ccdhZXtX.s 			page 1


   1               		.file	"samples.c"
   2               	__SP_H__ = 0x3e
   3               	__SP_L__ = 0x3d
   4               	__SREG__ = 0x3f
   5               	__tmp_reg__ = 0
   6               	__zero_reg__ = 1
   9               		.text
  10               	.Ltext0:
 105               	.global	auddat
 106               		.section	.progmem.data,"a",@progbits
 109               	auddat:
 110 0000 05        		.byte	5
 111 0001 02        		.byte	2
 112 0002 FF        		.byte	-1
 113 0003 E3        		.byte	-29
 114 0004 CD        		.byte	-51
 115 0005 F5        		.byte	-11
 116 0006 C9        		.byte	-55
 117 0007 D0        		.byte	-48
 118 0008 E7        		.byte	-25
 119 0009 E0        		.byte	-32
 120 000a F6        		.byte	-10
 121 000b F4        		.byte	-12
 122 000c 07        		.byte	7
 123 000d 13        		.byte	19
 124 000e 0C        		.byte	12
 125 000f 18        		.byte	24
 126 0010 1E        		.byte	30
 127 0011 23        		.byte	35
 128 0012 26        		.byte	38
 129 0013 21        		.byte	33
 130 0014 19        		.byte	25
 131 0015 F2        		.byte	-14
 132 0016 07        		.byte	7
 133 0017 04        		.byte	4
 134 0018 10        		.byte	16
 135 0019 15        		.byte	21
 136 001a 0E        		.byte	14
 137 001b 1B        		.byte	27
 138 001c 0C        		.byte	12
 139 001d 09        		.byte	9
 140 001e 1B        		.byte	27
 141 001f 17        		.byte	23
 142 0020 EE        		.byte	-18
 143 0021 FE        		.byte	-2
 144 0022 09        		.byte	9
 145 0023 03        		.byte	3
 146 0024 0C        		.byte	12
 147 0025 02        		.byte	2
 148 0026 E7        		.byte	-25
 149 0027 00        		.byte	0
 150 0028 F6        		.byte	-10
 151 0029 05        		.byte	5
 152 002a 0F        		.byte	15
 153 002b 0A        		.byte	10
 154 002c 19        		.byte	25
 155 002d 12        		.byte	18
GAS LISTING /tmp/ccdhZXtX.s 			page 2


 156 002e 0F        		.byte	15
 157 002f 1B        		.byte	27
 158 0030 1E        		.byte	30
 159 0031 1B        		.byte	27
 160 0032 23        		.byte	35
 161 0033 11        		.byte	17
 162 0034 21        		.byte	33
 163 0035 0D        		.byte	13
 164 0036 0E        		.byte	14
 165 0037 E1        		.byte	-31
 166 0038 F7        		.byte	-9
 167 0039 EB        		.byte	-21
 168 003a BF        		.byte	-65
 169 003b EC        		.byte	-20
 170 003c D8        		.byte	-40
 171 003d E6        		.byte	-26
 172 003e ED        		.byte	-19
 173 003f EB        		.byte	-21
 174 0040 01        		.byte	1
 175 0041 FE        		.byte	-2
 176 0042 FD        		.byte	-3
 177 0043 09        		.byte	9
 178 0044 03        		.byte	3
 179 0045 12        		.byte	18
 180 0046 0A        		.byte	10
 181 0047 09        		.byte	9
 182 0048 E9        		.byte	-23
 183 0049 E6        		.byte	-26
 184 004a EF        		.byte	-17
 185 004b F0        		.byte	-16
 186 004c 02        		.byte	2
 187 004d F8        		.byte	-8
 188 004e FF        		.byte	-1
 189 004f 04        		.byte	4
 190 0050 F3        		.byte	-13
 191 0051 FE        		.byte	-2
 192 0052 0C        		.byte	12
 193 0053 03        		.byte	3
 194 0054 0F        		.byte	15
 195 0055 08        		.byte	8
 196 0056 10        		.byte	16
 197 0057 07        		.byte	7
 198 0058 08        		.byte	8
 199 0059 E2        		.byte	-30
 200 005a DE        		.byte	-34
 201 005b F5        		.byte	-11
 202 005c E6        		.byte	-26
 203 005d FA        		.byte	-6
 204 005e F5        		.byte	-11
 205 005f F8        		.byte	-8
 206 0060 FF        		.byte	-1
 207 0061 F1        		.byte	-15
 208 0062 F9        		.byte	-7
 209 0063 FA        		.byte	-6
 210 0064 F0        		.byte	-16
 211 0065 0A        		.byte	10
 212 0066 FD        		.byte	-3
GAS LISTING /tmp/ccdhZXtX.s 			page 3


 213 0067 05        		.byte	5
 214 0068 03        		.byte	3
 215 0069 FC        		.byte	-4
 216 006a E2        		.byte	-30
 217 006b CF        		.byte	-49
 218 006c F8        		.byte	-8
 219 006d C6        		.byte	-58
 220 006e D1        		.byte	-47
 221 006f EC        		.byte	-20
 222 0070 DF        		.byte	-33
 223 0071 FC        		.byte	-4
 224 0072 F4        		.byte	-12
 225 0073 02        		.byte	2
 226 0074 13        		.byte	19
 227 0075 09        		.byte	9
 228 0076 1A        		.byte	26
 229 0077 1C        		.byte	28
 230 0078 20        		.byte	32
 231 0079 2A        		.byte	42
 232 007a 22        		.byte	34
 233 007b 14        		.byte	20
 234 007c F5        		.byte	-11
 235 007d 07        		.byte	7
 236 007e 07        		.byte	7
 237 007f 0C        		.byte	12
 238 0080 19        		.byte	25
 239 0081 0B        		.byte	11
 240 0082 1D        		.byte	29
 241 0083 0E        		.byte	14
 242 0084 06        		.byte	6
 243 0085 1E        		.byte	30
 244 0086 19        		.byte	25
 245 0087 F2        		.byte	-14
 246 0088 FC        		.byte	-4
 247 0089 07        		.byte	7
 248 008a 03        		.byte	3
 249 008b 09        		.byte	9
 250 008c 03        		.byte	3
 251 008d EB        		.byte	-21
 252 008e F7        		.byte	-9
 253 008f FA        		.byte	-6
 254 0090 01        		.byte	1
 255 0091 12        		.byte	18
 256 0092 0A        		.byte	10
 257 0093 1C        		.byte	28
 258 0094 0E        		.byte	14
 259 0095 0B        		.byte	11
 260 0096 23        		.byte	35
 261 0097 1A        		.byte	26
 262 0098 1D        		.byte	29
 263 0099 22        		.byte	34
 264 009a 15        		.byte	21
 265 009b 24        		.byte	36
 266 009c 0F        		.byte	15
 267 009d 0A        		.byte	10
 268 009e E2        		.byte	-30
 269 009f F3        		.byte	-13
GAS LISTING /tmp/ccdhZXtX.s 			page 4


 270 00a0 E6        		.byte	-26
 271 00a1 BB        		.byte	-69
 272 00a2 EE        		.byte	-18
 273 00a3 D6        		.byte	-42
 274 00a4 E2        		.byte	-30
 275 00a5 EB        		.byte	-21
 276 00a6 E6        		.byte	-26
 277 00a7 02        		.byte	2
 278 00a8 FD        		.byte	-3
 279 00a9 FC        		.byte	-4
 280 00aa 0B        		.byte	11
 281 00ab 01        		.byte	1
 282 00ac 13        		.byte	19
 283 00ad 14        		.byte	20
 284 00ae 03        		.byte	3
 285 00af EB        		.byte	-21
 286 00b0 E9        		.byte	-23
 287 00b1 F2        		.byte	-14
 288 00b2 EE        		.byte	-18
 289 00b3 02        		.byte	2
 290 00b4 F8        		.byte	-8
 291 00b5 01        		.byte	1
 292 00b6 05        		.byte	5
 293 00b7 F3        		.byte	-13
 294 00b8 01        		.byte	1
 295 00b9 0C        		.byte	12
 296 00ba 06        		.byte	6
 297 00bb 0F        		.byte	15
 298 00bc 07        		.byte	7
 299 00bd 10        		.byte	16
 300 00be 0D        		.byte	13
 301 00bf 03        		.byte	3
 302 00c0 E4        		.byte	-28
 303 00c1 DC        		.byte	-36
 304 00c2 F2        		.byte	-14
 305 00c3 E7        		.byte	-25
 306 00c4 F9        		.byte	-7
 307 00c5 F6        		.byte	-10
 308 00c6 F9        		.byte	-7
 309 00c7 FD        		.byte	-3
 310 00c8 EA        		.byte	-22
 311 00c9 FE        		.byte	-2
 312 00ca FA        		.byte	-6
 313 00cb EE        		.byte	-18
 314 00cc 09        		.byte	9
 315 00cd F9        		.byte	-7
 316 00ce 06        		.byte	6
 317 00cf 06        		.byte	6
 318 00d0 00        		.byte	0
 319 00d1 DE        		.byte	-34
 320 00d2 CB        		.byte	-53
 321 00d3 F7        		.byte	-9
 322 00d4 C2        		.byte	-62
 323 00d5 D4        		.byte	-44
 324 00d6 ED        		.byte	-19
 325 00d7 DF        		.byte	-33
 326 00d8 F8        		.byte	-8
GAS LISTING /tmp/ccdhZXtX.s 			page 5


 327 00d9 F5        		.byte	-11
 328 00da 07        		.byte	7
 329 00db 13        		.byte	19
 330 00dc 0B        		.byte	11
 331 00dd 1B        		.byte	27
 332 00de 1D        		.byte	29
 333 00df 21        		.byte	33
 334 00e0 2C        		.byte	44
 335 00e1 26        		.byte	38
 336 00e2 13        		.byte	19
 337 00e3 F8        		.byte	-8
 338 00e4 07        		.byte	7
 339 00e5 07        		.byte	7
 340 00e6 0B        		.byte	11
 341 00e7 14        		.byte	20
 342 00e8 0C        		.byte	12
 343 00e9 18        		.byte	24
 344 00ea 0C        		.byte	12
 345 00eb 02        		.byte	2
 346 00ec 20        		.byte	32
 347 00ed 14        		.byte	20
 348 00ee ED        		.byte	-19
 349 00ef 01        		.byte	1
 350 00f0 08        		.byte	8
 351 00f1 08        		.byte	8
 352 00f2 0F        		.byte	15
 353 00f3 01        		.byte	1
 354 00f4 EA        		.byte	-22
 355 00f5 F8        		.byte	-8
 356 00f6 FE        		.byte	-2
 357 00f7 04        		.byte	4
 358 00f8 0E        		.byte	14
 359 00f9 0E        		.byte	14
 360 00fa 18        		.byte	24
 361 00fb 0D        		.byte	13
 362 00fc 0F        		.byte	15
 363 00fd 20        		.byte	32
 364 00fe 17        		.byte	23
 365 00ff 18        		.byte	24
 366 0100 1F        		.byte	31
 367 0101 13        		.byte	19
 368 0102 1C        		.byte	28
 369 0103 13        		.byte	19
 370 0104 0C        		.byte	12
 371 0105 E0        		.byte	-32
 372 0106 F2        		.byte	-14
 373 0107 E2        		.byte	-30
 374 0108 C1        		.byte	-63
 375 0109 EE        		.byte	-18
 376 010a DE        		.byte	-34
 377 010b EC        		.byte	-20
 378 010c E8        		.byte	-24
 379 010d EE        		.byte	-18
 380 010e 02        		.byte	2
 381 010f FD        		.byte	-3
 382 0110 FC        		.byte	-4
 383 0111 09        		.byte	9
GAS LISTING /tmp/ccdhZXtX.s 			page 6


 384 0112 08        		.byte	8
 385 0113 14        		.byte	20
 386 0114 16        		.byte	22
 387 0115 01        		.byte	1
 388 0116 EE        		.byte	-18
 389 0117 E5        		.byte	-27
 390 0118 F2        		.byte	-14
 391 0119 F2        		.byte	-14
 392 011a FC        		.byte	-4
 393 011b FA        		.byte	-6
 394 011c 02        		.byte	2
 395 011d 03        		.byte	3
 396 011e F3        		.byte	-13
 397 011f FE        		.byte	-2
 398 0120 0A        		.byte	10
 399 0121 01        		.byte	1
 400 0122 0E        		.byte	14
 401 0123 0A        		.byte	10
 402 0124 0F        		.byte	15
 403 0125 0E        		.byte	14
 404 0126 01        		.byte	1
 405 0127 E8        		.byte	-24
 406 0128 DC        		.byte	-36
 407 0129 F2        		.byte	-14
 408 012a EC        		.byte	-20
 409 012b F7        		.byte	-9
 410 012c F4        		.byte	-12
 411 012d FB        		.byte	-5
 412 012e F7        		.byte	-9
 413 012f F3        		.byte	-13
 414 0130 FF        		.byte	-1
 415 0131 F7        		.byte	-9
 416 0132 F2        		.byte	-14
 417 0133 01        		.byte	1
 418 0134 FF        		.byte	-1
 419 0135 FF        		.byte	-1
 420 0136 09        		.byte	9
 421 0137 04        		.byte	4
 422 0138 DE        		.byte	-34
 423 0139 CF        		.byte	-49
 424 013a EF        		.byte	-17
 425 013b C0        		.byte	-64
 426 013c D6        		.byte	-42
 427 013d F0        		.byte	-16
 428 013e E3        		.byte	-29
 429 013f F6        		.byte	-10
 430 0140 F6        		.byte	-10
 431 0141 07        		.byte	7
 432 0142 12        		.byte	18
 433 0143 0B        		.byte	11
 434 0144 19        		.byte	25
 435 0145 1E        		.byte	30
 436 0146 22        		.byte	34
 437 0147 2F        		.byte	47
 438 0148 27        		.byte	39
 439 0149 12        		.byte	18
 440 014a F7        		.byte	-9
GAS LISTING /tmp/ccdhZXtX.s 			page 7


 441 014b 04        		.byte	4
 442 014c 0C        		.byte	12
 443 014d 0F        		.byte	15
 444 014e 12        		.byte	18
 445 014f 13        		.byte	19
 446 0150 14        		.byte	20
 447 0151 11        		.byte	17
 448 0152 02        		.byte	2
 449 0153 21        		.byte	33
 450 0154 0F        		.byte	15
 451 0155 E9        		.byte	-23
 452 0156 09        		.byte	9
 453 0157 07        		.byte	7
 454 0158 0B        		.byte	11
 455 0159 0A        		.byte	10
 456 015a 03        		.byte	3
 457 015b EC        		.byte	-20
 458 015c F5        		.byte	-11
 459 015d FF        		.byte	-1
 460 015e 02        		.byte	2
 461 015f 0F        		.byte	15
 462 0160 10        		.byte	16
 463 0161 14        		.byte	20
 464 0162 0D        		.byte	13
 465 0163 0F        		.byte	15
 466 0164 1C        		.byte	28
 467 0165 19        		.byte	25
 468 0166 16        		.byte	22
 469 0167 1F        		.byte	31
 470 0168 16        		.byte	22
 471 0169 15        		.byte	21
 472 016a 18        		.byte	24
 473 016b 08        		.byte	8
 474 016c DC        		.byte	-36
 475 016d F1        		.byte	-15
 476 016e E4        		.byte	-28
 477 016f C1        		.byte	-63
 478 0170 E8        		.byte	-24
 479 0171 E4        		.byte	-28
 480 0172 E6        		.byte	-26
 481 0173 EA        		.byte	-22
 482 0174 EE        		.byte	-18
 483 0175 02        		.byte	2
 484 0176 FA        		.byte	-6
 485 0177 00        		.byte	0
 486 0178 0B        		.byte	11
 487 0179 08        		.byte	8
 488 017a 11        		.byte	17
 489 017b 13        		.byte	19
 490 017c 05        		.byte	5
 491 017d E9        		.byte	-23
 492 017e E2        		.byte	-30
 493 017f EF        		.byte	-17
 494 0180 F4        		.byte	-12
 495 0181 FC        		.byte	-4
 496 0182 FF        		.byte	-1
 497 0183 FC        		.byte	-4
GAS LISTING /tmp/ccdhZXtX.s 			page 8


 498 0184 02        		.byte	2
 499 0185 EF        		.byte	-17
 500 0186 FC        		.byte	-4
 501 0187 0C        		.byte	12
 502 0188 01        		.byte	1
 503 0189 0B        		.byte	11
 504 018a 08        		.byte	8
 505 018b 11        		.byte	17
 506 018c 0E        		.byte	14
 507 018d 04        		.byte	4
 508 018e EA        		.byte	-22
 509 018f DC        		.byte	-36
 510 0190 F2        		.byte	-14
 511 0191 F1        		.byte	-15
 512 0192 F4        		.byte	-12
 513 0193 FE        		.byte	-2
 514 0194 F7        		.byte	-9
 515 0195 F9        		.byte	-7
 516 0196 F5        		.byte	-11
 517 0197 FB        		.byte	-5
 518 0198 FB        		.byte	-5
 519 0199 F0        		.byte	-16
 520 019a 04        		.byte	4
 521 019b FE        		.byte	-2
 522 019c FD        		.byte	-3
 523 019d 06        		.byte	6
 524 019e 0B        		.byte	11
 525 019f D8        		.byte	-40
 526 01a0 D4        		.byte	-44
 527 01a1 E8        		.byte	-24
 528 01a2 C1        		.byte	-63
 529 01a3 D6        		.byte	-42
 530 01a4 F0        		.byte	-16
 531 01a5 EB        		.byte	-21
 532 01a6 F2        		.byte	-14
 533 01a7 FB        		.byte	-5
 534 01a8 02        		.byte	2
 535 01a9 13        		.byte	19
 536 01aa 08        		.byte	8
 537 01ab 1A        		.byte	26
 538 01ac 1D        		.byte	29
 539 01ad 20        		.byte	32
 540 01ae 2D        		.byte	45
 541 01af 28        		.byte	40
 542 01b0 0C        		.byte	12
 543 01b1 FB        		.byte	-5
 544 01b2 08        		.byte	8
 545 01b3 09        		.byte	9
 546 01b4 0B        		.byte	11
 547 01b5 17        		.byte	23
 548 01b6 17        		.byte	23
 549 01b7 13        		.byte	19
 550 01b8 13        		.byte	19
 551 01b9 01        		.byte	1
 552 01ba 24        		.byte	36
 553 01bb 07        		.byte	7
 554 01bc ED        		.byte	-19
GAS LISTING /tmp/ccdhZXtX.s 			page 9


 555 01bd 03        		.byte	3
 556 01be 0C        		.byte	12
 557 01bf 0C        		.byte	12
 558 01c0 09        		.byte	9
 559 01c1 03        		.byte	3
 560 01c2 EB        		.byte	-21
 561 01c3 F2        		.byte	-14
 562 01c4 01        		.byte	1
 563 01c5 05        		.byte	5
 564 01c6 0D        		.byte	13
 565 01c7 12        		.byte	18
 566 01c8 11        		.byte	17
 567 01c9 11        		.byte	17
 568 01ca 0A        		.byte	10
 569 01cb 23        		.byte	35
 570 01cc 13        		.byte	19
 571 01cd 1C        		.byte	28
 572 01ce 1B        		.byte	27
 573 01cf 15        		.byte	21
 574 01d0 18        		.byte	24
 575 01d1 17        		.byte	23
 576 01d2 07        		.byte	7
 577 01d3 DD        		.byte	-35
 578 01d4 F4        		.byte	-12
 579 01d5 DC        		.byte	-36
 580 01d6 CB        		.byte	-53
 581 01d7 E8        		.byte	-24
 582 01d8 EA        		.byte	-22
 583 01d9 E0        		.byte	-32
 584 01da E8        		.byte	-24
 585 01db F0        		.byte	-16
 586 01dc 00        		.byte	0
 587 01dd F8        		.byte	-8
 588 01de FF        		.byte	-1
 589 01df 06        		.byte	6
 590 01e0 04        		.byte	4
 591 01e1 11        		.byte	17
 592 01e2 19        		.byte	25
 593 01e3 07        		.byte	7
 594 01e4 E6        		.byte	-26
 595 01e5 E8        		.byte	-24
 596 01e6 EE        		.byte	-18
 597 01e7 F9        		.byte	-7
 598 01e8 F9        		.byte	-7
 599 01e9 FF        		.byte	-1
 600 01ea FC        		.byte	-4
 601 01eb 05        		.byte	5
 602 01ec F3        		.byte	-13
 603 01ed FB        		.byte	-5
 604 01ee 0B        		.byte	11
 605 01ef 05        		.byte	5
 606 01f0 0D        		.byte	13
 607 01f1 07        		.byte	7
 608 01f2 0F        		.byte	15
 609 01f3 0D        		.byte	13
 610 01f4 04        		.byte	4
 611 01f5 E4        		.byte	-28
GAS LISTING /tmp/ccdhZXtX.s 			page 10


 612 01f6 DB        		.byte	-37
 613 01f7 F0        		.byte	-16
 614 01f8 F3        		.byte	-13
 615 01f9 F5        		.byte	-11
 616 01fa F9        		.byte	-7
 617 01fb F8        		.byte	-8
 618 01fc F9        		.byte	-7
 619 01fd EF        		.byte	-17
 620 01fe FE        		.byte	-2
 621 01ff F9        		.byte	-7
 622 0200 F4        		.byte	-12
 623 0201 01        		.byte	1
 624 0202 FD        		.byte	-3
 625 0203 00        		.byte	0
 626 0204 02        		.byte	2
 627 0205 0A        		.byte	10
 628 0206 D5        		.byte	-43
 629 0207 D7        		.byte	-41
 630 0208 E0        		.byte	-32
 631 0209 C2        		.byte	-62
 632 020a DB        		.byte	-37
 633 020b ED        		.byte	-19
 634 020c EC        		.byte	-20
 635 020d F2        		.byte	-14
 636 020e F9        		.byte	-7
 637 020f 01        		.byte	1
 638 0210 0E        		.byte	14
 639 0211 0B        		.byte	11
 640 0212 1A        		.byte	26
 641 0213 1C        		.byte	28
 642 0214 25        		.byte	37
 643 0215 2F        		.byte	47
 644 0216 2A        		.byte	42
 645 0217 0A        		.byte	10
 646 0218 FC        		.byte	-4
 647 0219 04        		.byte	4
 648 021a 0C        		.byte	12
 649 021b 13        		.byte	19
 650 021c 16        		.byte	22
 651 021d 14        		.byte	20
 652 021e 0F        		.byte	15
 653 021f 11        		.byte	17
 654 0220 03        		.byte	3
 655 0221 22        		.byte	34
 656 0222 FF        		.byte	-1
 657 0223 EF        		.byte	-17
 658 0224 07        		.byte	7
 659 0225 0B        		.byte	11
 660 0226 0D        		.byte	13
 661 0227 0F        		.byte	15
 662 0228 04        		.byte	4
 663 0229 EB        		.byte	-21
 664 022a F2        		.byte	-14
 665 022b FF        		.byte	-1
 666 022c 0E        		.byte	14
 667 022d 08        		.byte	8
 668 022e 13        		.byte	19
GAS LISTING /tmp/ccdhZXtX.s 			page 11


 669 022f 14        		.byte	20
 670 0230 0F        		.byte	15
 671 0231 0B        		.byte	11
 672 0232 1F        		.byte	31
 673 0233 17        		.byte	23
 674 0234 1E        		.byte	30
 675 0235 17        		.byte	23
 676 0236 18        		.byte	24
 677 0237 12        		.byte	18
 678 0238 18        		.byte	24
 679 0239 07        		.byte	7
 680 023a DA        		.byte	-38
 681 023b F3        		.byte	-13
 682 023c D0        		.byte	-48
 683 023d D2        		.byte	-46
 684 023e E3        		.byte	-29
 685 023f F0        		.byte	-16
 686 0240 E3        		.byte	-29
 687 0241 E2        		.byte	-30
 688 0242 F1        		.byte	-15
 689 0243 FD        		.byte	-3
 690 0244 FA        		.byte	-6
 691 0245 01        		.byte	1
 692 0246 06        		.byte	6
 693 0247 07        		.byte	7
 694 0248 13        		.byte	19
 695 0249 17        		.byte	23
 696 024a 08        		.byte	8
 697 024b E5        		.byte	-27
 698 024c E8        		.byte	-24
 699 024d EC        		.byte	-20
 700 024e FE        		.byte	-2
 701 024f F7        		.byte	-9
 702 0250 02        		.byte	2
 703 0251 FC        		.byte	-4
 704 0252 00        		.byte	0
 705 0253 F0        		.byte	-16
 706 0254 FB        		.byte	-5
 707 0255 08        		.byte	8
 708 0256 05        		.byte	5
 709 0257 0C        		.byte	12
 710 0258 07        		.byte	7
 711 0259 0E        		.byte	14
 712 025a 0C        		.byte	12
 713 025b 08        		.byte	8
 714 025c DE        		.byte	-34
 715 025d E3        		.byte	-29
 716 025e EA        		.byte	-22
 717 025f FA        		.byte	-6
 718 0260 F0        		.byte	-16
 719 0261 F6        		.byte	-10
 720 0262 FA        		.byte	-6
 721 0263 F7        		.byte	-9
 722 0264 F3        		.byte	-13
 723 0265 FD        		.byte	-3
 724 0266 F8        		.byte	-8
 725 0267 F6        		.byte	-10
GAS LISTING /tmp/ccdhZXtX.s 			page 12


 726 0268 05        		.byte	5
 727 0269 FC        		.byte	-4
 728 026a 04        		.byte	4
 729 026b 00        		.byte	0
 730 026c 11        		.byte	17
 731 026d CF        		.byte	-49
 732 026e D9        		.byte	-39
 733 026f D3        		.byte	-45
 734 0270 C8        		.byte	-56
 735 0271 E6        		.byte	-26
 736 0272 E8        		.byte	-24
 737 0273 F4        		.byte	-12
 738 0274 EE        		.byte	-18
 739 0275 F9        		.byte	-7
 740 0276 03        		.byte	3
 741 0277 0D        		.byte	13
 742 0278 0D        		.byte	13
 743 0279 1F        		.byte	31
 744 027a 1D        		.byte	29
 745 027b 25        		.byte	37
 746 027c 29        		.byte	41
 747 027d 2D        		.byte	45
 748 027e 0A        		.byte	10
 749 027f FA        		.byte	-6
 750 0280 FE        		.byte	-2
 751 0281 0F        		.byte	15
 752 0282 15        		.byte	21
 753 0283 10        		.byte	16
 754 0284 17        		.byte	23
 755 0285 11        		.byte	17
 756 0286 0F        		.byte	15
 757 0287 01        		.byte	1
 758 0288 20        		.byte	32
 759 0289 F9        		.byte	-7
 760 028a F1        		.byte	-15
 761 028b 08        		.byte	8
 762 028c 0D        		.byte	13
 763 028d 08        		.byte	8
 764 028e 11        		.byte	17
 765 028f 05        		.byte	5
 766 0290 E3        		.byte	-29
 767 0291 EF        		.byte	-17
 768 0292 09        		.byte	9
 769 0293 0B        		.byte	11
 770 0294 07        		.byte	7
 771 0295 19        		.byte	25
 772 0296 10        		.byte	16
 773 0297 0D        		.byte	13
 774 0298 0E        		.byte	14
 775 0299 1D        		.byte	29
 776 029a 17        		.byte	23
 777 029b 22        		.byte	34
 778 029c 18        		.byte	24
 779 029d 1E        		.byte	30
 780 029e 12        		.byte	18
 781 029f 1E        		.byte	30
 782 02a0 08        		.byte	8
GAS LISTING /tmp/ccdhZXtX.s 			page 13


 783 02a1 D9        		.byte	-39
 784 02a2 EC        		.byte	-20
 785 02a3 CF        		.byte	-49
 786 02a4 DA        		.byte	-38
 787 02a5 E2        		.byte	-30
 788 02a6 EC        		.byte	-20
 789 02a7 E5        		.byte	-27
 790 02a8 E1        		.byte	-31
 791 02a9 F3        		.byte	-13
 792 02aa F9        		.byte	-7
 793 02ab FC        		.byte	-4
 794 02ac 03        		.byte	3
 795 02ad 02        		.byte	2
 796 02ae 0C        		.byte	12
 797 02af 10        		.byte	16
 798 02b0 16        		.byte	22
 799 02b1 08        		.byte	8
 800 02b2 E5        		.byte	-27
 801 02b3 E3        		.byte	-29
 802 02b4 EC        		.byte	-20
 803 02b5 02        		.byte	2
 804 02b6 F8        		.byte	-8
 805 02b7 FF        		.byte	-1
 806 02b8 FE        		.byte	-2
 807 02b9 FB        		.byte	-5
 808 02ba ED        		.byte	-19
 809 02bb FB        		.byte	-5
 810 02bc 06        		.byte	6
 811 02bd 06        		.byte	6
 812 02be 08        		.byte	8
 813 02bf 06        		.byte	6
 814 02c0 0D        		.byte	13
 815 02c1 06        		.byte	6
 816 02c2 0E        		.byte	14
 817 02c3 DF        		.byte	-33
 818 02c4 DD        		.byte	-35
 819 02c5 F1        		.byte	-15
 820 02c6 FA        		.byte	-6
 821 02c7 F9        		.byte	-7
 822 02c8 FD        		.byte	-3
 823 02c9 FC        		.byte	-4
 824 02ca F4        		.byte	-12
 825 02cb EE        		.byte	-18
 826 02cc FF        		.byte	-1
 827 02cd F9        		.byte	-7
 828 02ce F8        		.byte	-8
 829 02cf 03        		.byte	3
 830 02d0 FD        		.byte	-3
 831 02d1 03        		.byte	3
 832 02d2 00        		.byte	0
 833 02d3 12        		.byte	18
 834 02d4 D2        		.byte	-46
 835 02d5 D8        		.byte	-40
 836 02d6 D1        		.byte	-47
 837 02d7 D1        		.byte	-47
 838 02d8 E8        		.byte	-24
 839 02d9 EA        		.byte	-22
GAS LISTING /tmp/ccdhZXtX.s 			page 14


 840 02da F7        		.byte	-9
 841 02db EB        		.byte	-21
 842 02dc FD        		.byte	-3
 843 02dd FF        		.byte	-1
 844 02de 0E        		.byte	14
 845 02df 0E        		.byte	14
 846 02e0 1E        		.byte	30
 847 02e1 1D        		.byte	29
 848 02e2 24        		.byte	36
 849 02e3 22        		.byte	34
 850 02e4 32        		.byte	50
 851 02e5 09        		.byte	9
 852 02e6 F8        		.byte	-8
 853 02e7 07        		.byte	7
 854 02e8 0B        		.byte	11
 855 02e9 17        		.byte	23
 856 02ea 10        		.byte	16
 857 02eb 16        		.byte	22
 858 02ec 0C        		.byte	12
 859 02ed 0C        		.byte	12
 860 02ee 04        		.byte	4
 861 02ef 1D        		.byte	29
 862 02f0 F2        		.byte	-14
 863 02f1 FA        		.byte	-6
 864 02f2 03        		.byte	3
 865 02f3 11        		.byte	17
 866 02f4 0B        		.byte	11
 867 02f5 12        		.byte	18
 868 02f6 06        		.byte	6
 869 02f7 DB        		.byte	-37
 870 02f8 FC        		.byte	-4
 871 02f9 FF        		.byte	-1
 872 02fa 10        		.byte	16
 873 02fb 10        		.byte	16
 874 02fc 19        		.byte	25
 875 02fd 15        		.byte	21
 876 02fe 08        		.byte	8
 877 02ff 11        		.byte	17
 878 0300 1C        		.byte	28
 879 0301 1A        		.byte	26
 880 0302 1D        		.byte	29
 881 0303 18        		.byte	24
 882 0304 20        		.byte	32
 883 0305 17        		.byte	23
 884 0306 32        		.byte	50
 885 0307 12        		.byte	18
 886 0308 E0        		.byte	-32
 887 0309 E4        		.byte	-28
 888 030a CA        		.byte	-54
 889 030b CE        		.byte	-50
 890 030c D2        		.byte	-46
 891 030d E9        		.byte	-23
 892 030e EB        		.byte	-21
 893 030f B9        		.byte	-71
 894 0310 AA        		.byte	-86
 895 0311 DA        		.byte	-38
 896 0312 FA        		.byte	-6
GAS LISTING /tmp/ccdhZXtX.s 			page 15


 897 0313 10        		.byte	16
 898 0314 23        		.byte	35
 899 0315 23        		.byte	35
 900 0316 21        		.byte	33
 901 0317 2A        		.byte	42
 902 0318 37        		.byte	55
 903 0319 34        		.byte	52
 904 031a 05        		.byte	5
 905 031b 4D        		.byte	77
 906 031c 39        		.byte	57
 907 031d FA        		.byte	-6
 908 031e EC        		.byte	-20
 909 031f D2        		.byte	-46
 910 0320 F8        		.byte	-8
 911 0321 A9        		.byte	-87
 912 0322 C9        		.byte	-55
 913 0323 E0        		.byte	-32
 914 0324 E6        		.byte	-26
 915 0325 DA        		.byte	-38
 916 0326 C2        		.byte	-62
 917 0327 D1        		.byte	-47
 918 0328 FF        		.byte	-1
 919 0329 03        		.byte	3
 920 032a C8        		.byte	-56
 921 032b F2        		.byte	-14
 922 032c F5        		.byte	-11
 923 032d 04        		.byte	4
 924 032e 07        		.byte	7
 925 032f 0E        		.byte	14
 926 0330 29        		.byte	41
 927 0331 4A        		.byte	74
 928 0332 4A        		.byte	74
 929 0333 6D        		.byte	109
 930 0334 41        		.byte	65
 931 0335 39        		.byte	57
 932 0336 1E        		.byte	30
 933 0337 0E        		.byte	14
 934 0338 2D        		.byte	45
 935 0339 2C        		.byte	44
 936 033a 1F        		.byte	31
 937 033b C3        		.byte	-61
 938 033c D6        		.byte	-42
 939 033d 9E        		.byte	-98
 940 033e B5        		.byte	-75
 941 033f E4        		.byte	-28
 942 0340 DE        		.byte	-34
 943 0341 E7        		.byte	-25
 944 0342 E0        		.byte	-32
 945 0343 C4        		.byte	-60
 946 0344 CB        		.byte	-53
 947 0345 CD        		.byte	-51
 948 0346 D1        		.byte	-47
 949 0347 DB        		.byte	-37
 950 0348 EC        		.byte	-20
 951 0349 0A        		.byte	10
 952 034a 0A        		.byte	10
 953 034b 08        		.byte	8
GAS LISTING /tmp/ccdhZXtX.s 			page 16


 954 034c C0        		.byte	-64
 955 034d BB        		.byte	-69
 956 034e C2        		.byte	-62
 957 034f D7        		.byte	-41
 958 0350 D2        		.byte	-46
 959 0351 DC        		.byte	-36
 960 0352 EA        		.byte	-22
 961 0353 E6        		.byte	-26
 962 0354 D5        		.byte	-43
 963 0355 F4        		.byte	-12
 964 0356 18        		.byte	24
 965 0357 29        		.byte	41
 966 0358 37        		.byte	55
 967 0359 39        		.byte	57
 968 035a 3C        		.byte	60
 969 035b 29        		.byte	41
 970 035c 34        		.byte	52
 971 035d 0E        		.byte	14
 972 035e 24        		.byte	36
 973 035f 45        		.byte	69
 974 0360 5C        		.byte	92
 975 0361 69        		.byte	105
 976 0362 52        		.byte	82
 977 0363 48        		.byte	72
 978 0364 49        		.byte	73
 979 0365 48        		.byte	72
 980 0366 43        		.byte	67
 981 0367 3C        		.byte	60
 982 0368 3E        		.byte	62
 983 0369 35        		.byte	53
 984 036a 1C        		.byte	28
 985 036b FC        		.byte	-4
 986 036c FD        		.byte	-3
 987 036d 1B        		.byte	27
 988 036e EF        		.byte	-17
 989 036f E6        		.byte	-26
 990 0370 F3        		.byte	-13
 991 0371 DF        		.byte	-33
 992 0372 DE        		.byte	-34
 993 0373 D0        		.byte	-48
 994 0374 CE        		.byte	-50
 995 0375 C4        		.byte	-60
 996 0376 A8        		.byte	-88
 997 0377 C6        		.byte	-58
 998 0378 BB        		.byte	-69
 999 0379 AE        		.byte	-82
 1000 037a B7        		.byte	-73
 1001 037b B2        		.byte	-78
 1002 037c C0        		.byte	-64
 1003 037d B3        		.byte	-77
 1004 037e C0        		.byte	-64
 1005 037f AD        		.byte	-83
 1006 0380 A8        		.byte	-88
 1007 0381 B2        		.byte	-78
 1008 0382 B0        		.byte	-80
 1009 0383 C1        		.byte	-63
 1010 0384 C6        		.byte	-58
GAS LISTING /tmp/ccdhZXtX.s 			page 17


 1011 0385 D1        		.byte	-47
 1012 0386 CF        		.byte	-49
 1013 0387 D5        		.byte	-43
 1014 0388 DC        		.byte	-36
 1015 0389 EA        		.byte	-22
 1016 038a E8        		.byte	-24
 1017 038b EC        		.byte	-20
 1018 038c FE        		.byte	-2
 1019 038d 0F        		.byte	15
 1020 038e 26        		.byte	38
 1021 038f 2D        		.byte	45
 1022 0390 14        		.byte	20
 1023 0391 0E        		.byte	14
 1024 0392 2A        		.byte	42
 1025 0393 3E        		.byte	62
 1026 0394 3D        		.byte	61
 1027 0395 3E        		.byte	62
 1028 0396 4B        		.byte	75
 1029 0397 50        		.byte	80
 1030 0398 3C        		.byte	60
 1031 0399 3B        		.byte	59
 1032 039a 50        		.byte	80
 1033 039b 5C        		.byte	92
 1034 039c 68        		.byte	104
 1035 039d 64        		.byte	100
 1036 039e 64        		.byte	100
 1037 039f 50        		.byte	80
 1038 03a0 59        		.byte	89
 1039 03a1 54        		.byte	84
 1040 03a2 48        		.byte	72
 1041 03a3 57        		.byte	87
 1042 03a4 58        		.byte	88
 1043 03a5 63        		.byte	99
 1044 03a6 55        		.byte	85
 1045 03a7 42        		.byte	66
 1046 03a8 37        		.byte	55
 1047 03a9 32        		.byte	50
 1048 03aa 35        		.byte	53
 1049 03ab 2A        		.byte	42
 1050 03ac 22        		.byte	34
 1051 03ad 1E        		.byte	30
 1052 03ae 0D        		.byte	13
 1053 03af F2        		.byte	-14
 1054 03b0 DA        		.byte	-38
 1055 03b1 E7        		.byte	-25
 1056 03b2 E6        		.byte	-26
 1057 03b3 C7        		.byte	-57
 1058 03b4 CC        		.byte	-52
 1059 03b5 CF        		.byte	-49
 1060 03b6 C2        		.byte	-62
 1061 03b7 B7        		.byte	-73
 1062 03b8 AE        		.byte	-82
 1063 03b9 A6        		.byte	-90
 1064 03ba 9B        		.byte	-101
 1065 03bb 9D        		.byte	-99
 1066 03bc AA        		.byte	-86
 1067 03bd 9E        		.byte	-98
GAS LISTING /tmp/ccdhZXtX.s 			page 18


 1068 03be 9B        		.byte	-101
 1069 03bf 9B        		.byte	-101
 1070 03c0 A3        		.byte	-93
 1071 03c1 AE        		.byte	-82
 1072 03c2 A5        		.byte	-91
 1073 03c3 AD        		.byte	-83
 1074 03c4 9E        		.byte	-98
 1075 03c5 A7        		.byte	-89
 1076 03c6 A8        		.byte	-88
 1077 03c7 9C        		.byte	-100
 1078 03c8 A9        		.byte	-87
 1079 03c9 BA        		.byte	-70
 1080 03ca C5        		.byte	-59
 1081 03cb CD        		.byte	-51
 1082 03cc DE        		.byte	-34
 1083 03cd E5        		.byte	-27
 1084 03ce E6        		.byte	-26
 1085 03cf F6        		.byte	-10
 1086 03d0 FC        		.byte	-4
 1087 03d1 FB        		.byte	-5
 1088 03d2 08        		.byte	8
 1089 03d3 14        		.byte	20
 1090 03d4 19        		.byte	25
 1091 03d5 F6        		.byte	-10
 1092 03d6 02        		.byte	2
 1093 03d7 20        		.byte	32
 1094 03d8 2F        		.byte	47
 1095 03d9 29        		.byte	41
 1096 03da 2E        		.byte	46
 1097 03db 39        		.byte	57
 1098 03dc 20        		.byte	32
 1099 03dd 15        		.byte	21
 1100 03de 1C        		.byte	28
 1101 03df 38        		.byte	56
 1102 03e0 50        		.byte	80
 1103 03e1 53        		.byte	83
 1104 03e2 57        		.byte	87
 1105 03e3 5F        		.byte	95
 1106 03e4 4E        		.byte	78
 1107 03e5 50        		.byte	80
 1108 03e6 3B        		.byte	59
 1109 03e7 37        		.byte	55
 1110 03e8 4A        		.byte	74
 1111 03e9 4F        		.byte	79
 1112 03ea 57        		.byte	87
 1113 03eb 3E        		.byte	62
 1114 03ec 35        		.byte	53
 1115 03ed 32        		.byte	50
 1116 03ee 37        		.byte	55
 1117 03ef 40        		.byte	64
 1118 03f0 22        		.byte	34
 1119 03f1 1F        		.byte	31
 1120 03f2 2B        		.byte	43
 1121 03f3 20        		.byte	32
 1122 03f4 09        		.byte	9
 1123 03f5 02        		.byte	2
 1124 03f6 13        		.byte	19
GAS LISTING /tmp/ccdhZXtX.s 			page 19


 1125 03f7 08        		.byte	8
 1126 03f8 F9        		.byte	-7
 1127 03f9 06        		.byte	6
 1128 03fa 08        		.byte	8
 1129 03fb F8        		.byte	-8
 1130 03fc EF        		.byte	-17
 1131 03fd E9        		.byte	-23
 1132 03fe E9        		.byte	-23
 1133 03ff E2        		.byte	-30
 1134 0400 ED        		.byte	-19
 1135 0401 F2        		.byte	-14
 1136 0402 E2        		.byte	-30
 1137 0403 E0        		.byte	-32
 1138 0404 D5        		.byte	-43
 1139 0405 E2        		.byte	-30
 1140 0406 D8        		.byte	-40
 1141 0407 D5        		.byte	-43
 1142 0408 D0        		.byte	-48
 1143 0409 BF        		.byte	-65
 1144 040a C5        		.byte	-59
 1145 040b AD        		.byte	-83
 1146 040c B9        		.byte	-71
 1147 040d C1        		.byte	-63
 1148 040e CB        		.byte	-53
 1149 040f D0        		.byte	-48
 1150 0410 D6        		.byte	-42
 1151 0411 E3        		.byte	-29
 1152 0412 D8        		.byte	-40
 1153 0413 DB        		.byte	-37
 1154 0414 DE        		.byte	-34
 1155 0415 DE        		.byte	-34
 1156 0416 DA        		.byte	-38
 1157 0417 E0        		.byte	-32
 1158 0418 E6        		.byte	-26
 1159 0419 C3        		.byte	-61
 1160 041a AA        		.byte	-86
 1161 041b BC        		.byte	-68
 1162 041c D3        		.byte	-45
 1163 041d E3        		.byte	-29
 1164 041e D3        		.byte	-45
 1165 041f DA        		.byte	-38
 1166 0420 DE        		.byte	-34
 1167 0421 D4        		.byte	-44
 1168 0422 C6        		.byte	-58
 1169 0423 D2        		.byte	-46
 1170 0424 ED        		.byte	-19
 1171 0425 FB        		.byte	-5
 1172 0426 FF        		.byte	-1
 1173 0427 03        		.byte	3
 1174 0428 0B        		.byte	11
 1175 0429 FA        		.byte	-6
 1176 042a 07        		.byte	7
 1177 042b ED        		.byte	-19
 1178 042c FE        		.byte	-2
 1179 042d 01        		.byte	1
 1180 042e FF        		.byte	-1
 1181 042f 1A        		.byte	26
GAS LISTING /tmp/ccdhZXtX.s 			page 20


 1182 0430 05        		.byte	5
 1183 0431 0F        		.byte	15
 1184 0432 14        		.byte	20
 1185 0433 26        		.byte	38
 1186 0434 28        		.byte	40
 1187 0435 26        		.byte	38
 1188 0436 2E        		.byte	46
 1189 0437 34        		.byte	52
 1190 0438 2E        		.byte	46
 1191 0439 1D        		.byte	29
 1192 043a 29        		.byte	41
 1193 043b 3E        		.byte	62
 1194 043c 37        		.byte	55
 1195 043d 39        		.byte	57
 1196 043e 53        		.byte	83
 1197 043f 5C        		.byte	92
 1198 0440 51        		.byte	81
 1199 0441 49        		.byte	73
 1200 0442 3A        		.byte	58
 1201 0443 3D        		.byte	61
 1202 0444 45        		.byte	69
 1203 0445 4D        		.byte	77
 1204 0446 61        		.byte	97
 1205 0447 55        		.byte	85
 1206 0448 4F        		.byte	79
 1207 0449 4E        		.byte	78
 1208 044a 59        		.byte	89
 1209 044b 4B        		.byte	75
 1210 044c 4A        		.byte	74
 1211 044d 3E        		.byte	62
 1212 044e 36        		.byte	54
 1213 044f 3F        		.byte	63
 1214 0450 2F        		.byte	47
 1215 0451 39        		.byte	57
 1216 0452 45        		.byte	69
 1217 0453 4F        		.byte	79
 1218 0454 4C        		.byte	76
 1219 0455 59        		.byte	89
 1220 0456 58        		.byte	88
 1221 0457 4C        		.byte	76
 1222 0458 48        		.byte	72
 1223 0459 46        		.byte	70
 1224 045a 44        		.byte	68
 1225 045b 3E        		.byte	62
 1226 045c 38        		.byte	56
 1227 045d 3D        		.byte	61
 1228 045e 17        		.byte	23
 1229 045f FC        		.byte	-4
 1230 0460 0E        		.byte	14
 1231 0461 1B        		.byte	27
 1232 0462 14        		.byte	20
 1233 0463 0A        		.byte	10
 1234 0464 08        		.byte	8
 1235 0465 05        		.byte	5
 1236 0466 F5        		.byte	-11
 1237 0467 DC        		.byte	-36
 1238 0468 EB        		.byte	-21
GAS LISTING /tmp/ccdhZXtX.s 			page 21


 1239 0469 F8        		.byte	-8
 1240 046a F0        		.byte	-16
 1241 046b D0        		.byte	-48
 1242 046c DF        		.byte	-33
 1243 046d D5        		.byte	-43
 1244 046e CD        		.byte	-51
 1245 046f C9        		.byte	-55
 1246 0470 AD        		.byte	-83
 1247 0471 B9        		.byte	-71
 1248 0472 B3        		.byte	-77
 1249 0473 BC        		.byte	-68
 1250 0474 B4        		.byte	-76
 1251 0475 AA        		.byte	-86
 1252 0476 A0        		.byte	-96
 1253 0477 A5        		.byte	-91
 1254 0478 B1        		.byte	-79
 1255 0479 A9        		.byte	-87
 1256 047a AB        		.byte	-85
 1257 047b AF        		.byte	-81
 1258 047c B5        		.byte	-75
 1259 047d A9        		.byte	-87
 1260 047e 9A        		.byte	-102
 1261 047f 9B        		.byte	-101
 1262 0480 9F        		.byte	-97
 1263 0481 9A        		.byte	-102
 1264 0482 9E        		.byte	-98
 1265 0483 B6        		.byte	-74
 1266 0484 B3        		.byte	-77
 1267 0485 A9        		.byte	-87
 1268 0486 AA        		.byte	-86
 1269 0487 A5        		.byte	-91
 1270 0488 A7        		.byte	-89
 1271 0489 AD        		.byte	-83
 1272 048a BA        		.byte	-70
 1273 048b C1        		.byte	-63
 1274 048c C0        		.byte	-64
 1275 048d C3        		.byte	-61
 1276 048e CE        		.byte	-50
 1277 048f D9        		.byte	-39
 1278 0490 DA        		.byte	-38
 1279 0491 E2        		.byte	-30
 1280 0492 D7        		.byte	-41
 1281 0493 DC        		.byte	-36
 1282 0494 CF        		.byte	-49
 1283 0495 D3        		.byte	-45
 1284 0496 F7        		.byte	-9
 1285 0497 09        		.byte	9
 1286 0498 1A        		.byte	26
 1287 0499 1E        		.byte	30
 1288 049a 37        		.byte	55
 1289 049b 3A        		.byte	58
 1290 049c 36        		.byte	54
 1291 049d 44        		.byte	68
 1292 049e 46        		.byte	70
 1293 049f 4B        		.byte	75
 1294 04a0 4B        		.byte	75
 1295 04a1 56        		.byte	86
GAS LISTING /tmp/ccdhZXtX.s 			page 22


 1296 04a2 5F        		.byte	95
 1297 04a3 40        		.byte	64
 1298 04a4 40        		.byte	64
 1299 04a5 59        		.byte	89
 1300 04a6 63        		.byte	99
 1301 04a7 60        		.byte	96
 1302 04a8 61        		.byte	97
 1303 04a9 60        		.byte	96
 1304 04aa 63        		.byte	99
 1305 04ab 56        		.byte	86
 1306 04ac 4F        		.byte	79
 1307 04ad 63        		.byte	99
 1308 04ae 66        		.byte	102
 1309 04af 66        		.byte	102
 1310 04b0 5E        		.byte	94
 1311 04b1 66        		.byte	102
 1312 04b2 5E        		.byte	94
 1313 04b3 5A        		.byte	90
 1314 04b4 4A        		.byte	74
 1315 04b5 43        		.byte	67
 1316 04b6 49        		.byte	73
 1317 04b7 44        		.byte	68
 1318 04b8 50        		.byte	80
 1319 04b9 47        		.byte	71
 1320 04ba 38        		.byte	56
 1321 04bb 2E        		.byte	46
 1322 04bc 28        		.byte	40
 1323 04bd 21        		.byte	33
 1324 04be 20        		.byte	32
 1325 04bf 22        		.byte	34
 1326 04c0 21        		.byte	33
 1327 04c1 21        		.byte	33
 1328 04c2 03        		.byte	3
 1329 04c3 F5        		.byte	-11
 1330 04c4 08        		.byte	8
 1331 04c5 F6        		.byte	-10
 1332 04c6 EA        		.byte	-22
 1333 04c7 F0        		.byte	-16
 1334 04c8 F6        		.byte	-10
 1335 04c9 F3        		.byte	-13
 1336 04ca E8        		.byte	-24
 1337 04cb E5        		.byte	-27
 1338 04cc DF        		.byte	-33
 1339 04cd E2        		.byte	-30
 1340 04ce E0        		.byte	-32
 1341 04cf EB        		.byte	-21
 1342 04d0 DF        		.byte	-33
 1343 04d1 C4        		.byte	-60
 1344 04d2 C2        		.byte	-62
 1345 04d3 CB        		.byte	-53
 1346 04d4 CB        		.byte	-53
 1347 04d5 D3        		.byte	-45
 1348 04d6 CA        		.byte	-54
 1349 04d7 BB        		.byte	-69
 1350 04d8 C9        		.byte	-55
 1351 04d9 AB        		.byte	-85
 1352 04da B3        		.byte	-77
GAS LISTING /tmp/ccdhZXtX.s 			page 23


 1353 04db C6        		.byte	-58
 1354 04dc C9        		.byte	-55
 1355 04dd C9        		.byte	-55
 1356 04de CE        		.byte	-50
 1357 04df DF        		.byte	-33
 1358 04e0 D8        		.byte	-40
 1359 04e1 DF        		.byte	-33
 1360 04e2 E2        		.byte	-30
 1361 04e3 E9        		.byte	-23
 1362 04e4 E8        		.byte	-24
 1363 04e5 CF        		.byte	-49
 1364 04e6 E1        		.byte	-31
 1365 04e7 DB        		.byte	-37
 1366 04e8 C1        		.byte	-63
 1367 04e9 D1        		.byte	-47
 1368 04ea E2        		.byte	-30
 1369 04eb EB        		.byte	-21
 1370 04ec E4        		.byte	-28
 1371 04ed E6        		.byte	-26
 1372 04ee E2        		.byte	-30
 1373 04ef EF        		.byte	-17
 1374 04f0 D2        		.byte	-46
 1375 04f1 DD        		.byte	-35
 1376 04f2 F6        		.byte	-10
 1377 04f3 04        		.byte	4
 1378 04f4 09        		.byte	9
 1379 04f5 0B        		.byte	11
 1380 04f6 13        		.byte	19
 1381 04f7 0E        		.byte	14
 1382 04f8 0F        		.byte	15
 1383 04f9 ED        		.byte	-19
 1384 04fa 02        		.byte	2
 1385 04fb F9        		.byte	-7
 1386 04fc 03        		.byte	3
 1387 04fd 11        		.byte	17
 1388 04fe 07        		.byte	7
 1389 04ff F9        		.byte	-7
 1390 0500 F5        		.byte	-11
 1391 0501 08        		.byte	8
 1392 0502 FF        		.byte	-1
 1393 0503 08        		.byte	8
 1394 0504 09        		.byte	9
 1395 0505 0F        		.byte	15
 1396 0506 15        		.byte	21
 1397 0507 ED        		.byte	-19
 1398 0508 FE        		.byte	-2
 1399 0509 17        		.byte	23
 1400 050a 04        		.byte	4
 1401 050b 0B        		.byte	11
 1402 050c 1A        		.byte	26
 1403 050d 23        		.byte	35
 1404 050e 0B        		.byte	11
 1405 050f 0A        		.byte	10
 1406 0510 0E        		.byte	14
 1407 0511 1A        		.byte	26
 1408 0512 22        		.byte	34
 1409 0513 26        		.byte	38
GAS LISTING /tmp/ccdhZXtX.s 			page 24


 1410 0514 37        		.byte	55
 1411 0515 2F        		.byte	47
 1412 0516 26        		.byte	38
 1413 0517 26        		.byte	38
 1414 0518 35        		.byte	53
 1415 0519 30        		.byte	48
 1416 051a 36        		.byte	54
 1417 051b 19        		.byte	25
 1418 051c 1D        		.byte	29
 1419 051d 22        		.byte	34
 1420 051e 08        		.byte	8
 1421 051f 1F        		.byte	31
 1422 0520 2F        		.byte	47
 1423 0521 39        		.byte	57
 1424 0522 26        		.byte	38
 1425 0523 29        		.byte	41
 1426 0524 35        		.byte	53
 1427 0525 3A        		.byte	58
 1428 0526 3F        		.byte	63
 1429 0527 43        		.byte	67
 1430 0528 49        		.byte	73
 1431 0529 3B        		.byte	59
 1432 052a 39        		.byte	57
 1433 052b 49        		.byte	73
 1434 052c 2F        		.byte	47
 1435 052d 17        		.byte	23
 1436 052e 23        		.byte	35
 1437 052f 37        		.byte	55
 1438 0530 38        		.byte	56
 1439 0531 34        		.byte	52
 1440 0532 30        		.byte	48
 1441 0533 32        		.byte	50
 1442 0534 2F        		.byte	47
 1443 0535 15        		.byte	21
 1444 0536 1F        		.byte	31
 1445 0537 18        		.byte	24
 1446 0538 23        		.byte	35
 1447 0539 27        		.byte	39
 1448 053a 2F        		.byte	47
 1449 053b 29        		.byte	41
 1450 053c 2B        		.byte	43
 1451 053d 19        		.byte	25
 1452 053e 00        		.byte	0
 1453 053f 08        		.byte	8
 1454 0540 F6        		.byte	-10
 1455 0541 05        		.byte	5
 1456 0542 FB        		.byte	-5
 1457 0543 F2        		.byte	-14
 1458 0544 DB        		.byte	-37
 1459 0545 E0        		.byte	-32
 1460 0546 E8        		.byte	-24
 1461 0547 DE        		.byte	-34
 1462 0548 DB        		.byte	-37
 1463 0549 D4        		.byte	-44
 1464 054a DD        		.byte	-35
 1465 054b C8        		.byte	-56
 1466 054c A8        		.byte	-88
GAS LISTING /tmp/ccdhZXtX.s 			page 25


 1467 054d B8        		.byte	-72
 1468 054e C1        		.byte	-63
 1469 054f A8        		.byte	-88
 1470 0550 B0        		.byte	-80
 1471 0551 B0        		.byte	-80
 1472 0552 B5        		.byte	-75
 1473 0553 AA        		.byte	-86
 1474 0554 9F        		.byte	-97
 1475 0555 A3        		.byte	-93
 1476 0556 A2        		.byte	-94
 1477 0557 A1        		.byte	-95
 1478 0558 AF        		.byte	-81
 1479 0559 B3        		.byte	-77
 1480 055a AD        		.byte	-83
 1481 055b B2        		.byte	-78
 1482 055c BA        		.byte	-70
 1483 055d C2        		.byte	-62
 1484 055e C5        		.byte	-59
 1485 055f BE        		.byte	-66
 1486 0560 9D        		.byte	-99
 1487 0561 AE        		.byte	-82
 1488 0562 AD        		.byte	-83
 1489 0563 A9        		.byte	-87
 1490 0564 BD        		.byte	-67
 1491 0565 C4        		.byte	-60
 1492 0566 C7        		.byte	-57
 1493 0567 C3        		.byte	-61
 1494 0568 CF        		.byte	-49
 1495 0569 CD        		.byte	-51
 1496 056a CD        		.byte	-51
 1497 056b C7        		.byte	-57
 1498 056c D7        		.byte	-41
 1499 056d D8        		.byte	-40
 1500 056e CD        		.byte	-51
 1501 056f E2        		.byte	-30
 1502 0570 ED        		.byte	-19
 1503 0571 CD        		.byte	-51
 1504 0572 CC        		.byte	-52
 1505 0573 DF        		.byte	-33
 1506 0574 DA        		.byte	-38
 1507 0575 DE        		.byte	-34
 1508 0576 E5        		.byte	-27
 1509 0577 E8        		.byte	-24
 1510 0578 F8        		.byte	-8
 1511 0579 F3        		.byte	-13
 1512 057a E6        		.byte	-26
 1513 057b 04        		.byte	4
 1514 057c 0F        		.byte	15
 1515 057d 1F        		.byte	31
 1516 057e 2A        		.byte	42
 1517 057f 2C        		.byte	44
 1518 0580 38        		.byte	56
 1519 0581 3C        		.byte	60
 1520 0582 28        		.byte	40
 1521 0583 27        		.byte	39
 1522 0584 38        		.byte	56
 1523 0585 3E        		.byte	62
GAS LISTING /tmp/ccdhZXtX.s 			page 26


 1524 0586 53        		.byte	83
 1525 0587 5B        		.byte	91
 1526 0588 3C        		.byte	60
 1527 0589 2D        		.byte	45
 1528 058a 47        		.byte	71
 1529 058b 53        		.byte	83
 1530 058c 59        		.byte	89
 1531 058d 56        		.byte	86
 1532 058e 62        		.byte	98
 1533 058f 67        		.byte	103
 1534 0590 4B        		.byte	75
 1535 0591 42        		.byte	66
 1536 0592 5F        		.byte	95
 1537 0593 54        		.byte	84
 1538 0594 4C        		.byte	76
 1539 0595 5B        		.byte	91
 1540 0596 67        		.byte	103
 1541 0597 6D        		.byte	109
 1542 0598 62        		.byte	98
 1543 0599 66        		.byte	102
 1544 059a 5C        		.byte	92
 1545 059b 61        		.byte	97
 1546 059c 5F        		.byte	95
 1547 059d 6B        		.byte	107
 1548 059e 65        		.byte	101
 1549 059f 59        		.byte	89
 1550 05a0 57        		.byte	87
 1551 05a1 55        		.byte	85
 1552 05a2 59        		.byte	89
 1553 05a3 52        		.byte	82
 1554 05a4 37        		.byte	55
 1555 05a5 1E        		.byte	30
 1556 05a6 2A        		.byte	42
 1557 05a7 17        		.byte	23
 1558 05a8 0D        		.byte	13
 1559 05a9 2A        		.byte	42
 1560 05aa 2F        		.byte	47
 1561 05ab 25        		.byte	37
 1562 05ac 2A        		.byte	42
 1563 05ad 3A        		.byte	58
 1564 05ae 3A        		.byte	58
 1565 05af 2C        		.byte	44
 1566 05b0 34        		.byte	52
 1567 05b1 1E        		.byte	30
 1568 05b2 0D        		.byte	13
 1569 05b3 0F        		.byte	15
 1570 05b4 22        		.byte	34
 1571 05b5 18        		.byte	24
 1572 05b6 F2        		.byte	-14
 1573 05b7 F3        		.byte	-13
 1574 05b8 FE        		.byte	-2
 1575 05b9 09        		.byte	9
 1576 05ba F7        		.byte	-9
 1577 05bb F7        		.byte	-9
 1578 05bc EE        		.byte	-18
 1579 05bd EF        		.byte	-17
 1580 05be DE        		.byte	-34
GAS LISTING /tmp/ccdhZXtX.s 			page 27


 1581 05bf D2        		.byte	-46
 1582 05c0 E5        		.byte	-27
 1583 05c1 EF        		.byte	-17
 1584 05c2 F8        		.byte	-8
 1585 05c3 ED        		.byte	-19
 1586 05c4 F7        		.byte	-9
 1587 05c5 EE        		.byte	-18
 1588 05c6 CA        		.byte	-54
 1589 05c7 B9        		.byte	-71
 1590 05c8 BE        		.byte	-66
 1591 05c9 C3        		.byte	-61
 1592 05ca CE        		.byte	-50
 1593 05cb D9        		.byte	-39
 1594 05cc D0        		.byte	-48
 1595 05cd BD        		.byte	-67
 1596 05ce B0        		.byte	-80
 1597 05cf C7        		.byte	-57
 1598 05d0 CD        		.byte	-51
 1599 05d1 C2        		.byte	-62
 1600 05d2 C7        		.byte	-57
 1601 05d3 D0        		.byte	-48
 1602 05d4 D0        		.byte	-48
 1603 05d5 AD        		.byte	-83
 1604 05d6 B5        		.byte	-75
 1605 05d7 CC        		.byte	-52
 1606 05d8 BE        		.byte	-66
 1607 05d9 B9        		.byte	-71
 1608 05da A9        		.byte	-87
 1609 05db BB        		.byte	-69
 1610 05dc BF        		.byte	-65
 1611 05dd BD        		.byte	-67
 1612 05de BE        		.byte	-66
 1613 05df C4        		.byte	-60
 1614 05e0 C8        		.byte	-56
 1615 05e1 C5        		.byte	-59
 1616 05e2 D4        		.byte	-44
 1617 05e3 CA        		.byte	-54
 1618 05e4 CA        		.byte	-54
 1619 05e5 C0        		.byte	-64
 1620 05e6 C7        		.byte	-57
 1621 05e7 CA        		.byte	-54
 1622 05e8 C6        		.byte	-58
 1623 05e9 AF        		.byte	-81
 1624 05ea A9        		.byte	-87
 1625 05eb B6        		.byte	-74
 1626 05ec A4        		.byte	-92
 1627 05ed AD        		.byte	-83
 1628 05ee C4        		.byte	-60
 1629 05ef C9        		.byte	-55
 1630 05f0 C3        		.byte	-61
 1631 05f1 D2        		.byte	-46
 1632 05f2 DF        		.byte	-33
 1633 05f3 E0        		.byte	-32
 1634 05f4 D7        		.byte	-41
 1635 05f5 E0        		.byte	-32
 1636 05f6 E0        		.byte	-32
 1637 05f7 DA        		.byte	-38
GAS LISTING /tmp/ccdhZXtX.s 			page 28


 1638 05f8 E0        		.byte	-32
 1639 05f9 F4        		.byte	-12
 1640 05fa DD        		.byte	-35
 1641 05fb CC        		.byte	-52
 1642 05fc D7        		.byte	-41
 1643 05fd E6        		.byte	-26
 1644 05fe F1        		.byte	-15
 1645 05ff F3        		.byte	-13
 1646 0600 F0        		.byte	-16
 1647 0601 F5        		.byte	-11
 1648 0602 FB        		.byte	-5
 1649 0603 C7        		.byte	-57
 1650 0604 DF        		.byte	-33
 1651 0605 00        		.byte	0
 1652 0606 17        		.byte	23
 1653 0607 1E        		.byte	30
 1654 0608 1F        		.byte	31
 1655 0609 2C        		.byte	44
 1656 060a 30        		.byte	48
 1657 060b 1F        		.byte	31
 1658 060c 0C        		.byte	12
 1659 060d 13        		.byte	19
 1660 060e 16        		.byte	22
 1661 060f 2C        		.byte	44
 1662 0610 32        		.byte	50
 1663 0611 26        		.byte	38
 1664 0612 17        		.byte	23
 1665 0613 21        		.byte	33
 1666 0614 35        		.byte	53
 1667 0615 37        		.byte	55
 1668 0616 38        		.byte	56
 1669 0617 29        		.byte	41
 1670 0618 1F        		.byte	31
 1671 0619 28        		.byte	40
 1672 061a 09        		.byte	9
 1673 061b 1F        		.byte	31
 1674 061c 2F        		.byte	47
 1675 061d 20        		.byte	32
 1676 061e 22        		.byte	34
 1677 061f 2A        		.byte	42
 1678 0620 3D        		.byte	61
 1679 0621 2F        		.byte	47
 1680 0622 30        		.byte	48
 1681 0623 2E        		.byte	46
 1682 0624 39        		.byte	57
 1683 0625 39        		.byte	57
 1684 0626 40        		.byte	64
 1685 0627 43        		.byte	67
 1686 0628 4C        		.byte	76
 1687 0629 48        		.byte	72
 1688 062a 48        		.byte	72
 1689 062b 47        		.byte	71
 1690 062c 2F        		.byte	47
 1691 062d 32        		.byte	50
 1692 062e 1E        		.byte	30
 1693 062f 27        		.byte	39
 1694 0630 25        		.byte	37
GAS LISTING /tmp/ccdhZXtX.s 			page 29


 1695 0631 1C        		.byte	28
 1696 0632 21        		.byte	33
 1697 0633 32        		.byte	50
 1698 0634 34        		.byte	52
 1699 0635 36        		.byte	54
 1700 0636 3F        		.byte	63
 1701 0637 44        		.byte	68
 1702 0638 3E        		.byte	62
 1703 0639 3C        		.byte	60
 1704 063a 4A        		.byte	74
 1705 063b 3A        		.byte	58
 1706 063c 3F        		.byte	63
 1707 063d 45        		.byte	69
 1708 063e 4D        		.byte	77
 1709 063f 29        		.byte	41
 1710 0640 18        		.byte	24
 1711 0641 1D        		.byte	29
 1712 0642 2E        		.byte	46
 1713 0643 2D        		.byte	45
 1714 0644 22        		.byte	34
 1715 0645 1F        		.byte	31
 1716 0646 1C        		.byte	28
 1717 0647 11        		.byte	17
 1718 0648 F9        		.byte	-7
 1719 0649 09        		.byte	9
 1720 064a 18        		.byte	24
 1721 064b 29        		.byte	41
 1722 064c 29        		.byte	41
 1723 064d 2F        		.byte	47
 1724 064e 2A        		.byte	42
 1725 064f 24        		.byte	36
 1726 0650 09        		.byte	9
 1727 0651 08        		.byte	8
 1728 0652 0B        		.byte	11
 1729 0653 16        		.byte	22
 1730 0654 0F        		.byte	15
 1731 0655 FE        		.byte	-2
 1732 0656 FA        		.byte	-6
 1733 0657 F3        		.byte	-13
 1734 0658 06        		.byte	6
 1735 0659 0F        		.byte	15
 1736 065a 10        		.byte	16
 1737 065b 06        		.byte	6
 1738 065c 13        		.byte	19
 1739 065d 0D        		.byte	13
 1740 065e F6        		.byte	-10
 1741 065f DC        		.byte	-36
 1742 0660 F3        		.byte	-13
 1743 0661 F3        		.byte	-13
 1744 0662 E7        		.byte	-25
 1745 0663 EA        		.byte	-22
 1746 0664 F7        		.byte	-9
 1747 0665 FF        		.byte	-1
 1748 0666 EE        		.byte	-18
 1749 0667 EE        		.byte	-18
 1750 0668 E1        		.byte	-31
 1751 0669 D0        		.byte	-48
GAS LISTING /tmp/ccdhZXtX.s 			page 30


 1752 066a D2        		.byte	-46
 1753 066b E7        		.byte	-25
 1754 066c E9        		.byte	-23
 1755 066d E5        		.byte	-27
 1756 066e E1        		.byte	-31
 1757 066f E0        		.byte	-32
 1758 0670 DF        		.byte	-33
 1759 0671 E4        		.byte	-28
 1760 0672 CB        		.byte	-53
 1761 0673 B9        		.byte	-71
 1762 0674 C4        		.byte	-60
 1763 0675 BB        		.byte	-69
 1764 0676 AE        		.byte	-82
 1765 0677 BA        		.byte	-70
 1766 0678 CA        		.byte	-54
 1767 0679 C4        		.byte	-60
 1768 067a DA        		.byte	-38
 1769 067b E0        		.byte	-32
 1770 067c E9        		.byte	-23
 1771 067d C5        		.byte	-59
 1772 067e BD        		.byte	-67
 1773 067f D0        		.byte	-48
 1774 0680 CC        		.byte	-52
 1775 0681 D0        		.byte	-48
 1776 0682 DA        		.byte	-38
 1777 0683 D9        		.byte	-39
 1778 0684 AD        		.byte	-83
 1779 0685 B0        		.byte	-80
 1780 0686 B3        		.byte	-77
 1781 0687 C6        		.byte	-58
 1782 0688 B8        		.byte	-72
 1783 0689 B9        		.byte	-71
 1784 068a AD        		.byte	-83
 1785 068b B4        		.byte	-76
 1786 068c AB        		.byte	-85
 1787 068d 97        		.byte	-105
 1788 068e B4        		.byte	-76
 1789 068f C7        		.byte	-57
 1790 0690 D4        		.byte	-44
 1791 0691 D1        		.byte	-47
 1792 0692 D8        		.byte	-40
 1793 0693 D6        		.byte	-42
 1794 0694 C7        		.byte	-57
 1795 0695 AC        		.byte	-84
 1796 0696 B8        		.byte	-72
 1797 0697 BB        		.byte	-69
 1798 0698 C8        		.byte	-56
 1799 0699 C4        		.byte	-60
 1800 069a CE        		.byte	-50
 1801 069b B3        		.byte	-77
 1802 069c BB        		.byte	-69
 1803 069d D1        		.byte	-47
 1804 069e DF        		.byte	-33
 1805 069f DF        		.byte	-33
 1806 06a0 D9        		.byte	-39
 1807 06a1 E7        		.byte	-25
 1808 06a2 E6        		.byte	-26
GAS LISTING /tmp/ccdhZXtX.s 			page 31


 1809 06a3 E0        		.byte	-32
 1810 06a4 D8        		.byte	-40
 1811 06a5 FB        		.byte	-5
 1812 06a6 CD        		.byte	-51
 1813 06a7 D6        		.byte	-42
 1814 06a8 ED        		.byte	-19
 1815 06a9 06        		.byte	6
 1816 06aa 0A        		.byte	10
 1817 06ab 08        		.byte	8
 1818 06ac 08        		.byte	8
 1819 06ad 0A        		.byte	10
 1820 06ae 20        		.byte	32
 1821 06af 1C        		.byte	28
 1822 06b0 29        		.byte	41
 1823 06b1 2E        		.byte	46
 1824 06b2 2F        		.byte	47
 1825 06b3 2F        		.byte	47
 1826 06b4 30        		.byte	48
 1827 06b5 39        		.byte	57
 1828 06b6 39        		.byte	57
 1829 06b7 1B        		.byte	27
 1830 06b8 24        		.byte	36
 1831 06b9 30        		.byte	48
 1832 06ba 14        		.byte	20
 1833 06bb F0        		.byte	-16
 1834 06bc 21        		.byte	33
 1835 06bd 2D        		.byte	45
 1836 06be 33        		.byte	51
 1837 06bf 47        		.byte	71
 1838 06c0 54        		.byte	84
 1839 06c1 51        		.byte	81
 1840 06c2 3C        		.byte	60
 1841 06c3 54        		.byte	84
 1842 06c4 44        		.byte	68
 1843 06c5 4E        		.byte	78
 1844 06c6 54        		.byte	84
 1845 06c7 6F        		.byte	111
 1846 06c8 44        		.byte	68
 1847 06c9 30        		.byte	48
 1848 06ca 3B        		.byte	59
 1849 06cb 40        		.byte	64
 1850 06cc 5E        		.byte	94
 1851 06cd 4B        		.byte	75
 1852 06ce 49        		.byte	73
 1853 06cf 22        		.byte	34
 1854 06d0 32        		.byte	50
 1855 06d1 25        		.byte	37
 1856 06d2 21        		.byte	33
 1857 06d3 40        		.byte	64
 1858 06d4 4E        		.byte	78
 1859 06d5 56        		.byte	86
 1860 06d6 49        		.byte	73
 1861 06d7 51        		.byte	81
 1862 06d8 54        		.byte	84
 1863 06d9 2D        		.byte	45
 1864 06da 24        		.byte	36
 1865 06db 31        		.byte	49
GAS LISTING /tmp/ccdhZXtX.s 			page 32


 1866 06dc 2B        		.byte	43
 1867 06dd 34        		.byte	52
 1868 06de 39        		.byte	57
 1869 06df 2C        		.byte	44
 1870 06e0 14        		.byte	20
 1871 06e1 28        		.byte	40
 1872 06e2 28        		.byte	40
 1873 06e3 35        		.byte	53
 1874 06e4 21        		.byte	33
 1875 06e5 20        		.byte	32
 1876 06e6 21        		.byte	33
 1877 06e7 18        		.byte	24
 1878 06e8 FD        		.byte	-3
 1879 06e9 06        		.byte	6
 1880 06ea 02        		.byte	2
 1881 06eb E9        		.byte	-23
 1882 06ec 05        		.byte	5
 1883 06ed F7        		.byte	-9
 1884 06ee 12        		.byte	18
 1885 06ef 07        		.byte	7
 1886 06f0 03        		.byte	3
 1887 06f1 F2        		.byte	-14
 1888 06f2 FD        		.byte	-3
 1889 06f3 02        		.byte	2
 1890 06f4 08        		.byte	8
 1891 06f5 17        		.byte	23
 1892 06f6 14        		.byte	20
 1893 06f7 0A        		.byte	10
 1894 06f8 E9        		.byte	-23
 1895 06f9 F5        		.byte	-11
 1896 06fa 0B        		.byte	11
 1897 06fb F8        		.byte	-8
 1898 06fc D9        		.byte	-39
 1899 06fd EF        		.byte	-17
 1900 06fe E9        		.byte	-23
 1901 06ff DA        		.byte	-38
 1902 0700 DB        		.byte	-37
 1903 0701 E9        		.byte	-23
 1904 0702 E3        		.byte	-29
 1905 0703 F7        		.byte	-9
 1906 0704 FD        		.byte	-3
 1907 0705 04        		.byte	4
 1908 0706 F6        		.byte	-10
 1909 0707 F0        		.byte	-16
 1910 0708 F7        		.byte	-9
 1911 0709 F5        		.byte	-11
 1912 070a FC        		.byte	-4
 1913 070b 05        		.byte	5
 1914 070c F0        		.byte	-16
 1915 070d B4        		.byte	-76
 1916 070e D0        		.byte	-48
 1917 070f C9        		.byte	-55
 1918 0710 DE        		.byte	-34
 1919 0711 E0        		.byte	-32
 1920 0712 DF        		.byte	-33
 1921 0713 CD        		.byte	-51
 1922 0714 CF        		.byte	-49
GAS LISTING /tmp/ccdhZXtX.s 			page 33


 1923 0715 DA        		.byte	-38
 1924 0716 B3        		.byte	-77
 1925 0717 CE        		.byte	-50
 1926 0718 E4        		.byte	-28
 1927 0719 F7        		.byte	-9
 1928 071a F0        		.byte	-16
 1929 071b F4        		.byte	-12
 1930 071c FC        		.byte	-4
 1931 071d F9        		.byte	-7
 1932 071e D6        		.byte	-42
 1933 071f E3        		.byte	-29
 1934 0720 D9        		.byte	-39
 1935 0721 CA        		.byte	-54
 1936 0722 DB        		.byte	-37
 1937 0723 E7        		.byte	-25
 1938 0724 D9        		.byte	-39
 1939 0725 D0        		.byte	-48
 1940 0726 E8        		.byte	-24
 1941 0727 EA        		.byte	-22
 1942 0728 E7        		.byte	-25
 1943 0729 E1        		.byte	-31
 1944 072a E5        		.byte	-27
 1945 072b E0        		.byte	-32
 1946 072c E2        		.byte	-30
 1947 072d BC        		.byte	-68
 1948 072e D1        		.byte	-47
 1949 072f C1        		.byte	-63
 1950 0730 C8        		.byte	-56
 1951 0731 D3        		.byte	-45
 1952 0732 D8        		.byte	-40
 1953 0733 EB        		.byte	-21
 1954 0734 DC        		.byte	-36
 1955 0735 DA        		.byte	-38
 1956 0736 CB        		.byte	-53
 1957 0737 DE        		.byte	-34
 1958 0738 DB        		.byte	-37
 1959 0739 ED        		.byte	-19
 1960 073a EE        		.byte	-18
 1961 073b F0        		.byte	-16
 1962 073c D8        		.byte	-40
 1963 073d E0        		.byte	-32
 1964 073e E5        		.byte	-27
 1965 073f F1        		.byte	-15
 1966 0740 D8        		.byte	-40
 1967 0741 CC        		.byte	-52
 1968 0742 E1        		.byte	-31
 1969 0743 CD        		.byte	-51
 1970 0744 C3        		.byte	-61
 1971 0745 CA        		.byte	-54
 1972 0746 EB        		.byte	-21
 1973 0747 E3        		.byte	-29
 1974 0748 08        		.byte	8
 1975 0749 FA        		.byte	-6
 1976 074a F4        		.byte	-12
 1977 074b F9        		.byte	-7
 1978 074c 05        		.byte	5
 1979 074d 04        		.byte	4
GAS LISTING /tmp/ccdhZXtX.s 			page 34


 1980 074e 0C        		.byte	12
 1981 074f 11        		.byte	17
 1982 0750 23        		.byte	35
 1983 0751 1A        		.byte	26
 1984 0752 EF        		.byte	-17
 1985 0753 FC        		.byte	-4
 1986 0754 FA        		.byte	-6
 1987 0755 11        		.byte	17
 1988 0756 0D        		.byte	13
 1989 0757 05        		.byte	5
 1990 0758 F4        		.byte	-12
 1991 0759 08        		.byte	8
 1992 075a FE        		.byte	-2
 1993 075b F0        		.byte	-16
 1994 075c 05        		.byte	5
 1995 075d 1D        		.byte	29
 1996 075e 04        		.byte	4
 1997 075f 16        		.byte	22
 1998 0760 1E        		.byte	30
 1999 0761 26        		.byte	38
 2000 0762 1C        		.byte	28
 2001 0763 F6        		.byte	-10
 2002 0764 16        		.byte	22
 2003 0765 FB        		.byte	-5
 2004 0766 19        		.byte	25
 2005 0767 0D        		.byte	13
 2006 0768 1F        		.byte	31
 2007 0769 08        		.byte	8
 2008 076a 11        		.byte	17
 2009 076b 1E        		.byte	30
 2010 076c 1E        		.byte	30
 2011 076d 24        		.byte	36
 2012 076e 1C        		.byte	28
 2013 076f 2E        		.byte	46
 2014 0770 26        		.byte	38
 2015 0771 26        		.byte	38
 2016 0772 F5        		.byte	-11
 2017 0773 08        		.byte	8
 2018 0774 FD        		.byte	-3
 2019 0775 17        		.byte	23
 2020 0776 1B        		.byte	27
 2021 0777 26        		.byte	38
 2022 0778 30        		.byte	48
 2023 0779 16        		.byte	22
 2024 077a 10        		.byte	16
 2025 077b 0D        		.byte	13
 2026 077c 1A        		.byte	26
 2027 077d 28        		.byte	40
 2028 077e 35        		.byte	53
 2029 077f 31        		.byte	49
 2030 0780 2A        		.byte	42
 2031 0781 1E        		.byte	30
 2032 0782 28        		.byte	40
 2033 0783 2A        		.byte	42
 2034 0784 30        		.byte	48
 2035 0785 01        		.byte	1
 2036 0786 0F        		.byte	15
GAS LISTING /tmp/ccdhZXtX.s 			page 35


 2037 0787 10        		.byte	16
 2038 0788 00        		.byte	0
 2039 0789 ED        		.byte	-19
 2040 078a 02        		.byte	2
 2041 078b 0D        		.byte	13
 2042 078c 0B        		.byte	11
 2043 078d 1F        		.byte	31
 2044 078e 0F        		.byte	15
 2045 078f 22        		.byte	34
 2046 0790 06        		.byte	6
 2047 0791 1E        		.byte	30
 2048 0792 1C        		.byte	28
 2049 0793 27        		.byte	39
 2050 0794 23        		.byte	35
 2051 0795 29        		.byte	41
 2052 0796 0E        		.byte	14
 2053 0797 00        		.byte	0
 2054 0798 12        		.byte	18
 2055 0799 13        		.byte	19
 2056 079a 29        		.byte	41
 2057 079b FE        		.byte	-2
 2058 079c FD        		.byte	-3
 2059 079d FB        		.byte	-5
 2060 079e 0B        		.byte	11
 2061 079f 02        		.byte	2
 2062 07a0 FE        		.byte	-2
 2063 07a1 1A        		.byte	26
 2064 07a2 2E        		.byte	46
 2065 07a3 35        		.byte	53
 2066 07a4 37        		.byte	55
 2067 07a5 2B        		.byte	43
 2068 07a6 3D        		.byte	61
 2069 07a7 16        		.byte	22
 2070 07a8 0D        		.byte	13
 2071 07a9 0F        		.byte	15
 2072 07aa 11        		.byte	17
 2073 07ab 20        		.byte	32
 2074 07ac 1B        		.byte	27
 2075 07ad 23        		.byte	35
 2076 07ae 05        		.byte	5
 2077 07af 0B        		.byte	11
 2078 07b0 F2        		.byte	-14
 2079 07b1 17        		.byte	23
 2080 07b2 05        		.byte	5
 2081 07b3 12        		.byte	18
 2082 07b4 0E        		.byte	14
 2083 07b5 1A        		.byte	26
 2084 07b6 04        		.byte	4
 2085 07b7 E7        		.byte	-25
 2086 07b8 04        		.byte	4
 2087 07b9 E7        		.byte	-25
 2088 07ba 10        		.byte	16
 2089 07bb 0D        		.byte	13
 2090 07bc 1C        		.byte	28
 2091 07bd 0B        		.byte	11
 2092 07be 00        		.byte	0
 2093 07bf F4        		.byte	-12
GAS LISTING /tmp/ccdhZXtX.s 			page 36


 2094 07c0 FA        		.byte	-6
 2095 07c1 0C        		.byte	12
 2096 07c2 18        		.byte	24
 2097 07c3 1C        		.byte	28
 2098 07c4 FA        		.byte	-6
 2099 07c5 F4        		.byte	-12
 2100 07c6 04        		.byte	4
 2101 07c7 00        		.byte	0
 2102 07c8 08        		.byte	8
 2103 07c9 FF        		.byte	-1
 2104 07ca DD        		.byte	-35
 2105 07cb DC        		.byte	-36
 2106 07cc D9        		.byte	-39
 2107 07cd CE        		.byte	-50
 2108 07ce B8        		.byte	-72
 2109 07cf DD        		.byte	-35
 2110 07d0 CF        		.byte	-49
 2111 07d1 D6        		.byte	-42
 2112 07d2 DB        		.byte	-37
 2113 07d3 E5        		.byte	-27
 2114 07d4 DC        		.byte	-36
 2115 07d5 DB        		.byte	-37
 2116 07d6 E0        		.byte	-32
 2117 07d7 D5        		.byte	-43
 2118 07d8 EE        		.byte	-18
 2119 07d9 E0        		.byte	-32
 2120 07da EB        		.byte	-21
 2121 07db B8        		.byte	-72
 2122 07dc BA        		.byte	-70
 2123 07dd BC        		.byte	-68
 2124 07de CC        		.byte	-52
 2125 07df C7        		.byte	-57
 2126 07e0 B4        		.byte	-76
 2127 07e1 B7        		.byte	-73
 2128 07e2 AC        		.byte	-84
 2129 07e3 C3        		.byte	-61
 2130 07e4 B9        		.byte	-71
 2131 07e5 B5        		.byte	-75
 2132 07e6 CC        		.byte	-52
 2133 07e7 DC        		.byte	-36
 2134 07e8 E3        		.byte	-29
 2135 07e9 F3        		.byte	-13
 2136 07ea F5        		.byte	-11
 2137 07eb F8        		.byte	-8
 2138 07ec CA        		.byte	-54
 2139 07ed BE        		.byte	-66
 2140 07ee BF        		.byte	-65
 2141 07ef DF        		.byte	-33
 2142 07f0 E0        		.byte	-32
 2143 07f1 E8        		.byte	-24
 2144 07f2 E6        		.byte	-26
 2145 07f3 E0        		.byte	-32
 2146 07f4 EC        		.byte	-20
 2147 07f5 F9        		.byte	-7
 2148 07f6 02        		.byte	2
 2149 07f7 F2        		.byte	-14
 2150 07f8 09        		.byte	9
GAS LISTING /tmp/ccdhZXtX.s 			page 37


 2151 07f9 FC        		.byte	-4
 2152 07fa 09        		.byte	9
 2153 07fb D9        		.byte	-39
 2154 07fc F1        		.byte	-15
 2155 07fd E8        		.byte	-24
 2156 07fe EE        		.byte	-18
 2157 07ff 0A        		.byte	10
 2158 0800 0B        		.byte	11
 2159 0801 FD        		.byte	-3
 2160 0802 E3        		.byte	-29
 2161 0803 F7        		.byte	-9
 2162 0804 E6        		.byte	-26
 2163 0805 FC        		.byte	-4
 2164 0806 0D        		.byte	13
 2165 0807 22        		.byte	34
 2166 0808 19        		.byte	25
 2167 0809 18        		.byte	24
 2168 080a 12        		.byte	18
 2169 080b 1B        		.byte	27
 2170 080c 21        		.byte	33
 2171 080d 33        		.byte	51
 2172 080e 0C        		.byte	12
 2173 080f 00        		.byte	0
 2174 0810 0E        		.byte	14
 2175 0811 0B        		.byte	11
 2176 0812 01        		.byte	1
 2177 0813 FD        		.byte	-3
 2178 0814 24        		.byte	36
 2179 0815 15        		.byte	21
 2180 0816 10        		.byte	16
 2181 0817 24        		.byte	36
 2182 0818 3B        		.byte	59
 2183 0819 21        		.byte	33
 2184 081a 35        		.byte	53
 2185 081b 30        		.byte	48
 2186 081c 37        		.byte	55
 2187 081d 2A        		.byte	42
 2188 081e 39        		.byte	57
 2189 081f 31        		.byte	49
 2190 0820 09        		.byte	9
 2191 0821 27        		.byte	39
 2192 0822 0E        		.byte	14
 2193 0823 26        		.byte	38
 2194 0824 1A        		.byte	26
 2195 0825 12        		.byte	18
 2196 0826 05        		.byte	5
 2197 0827 0C        		.byte	12
 2198 0828 12        		.byte	18
 2199 0829 04        		.byte	4
 2200 082a 0D        		.byte	13
 2201 082b 26        		.byte	38
 2202 082c 29        		.byte	41
 2203 082d 2F        		.byte	47
 2204 082e 2C        		.byte	44
 2205 082f 2E        		.byte	46
 2206 0830 21        		.byte	33
 2207 0831 EC        		.byte	-20
GAS LISTING /tmp/ccdhZXtX.s 			page 38


 2208 0832 FD        		.byte	-3
 2209 0833 F6        		.byte	-10
 2210 0834 11        		.byte	17
 2211 0835 18        		.byte	24
 2212 0836 1E        		.byte	30
 2213 0837 01        		.byte	1
 2214 0838 02        		.byte	2
 2215 0839 0A        		.byte	10
 2216 083a 15        		.byte	21
 2217 083b 23        		.byte	35
 2218 083c 20        		.byte	32
 2219 083d 28        		.byte	40
 2220 083e 12        		.byte	18
 2221 083f 05        		.byte	5
 2222 0840 F7        		.byte	-9
 2223 0841 11        		.byte	17
 2224 0842 FB        		.byte	-5
 2225 0843 1F        		.byte	31
 2226 0844 27        		.byte	39
 2227 0845 2F        		.byte	47
 2228 0846 2E        		.byte	46
 2229 0847 21        		.byte	33
 2230 0848 1B        		.byte	27
 2231 0849 0F        		.byte	15
 2232 084a 1E        		.byte	30
 2233 084b 2E        		.byte	46
 2234 084c 2C        		.byte	44
 2235 084d 2B        		.byte	43
 2236 084e 26        		.byte	38
 2237 084f 22        		.byte	34
 2238 0850 28        		.byte	40
 2239 0851 28        		.byte	40
 2240 0852 2B        		.byte	43
 2241 0853 D6        		.byte	-42
 2242 0854 EB        		.byte	-21
 2243 0855 F6        		.byte	-10
 2244 0856 EB        		.byte	-21
 2245 0857 DE        		.byte	-34
 2246 0858 E7        		.byte	-25
 2247 0859 FC        		.byte	-4
 2248 085a F1        		.byte	-15
 2249 085b 02        		.byte	2
 2250 085c 0B        		.byte	11
 2251 085d 0F        		.byte	15
 2252 085e 08        		.byte	8
 2253 085f 15        		.byte	21
 2254 0860 FF        		.byte	-1
 2255 0861 0B        		.byte	11
 2256 0862 06        		.byte	6
 2257 0863 16        		.byte	22
 2258 0864 F2        		.byte	-14
 2259 0865 E5        		.byte	-27
 2260 0866 F7        		.byte	-9
 2261 0867 CD        		.byte	-51
 2262 0868 D4        		.byte	-44
 2263 0869 D7        		.byte	-41
 2264 086a D0        		.byte	-48
GAS LISTING /tmp/ccdhZXtX.s 			page 39


 2265 086b C4        		.byte	-60
 2266 086c D4        		.byte	-44
 2267 086d D5        		.byte	-43
 2268 086e B6        		.byte	-74
 2269 086f C6        		.byte	-58
 2270 0870 DD        		.byte	-35
 2271 0871 DE        		.byte	-34
 2272 0872 EF        		.byte	-17
 2273 0873 E5        		.byte	-27
 2274 0874 E1        		.byte	-31
 2275 0875 BF        		.byte	-65
 2276 0876 B0        		.byte	-80
 2277 0877 B4        		.byte	-76
 2278 0878 B6        		.byte	-74
 2279 0879 C8        		.byte	-56
 2280 087a C7        		.byte	-57
 2281 087b CA        		.byte	-54
 2282 087c B6        		.byte	-74
 2283 087d B9        		.byte	-71
 2284 087e BF        		.byte	-65
 2285 087f C6        		.byte	-58
 2286 0880 C4        		.byte	-60
 2287 0881 D2        		.byte	-46
 2288 0882 C1        		.byte	-63
 2289 0883 C8        		.byte	-56
 2290 0884 B7        		.byte	-73
 2291 0885 AB        		.byte	-85
 2292 0886 BC        		.byte	-68
 2293 0887 B3        		.byte	-77
 2294 0888 D8        		.byte	-40
 2295 0889 CD        		.byte	-51
 2296 088a DB        		.byte	-37
 2297 088b D8        		.byte	-40
 2298 088c D4        		.byte	-44
 2299 088d D3        		.byte	-45
 2300 088e DB        		.byte	-37
 2301 088f F0        		.byte	-16
 2302 0890 DE        		.byte	-34
 2303 0891 ED        		.byte	-19
 2304 0892 03        		.byte	3
 2305 0893 F9        		.byte	-7
 2306 0894 05        		.byte	5
 2307 0895 0B        		.byte	11
 2308 0896 1D        		.byte	29
 2309 0897 0F        		.byte	15
 2310 0898 EE        		.byte	-18
 2311 0899 05        		.byte	5
 2312 089a 0A        		.byte	10
 2313 089b F7        		.byte	-9
 2314 089c F2        		.byte	-14
 2315 089d 09        		.byte	9
 2316 089e 04        		.byte	4
 2317 089f 17        		.byte	23
 2318 08a0 1E        		.byte	30
 2319 08a1 30        		.byte	48
 2320 08a2 2E        		.byte	46
 2321 08a3 3D        		.byte	61
GAS LISTING /tmp/ccdhZXtX.s 			page 40


 2322 08a4 25        		.byte	37
 2323 08a5 0C        		.byte	12
 2324 08a6 32        		.byte	50
 2325 08a7 2F        		.byte	47
 2326 08a8 3D        		.byte	61
 2327 08a9 17        		.byte	23
 2328 08aa 26        		.byte	38
 2329 08ab 22        		.byte	34
 2330 08ac 1D        		.byte	29
 2331 08ad 2F        		.byte	47
 2332 08ae 24        		.byte	36
 2333 08af 21        		.byte	33
 2334 08b0 23        		.byte	35
 2335 08b1 33        		.byte	51
 2336 08b2 1B        		.byte	27
 2337 08b3 17        		.byte	23
 2338 08b4 31        		.byte	49
 2339 08b5 45        		.byte	69
 2340 08b6 50        		.byte	80
 2341 08b7 55        		.byte	85
 2342 08b8 54        		.byte	84
 2343 08b9 31        		.byte	49
 2344 08ba 16        		.byte	22
 2345 08bb 25        		.byte	37
 2346 08bc 27        		.byte	39
 2347 08bd 33        		.byte	51
 2348 08be 38        		.byte	56
 2349 08bf 42        		.byte	66
 2350 08c0 2B        		.byte	43
 2351 08c1 19        		.byte	25
 2352 08c2 25        		.byte	37
 2353 08c3 33        		.byte	51
 2354 08c4 3B        		.byte	59
 2355 08c5 35        		.byte	53
 2356 08c6 34        		.byte	52
 2357 08c7 31        		.byte	49
 2358 08c8 35        		.byte	53
 2359 08c9 11        		.byte	17
 2360 08ca 16        		.byte	22
 2361 08cb 09        		.byte	9
 2362 08cc 16        		.byte	22
 2363 08cd 2C        		.byte	44
 2364 08ce 20        		.byte	32
 2365 08cf 27        		.byte	39
 2366 08d0 12        		.byte	18
 2367 08d1 0A        		.byte	10
 2368 08d2 FD        		.byte	-3
 2369 08d3 03        		.byte	3
 2370 08d4 06        		.byte	6
 2371 08d5 0A        		.byte	10
 2372 08d6 16        		.byte	22
 2373 08d7 13        		.byte	19
 2374 08d8 0C        		.byte	12
 2375 08d9 12        		.byte	18
 2376 08da 0C        		.byte	12
 2377 08db 0E        		.byte	14
 2378 08dc EF        		.byte	-17
GAS LISTING /tmp/ccdhZXtX.s 			page 41


 2379 08dd DC        		.byte	-36
 2380 08de F5        		.byte	-11
 2381 08df F0        		.byte	-16
 2382 08e0 E5        		.byte	-27
 2383 08e1 D4        		.byte	-44
 2384 08e2 CD        		.byte	-51
 2385 08e3 DD        		.byte	-35
 2386 08e4 F2        		.byte	-14
 2387 08e5 FA        		.byte	-6
 2388 08e6 0A        		.byte	10
 2389 08e7 00        		.byte	0
 2390 08e8 07        		.byte	7
 2391 08e9 00        		.byte	0
 2392 08ea 09        		.byte	9
 2393 08eb 08        		.byte	8
 2394 08ec 10        		.byte	16
 2395 08ed 03        		.byte	3
 2396 08ee E0        		.byte	-32
 2397 08ef EC        		.byte	-20
 2398 08f0 DC        		.byte	-36
 2399 08f1 EB        		.byte	-21
 2400 08f2 E0        		.byte	-32
 2401 08f3 DF        		.byte	-33
 2402 08f4 D4        		.byte	-44
 2403 08f5 E2        		.byte	-30
 2404 08f6 C6        		.byte	-58
 2405 08f7 A6        		.byte	-90
 2406 08f8 C3        		.byte	-61
 2407 08f9 DA        		.byte	-38
 2408 08fa F4        		.byte	-12
 2409 08fb FB        		.byte	-5
 2410 08fc F5        		.byte	-11
 2411 08fd F9        		.byte	-7
 2412 08fe E5        		.byte	-27
 2413 08ff C3        		.byte	-61
 2414 0900 DC        		.byte	-36
 2415 0901 D6        		.byte	-42
 2416 0902 EC        		.byte	-20
 2417 0903 ED        		.byte	-19
 2418 0904 ED        		.byte	-19
 2419 0905 D6        		.byte	-42
 2420 0906 D2        		.byte	-46
 2421 0907 DF        		.byte	-33
 2422 0908 E8        		.byte	-24
 2423 0909 FA        		.byte	-6
 2424 090a E1        		.byte	-31
 2425 090b CA        		.byte	-54
 2426 090c E6        		.byte	-26
 2427 090d E7        		.byte	-25
 2428 090e C9        		.byte	-55
 2429 090f DF        		.byte	-33
 2430 0910 CA        		.byte	-54
 2431 0911 E7        		.byte	-25
 2432 0912 E5        		.byte	-27
 2433 0913 EC        		.byte	-20
 2434 0914 EE        		.byte	-18
 2435 0915 DB        		.byte	-37
GAS LISTING /tmp/ccdhZXtX.s 			page 42


 2436 0916 D6        		.byte	-42
 2437 0917 CB        		.byte	-53
 2438 0918 D9        		.byte	-39
 2439 0919 E4        		.byte	-28
 2440 091a EA        		.byte	-22
 2441 091b EB        		.byte	-21
 2442 091c EC        		.byte	-20
 2443 091d E6        		.byte	-26
 2444 091e EC        		.byte	-20
 2445 091f EF        		.byte	-17
 2446 0920 F1        		.byte	-15
 2447 0921 C6        		.byte	-58
 2448 0922 CD        		.byte	-51
 2449 0923 E0        		.byte	-32
 2450 0924 D9        		.byte	-39
 2451 0925 B4        		.byte	-76
 2452 0926 BE        		.byte	-66
 2453 0927 D6        		.byte	-42
 2454 0928 E3        		.byte	-29
 2455 0929 F0        		.byte	-16
 2456 092a F6        		.byte	-10
 2457 092b 0D        		.byte	13
 2458 092c FA        		.byte	-6
 2459 092d 00        		.byte	0
 2460 092e 03        		.byte	3
 2461 092f 09        		.byte	9
 2462 0930 0E        		.byte	14
 2463 0931 27        		.byte	39
 2464 0932 14        		.byte	20
 2465 0933 EE        		.byte	-18
 2466 0934 EC        		.byte	-20
 2467 0935 FD        		.byte	-3
 2468 0936 0B        		.byte	11
 2469 0937 05        		.byte	5
 2470 0938 0C        		.byte	12
 2471 0939 FD        		.byte	-3
 2472 093a 15        		.byte	21
 2473 093b 14        		.byte	20
 2474 093c 0C        		.byte	12
 2475 093d 20        		.byte	32
 2476 093e 34        		.byte	52
 2477 093f 48        		.byte	72
 2478 0940 48        		.byte	72
 2479 0941 3D        		.byte	61
 2480 0942 4C        		.byte	76
 2481 0943 21        		.byte	33
 2482 0944 0D        		.byte	13
 2483 0945 2A        		.byte	42
 2484 0946 32        		.byte	50
 2485 0947 34        		.byte	52
 2486 0948 0E        		.byte	14
 2487 0949 1E        		.byte	30
 2488 094a 15        		.byte	21
 2489 094b 15        		.byte	21
 2490 094c 26        		.byte	38
 2491 094d 30        		.byte	48
 2492 094e 27        		.byte	39
GAS LISTING /tmp/ccdhZXtX.s 			page 43


 2493 094f 29        		.byte	41
 2494 0950 2E        		.byte	46
 2495 0951 3D        		.byte	61
 2496 0952 26        		.byte	38
 2497 0953 14        		.byte	20
 2498 0954 21        		.byte	33
 2499 0955 13        		.byte	19
 2500 0956 38        		.byte	56
 2501 0957 2C        		.byte	44
 2502 0958 3B        		.byte	59
 2503 0959 31        		.byte	49
 2504 095a 2B        		.byte	43
 2505 095b 26        		.byte	38
 2506 095c 02        		.byte	2
 2507 095d 0B        		.byte	11
 2508 095e 28        		.byte	40
 2509 095f 38        		.byte	56
 2510 0960 3A        		.byte	58
 2511 0961 3C        		.byte	60
 2512 0962 2C        		.byte	44
 2513 0963 21        		.byte	33
 2514 0964 30        		.byte	48
 2515 0965 1B        		.byte	27
 2516 0966 F9        		.byte	-7
 2517 0967 0D        		.byte	13
 2518 0968 12        		.byte	18
 2519 0969 01        		.byte	1
 2520 096a E4        		.byte	-28
 2521 096b FD        		.byte	-3
 2522 096c 01        		.byte	1
 2523 096d 04        		.byte	4
 2524 096e 11        		.byte	17
 2525 096f 1C        		.byte	28
 2526 0970 23        		.byte	35
 2527 0971 0A        		.byte	10
 2528 0972 0B        		.byte	11
 2529 0973 11        		.byte	17
 2530 0974 06        		.byte	6
 2531 0975 0F        		.byte	15
 2532 0976 10        		.byte	16
 2533 0977 D6        		.byte	-42
 2534 0978 E1        		.byte	-31
 2535 0979 E3        		.byte	-29
 2536 097a ED        		.byte	-19
 2537 097b E7        		.byte	-25
 2538 097c DB        		.byte	-37
 2539 097d E1        		.byte	-31
 2540 097e C9        		.byte	-55
 2541 097f E3        		.byte	-29
 2542 0980 CF        		.byte	-49
 2543 0981 C7        		.byte	-57
 2544 0982 E4        		.byte	-28
 2545 0983 04        		.byte	4
 2546 0984 15        		.byte	21
 2547 0985 E3        		.byte	-29
 2548 0986 F0        		.byte	-16
 2549 0987 FE        		.byte	-2
GAS LISTING /tmp/ccdhZXtX.s 			page 44


 2550 0988 CB        		.byte	-53
 2551 0989 DC        		.byte	-36
 2552 098a EC        		.byte	-20
 2553 098b EC        		.byte	-20
 2554 098c F0        		.byte	-16
 2555 098d 01        		.byte	1
 2556 098e 01        		.byte	1
 2557 098f E9        		.byte	-23
 2558 0990 E0        		.byte	-32
 2559 0991 F4        		.byte	-12
 2560 0992 FE        		.byte	-2
 2561 0993 EB        		.byte	-21
 2562 0994 F1        		.byte	-15
 2563 0995 F5        		.byte	-11
 2564 0996 FC        		.byte	-4
 2565 0997 E0        		.byte	-32
 2566 0998 ED        		.byte	-19
 2567 0999 C5        		.byte	-59
 2568 099a BF        		.byte	-65
 2569 099b ED        		.byte	-19
 2570 099c E7        		.byte	-25
 2571 099d F8        		.byte	-8
 2572 099e E6        		.byte	-26
 2573 099f DF        		.byte	-33
 2574 09a0 D0        		.byte	-48
 2575 09a1 DC        		.byte	-36
 2576 09a2 F2        		.byte	-14
 2577 09a3 06        		.byte	6
 2578 09a4 0D        		.byte	13
 2579 09a5 0A        		.byte	10
 2580 09a6 13        		.byte	19
 2581 09a7 FD        		.byte	-3
 2582 09a8 01        		.byte	1
 2583 09a9 0C        		.byte	12
 2584 09aa EA        		.byte	-22
 2585 09ab DC        		.byte	-36
 2586 09ac FA        		.byte	-6
 2587 09ad FA        		.byte	-6
 2588 09ae BE        		.byte	-66
 2589 09af BF        		.byte	-65
 2590 09b0 E1        		.byte	-31
 2591 09b1 F1        		.byte	-15
 2592 09b2 FA        		.byte	-6
 2593 09b3 06        		.byte	6
 2594 09b4 0D        		.byte	13
 2595 09b5 00        		.byte	0
 2596 09b6 FE        		.byte	-2
 2597 09b7 03        		.byte	3
 2598 09b8 0A        		.byte	10
 2599 09b9 F8        		.byte	-8
 2600 09ba 11        		.byte	17
 2601 09bb F8        		.byte	-8
 2602 09bc DB        		.byte	-37
 2603 09bd E7        		.byte	-25
 2604 09be D1        		.byte	-47
 2605 09bf E4        		.byte	-28
 2606 09c0 DF        		.byte	-33
GAS LISTING /tmp/ccdhZXtX.s 			page 45


 2607 09c1 D6        		.byte	-42
 2608 09c2 D8        		.byte	-40
 2609 09c3 CC        		.byte	-52
 2610 09c4 E6        		.byte	-26
 2611 09c5 D0        		.byte	-48
 2612 09c6 D4        		.byte	-44
 2613 09c7 EF        		.byte	-17
 2614 09c8 FB        		.byte	-5
 2615 09c9 FF        		.byte	-1
 2616 09ca F9        		.byte	-7
 2617 09cb 18        		.byte	24
 2618 09cc FA        		.byte	-6
 2619 09cd CE        		.byte	-50
 2620 09ce ED        		.byte	-19
 2621 09cf F7        		.byte	-9
 2622 09d0 F8        		.byte	-8
 2623 09d1 01        		.byte	1
 2624 09d2 FD        		.byte	-3
 2625 09d3 07        		.byte	7
 2626 09d4 F4        		.byte	-12
 2627 09d5 06        		.byte	6
 2628 09d6 14        		.byte	20
 2629 09d7 F5        		.byte	-11
 2630 09d8 04        		.byte	4
 2631 09d9 15        		.byte	21
 2632 09da 2A        		.byte	42
 2633 09db 22        		.byte	34
 2634 09dc 0F        		.byte	15
 2635 09dd 0B        		.byte	11
 2636 09de 04        		.byte	4
 2637 09df 35        		.byte	53
 2638 09e0 40        		.byte	64
 2639 09e1 40        		.byte	64
 2640 09e2 38        		.byte	56
 2641 09e3 2A        		.byte	42
 2642 09e4 1E        		.byte	30
 2643 09e5 17        		.byte	23
 2644 09e6 23        		.byte	35
 2645 09e7 2F        		.byte	47
 2646 09e8 47        		.byte	71
 2647 09e9 4E        		.byte	78
 2648 09ea 51        		.byte	81
 2649 09eb 21        		.byte	33
 2650 09ec 0D        		.byte	13
 2651 09ed 33        		.byte	51
 2652 09ee 2C        		.byte	44
 2653 09ef 05        		.byte	5
 2654 09f0 0B        		.byte	11
 2655 09f1 16        		.byte	22
 2656 09f2 15        		.byte	21
 2657 09f3 F4        		.byte	-12
 2658 09f4 FC        		.byte	-4
 2659 09f5 28        		.byte	40
 2660 09f6 17        		.byte	23
 2661 09f7 28        		.byte	40
 2662 09f8 39        		.byte	57
 2663 09f9 3E        		.byte	62
GAS LISTING /tmp/ccdhZXtX.s 			page 46


 2664 09fa 32        		.byte	50
 2665 09fb 23        		.byte	35
 2666 09fc 3F        		.byte	63
 2667 09fd 37        		.byte	55
 2668 09fe 3F        		.byte	63
 2669 09ff 39        		.byte	57
 2670 0a00 FD        		.byte	-3
 2671 0a01 06        		.byte	6
 2672 0a02 12        		.byte	18
 2673 0a03 15        		.byte	21
 2674 0a04 1F        		.byte	31
 2675 0a05 00        		.byte	0
 2676 0a06 FA        		.byte	-6
 2677 0a07 F6        		.byte	-10
 2678 0a08 FD        		.byte	-3
 2679 0a09 0F        		.byte	15
 2680 0a0a ED        		.byte	-19
 2681 0a0b 00        		.byte	0
 2682 0a0c 19        		.byte	25
 2683 0a0d 28        		.byte	40
 2684 0a0e 2A        		.byte	42
 2685 0a0f 17        		.byte	23
 2686 0a10 25        		.byte	37
 2687 0a11 F5        		.byte	-11
 2688 0a12 E1        		.byte	-31
 2689 0a13 FF        		.byte	-1
 2690 0a14 FC        		.byte	-4
 2691 0a15 F3        		.byte	-13
 2692 0a16 F9        		.byte	-7
 2693 0a17 01        		.byte	1
 2694 0a18 F1        		.byte	-15
 2695 0a19 D8        		.byte	-40
 2696 0a1a D3        		.byte	-45
 2697 0a1b ED        		.byte	-19
 2698 0a1c E1        		.byte	-31
 2699 0a1d E7        		.byte	-25
 2700 0a1e F0        		.byte	-16
 2701 0a1f EC        		.byte	-20
 2702 0a20 E4        		.byte	-28
 2703 0a21 CD        		.byte	-51
 2704 0a22 CA        		.byte	-54
 2705 0a23 C7        		.byte	-57
 2706 0a24 EC        		.byte	-20
 2707 0a25 F4        		.byte	-12
 2708 0a26 F9        		.byte	-7
 2709 0a27 F6        		.byte	-10
 2710 0a28 C8        		.byte	-56
 2711 0a29 B3        		.byte	-77
 2712 0a2a CD        		.byte	-51
 2713 0a2b E4        		.byte	-28
 2714 0a2c F8        		.byte	-8
 2715 0a2d 06        		.byte	6
 2716 0a2e 09        		.byte	9
 2717 0a2f 02        		.byte	2
 2718 0a30 05        		.byte	5
 2719 0a31 02        		.byte	2
 2720 0a32 1A        		.byte	26
GAS LISTING /tmp/ccdhZXtX.s 			page 47


 2721 0a33 F7        		.byte	-9
 2722 0a34 C6        		.byte	-58
 2723 0a35 EA        		.byte	-22
 2724 0a36 E7        		.byte	-25
 2725 0a37 DF        		.byte	-33
 2726 0a38 B0        		.byte	-80
 2727 0a39 D0        		.byte	-48
 2728 0a3a EB        		.byte	-21
 2729 0a3b F0        		.byte	-16
 2730 0a3c F4        		.byte	-12
 2731 0a3d D9        		.byte	-39
 2732 0a3e EB        		.byte	-21
 2733 0a3f E9        		.byte	-23
 2734 0a40 F0        		.byte	-16
 2735 0a41 01        		.byte	1
 2736 0a42 F5        		.byte	-11
 2737 0a43 FA        		.byte	-6
 2738 0a44 0B        		.byte	11
 2739 0a45 E9        		.byte	-23
 2740 0a46 FB        		.byte	-5
 2741 0a47 F7        		.byte	-9
 2742 0a48 ED        		.byte	-19
 2743 0a49 F9        		.byte	-7
 2744 0a4a E5        		.byte	-27
 2745 0a4b E9        		.byte	-23
 2746 0a4c D5        		.byte	-43
 2747 0a4d F1        		.byte	-15
 2748 0a4e F1        		.byte	-15
 2749 0a4f DE        		.byte	-34
 2750 0a50 00        		.byte	0
 2751 0a51 ED        		.byte	-19
 2752 0a52 FE        		.byte	-2
 2753 0a53 0B        		.byte	11
 2754 0a54 1F        		.byte	31
 2755 0a55 1D        		.byte	29
 2756 0a56 E0        		.byte	-32
 2757 0a57 DE        		.byte	-34
 2758 0a58 F5        		.byte	-11
 2759 0a59 05        		.byte	5
 2760 0a5a F4        		.byte	-12
 2761 0a5b 0A        		.byte	10
 2762 0a5c F7        		.byte	-9
 2763 0a5d DD        		.byte	-35
 2764 0a5e EA        		.byte	-22
 2765 0a5f F4        		.byte	-12
 2766 0a60 F8        		.byte	-8
 2767 0a61 D7        		.byte	-41
 2768 0a62 E0        		.byte	-32
 2769 0a63 E4        		.byte	-28
 2770 0a64 F4        		.byte	-12
 2771 0a65 DB        		.byte	-37
 2772 0a66 D2        		.byte	-46
 2773 0a67 D2        		.byte	-46
 2774 0a68 E4        		.byte	-28
 2775 0a69 02        		.byte	2
 2776 0a6a FE        		.byte	-2
 2777 0a6b F4        		.byte	-12
GAS LISTING /tmp/ccdhZXtX.s 			page 48


 2778 0a6c E0        		.byte	-32
 2779 0a6d DC        		.byte	-36
 2780 0a6e D1        		.byte	-47
 2781 0a6f F1        		.byte	-15
 2782 0a70 F5        		.byte	-11
 2783 0a71 02        		.byte	2
 2784 0a72 16        		.byte	22
 2785 0a73 12        		.byte	18
 2786 0a74 0F        		.byte	15
 2787 0a75 0C        		.byte	12
 2788 0a76 12        		.byte	18
 2789 0a77 22        		.byte	34
 2790 0a78 F2        		.byte	-14
 2791 0a79 E7        		.byte	-25
 2792 0a7a E3        		.byte	-29
 2793 0a7b FA        		.byte	-6
 2794 0a7c FA        		.byte	-6
 2795 0a7d E6        		.byte	-26
 2796 0a7e 16        		.byte	22
 2797 0a7f 20        		.byte	32
 2798 0a80 27        		.byte	39
 2799 0a81 24        		.byte	36
 2800 0a82 5B        		.byte	91
 2801 0a83 3E        		.byte	62
 2802 0a84 30        		.byte	48
 2803 0a85 31        		.byte	49
 2804 0a86 3D        		.byte	61
 2805 0a87 42        		.byte	66
 2806 0a88 50        		.byte	80
 2807 0a89 40        		.byte	64
 2808 0a8a 28        		.byte	40
 2809 0a8b 33        		.byte	51
 2810 0a8c 21        		.byte	33
 2811 0a8d 4A        		.byte	74
 2812 0a8e 07        		.byte	7
 2813 0a8f FC        		.byte	-4
 2814 0a90 03        		.byte	3
 2815 0a91 0A        		.byte	10
 2816 0a92 24        		.byte	36
 2817 0a93 12        		.byte	18
 2818 0a94 F8        		.byte	-8
 2819 0a95 24        		.byte	36
 2820 0a96 47        		.byte	71
 2821 0a97 41        		.byte	65
 2822 0a98 49        		.byte	73
 2823 0a99 4E        		.byte	78
 2824 0a9a 2A        		.byte	42
 2825 0a9b 09        		.byte	9
 2826 0a9c 26        		.byte	38
 2827 0a9d 2A        		.byte	42
 2828 0a9e 29        		.byte	41
 2829 0a9f 27        		.byte	39
 2830 0aa0 43        		.byte	67
 2831 0aa1 35        		.byte	53
 2832 0aa2 15        		.byte	21
 2833 0aa3 EF        		.byte	-17
 2834 0aa4 1B        		.byte	27
GAS LISTING /tmp/ccdhZXtX.s 			page 49


 2835 0aa5 1E        		.byte	30
 2836 0aa6 13        		.byte	19
 2837 0aa7 0D        		.byte	13
 2838 0aa8 1B        		.byte	27
 2839 0aa9 19        		.byte	25
 2840 0aaa FF        		.byte	-1
 2841 0aab FE        		.byte	-2
 2842 0aac F0        		.byte	-16
 2843 0aad 1F        		.byte	31
 2844 0aae 17        		.byte	23
 2845 0aaf 30        		.byte	48
 2846 0ab0 0E        		.byte	14
 2847 0ab1 10        		.byte	16
 2848 0ab2 EE        		.byte	-18
 2849 0ab3 E4        		.byte	-28
 2850 0ab4 FE        		.byte	-2
 2851 0ab5 F9        		.byte	-7
 2852 0ab6 1D        		.byte	29
 2853 0ab7 1E        		.byte	30
 2854 0ab8 11        		.byte	17
 2855 0ab9 06        		.byte	6
 2856 0aba FE        		.byte	-2
 2857 0abb 0D        		.byte	13
 2858 0abc F8        		.byte	-8
 2859 0abd BB        		.byte	-69
 2860 0abe C6        		.byte	-58
 2861 0abf DB        		.byte	-37
 2862 0ac0 E8        		.byte	-24
 2863 0ac1 BD        		.byte	-67
 2864 0ac2 C2        		.byte	-62
 2865 0ac3 D5        		.byte	-43
 2866 0ac4 E3        		.byte	-29
 2867 0ac5 DC        		.byte	-36
 2868 0ac6 F2        		.byte	-14
 2869 0ac7 FD        		.byte	-3
 2870 0ac8 EE        		.byte	-18
 2871 0ac9 EB        		.byte	-21
 2872 0aca F9        		.byte	-7
 2873 0acb F1        		.byte	-15
 2874 0acc CF        		.byte	-49
 2875 0acd F2        		.byte	-14
 2876 0ace E5        		.byte	-27
 2877 0acf F0        		.byte	-16
 2878 0ad0 E6        		.byte	-26
 2879 0ad1 EE        		.byte	-18
 2880 0ad2 E1        		.byte	-31
 2881 0ad3 E2        		.byte	-30
 2882 0ad4 E1        		.byte	-31
 2883 0ad5 D7        		.byte	-41
 2884 0ad6 F3        		.byte	-13
 2885 0ad7 E1        		.byte	-31
 2886 0ad8 D2        		.byte	-46
 2887 0ad9 D8        		.byte	-40
 2888 0ada FD        		.byte	-3
 2889 0adb 03        		.byte	3
 2890 0adc 07        		.byte	7
 2891 0add 0A        		.byte	10
GAS LISTING /tmp/ccdhZXtX.s 			page 50


 2892 0ade 25        		.byte	37
 2893 0adf E3        		.byte	-29
 2894 0ae0 A9        		.byte	-87
 2895 0ae1 C7        		.byte	-57
 2896 0ae2 EA        		.byte	-22
 2897 0ae3 E8        		.byte	-24
 2898 0ae4 E8        		.byte	-24
 2899 0ae5 FC        		.byte	-4
 2900 0ae6 DF        		.byte	-33
 2901 0ae7 E4        		.byte	-28
 2902 0ae8 F2        		.byte	-14
 2903 0ae9 05        		.byte	5
 2904 0aea FB        		.byte	-5
 2905 0aeb EF        		.byte	-17
 2906 0aec EB        		.byte	-21
 2907 0aed 0A        		.byte	10
 2908 0aee F6        		.byte	-10
 2909 0aef E5        		.byte	-27
 2910 0af0 CE        		.byte	-50
 2911 0af1 EE        		.byte	-18
 2912 0af2 03        		.byte	3
 2913 0af3 18        		.byte	24
 2914 0af4 FD        		.byte	-3
 2915 0af5 D3        		.byte	-45
 2916 0af6 ED        		.byte	-19
 2917 0af7 D5        		.byte	-43
 2918 0af8 FB        		.byte	-5
 2919 0af9 E9        		.byte	-23
 2920 0afa FF        		.byte	-1
 2921 0afb 0E        		.byte	14
 2922 0afc 1C        		.byte	28
 2923 0afd 14        		.byte	20
 2924 0afe 0A        		.byte	10
 2925 0aff FA        		.byte	-6
 2926 0b00 15        		.byte	21
 2927 0b01 E9        		.byte	-23
 2928 0b02 C5        		.byte	-59
 2929 0b03 D9        		.byte	-39
 2930 0b04 E3        		.byte	-29
 2931 0b05 D5        		.byte	-43
 2932 0b06 AC        		.byte	-84
 2933 0b07 E0        		.byte	-32
 2934 0b08 E3        		.byte	-29
 2935 0b09 E9        		.byte	-23
 2936 0b0a EE        		.byte	-18
 2937 0b0b FF        		.byte	-1
 2938 0b0c 04        		.byte	4
 2939 0b0d F6        		.byte	-10
 2940 0b0e DC        		.byte	-36
 2941 0b0f 05        		.byte	5
 2942 0b10 E8        		.byte	-24
 2943 0b11 0B        		.byte	11
 2944 0b12 00        		.byte	0
 2945 0b13 F6        		.byte	-10
 2946 0b14 F5        		.byte	-11
 2947 0b15 EB        		.byte	-21
 2948 0b16 04        		.byte	4
GAS LISTING /tmp/ccdhZXtX.s 			page 51


 2949 0b17 E8        		.byte	-24
 2950 0b18 F8        		.byte	-8
 2951 0b19 DA        		.byte	-38
 2952 0b1a F1        		.byte	-15
 2953 0b1b FF        		.byte	-1
 2954 0b1c 0D        		.byte	13
 2955 0b1d CC        		.byte	-52
 2956 0b1e F3        		.byte	-13
 2957 0b1f 0A        		.byte	10
 2958 0b20 39        		.byte	57
 2959 0b21 32        		.byte	50
 2960 0b22 37        		.byte	55
 2961 0b23 49        		.byte	73
 2962 0b24 F5        		.byte	-11
 2963 0b25 23        		.byte	35
 2964 0b26 31        		.byte	49
 2965 0b27 3F        		.byte	63
 2966 0b28 27        		.byte	39
 2967 0b29 30        		.byte	48
 2968 0b2a 43        		.byte	67
 2969 0b2b 2A        		.byte	42
 2970 0b2c 1A        		.byte	26
 2971 0b2d 33        		.byte	51
 2972 0b2e 39        		.byte	57
 2973 0b2f 2E        		.byte	46
 2974 0b30 23        		.byte	35
 2975 0b31 2E        		.byte	46
 2976 0b32 11        		.byte	17
 2977 0b33 13        		.byte	19
 2978 0b34 FE        		.byte	-2
 2979 0b35 08        		.byte	8
 2980 0b36 1C        		.byte	28
 2981 0b37 24        		.byte	36
 2982 0b38 3D        		.byte	61
 2983 0b39 2D        		.byte	45
 2984 0b3a 2D        		.byte	45
 2985 0b3b 15        		.byte	21
 2986 0b3c 2C        		.byte	44
 2987 0b3d 1E        		.byte	30
 2988 0b3e 22        		.byte	34
 2989 0b3f 2E        		.byte	46
 2990 0b40 4B        		.byte	75
 2991 0b41 43        		.byte	67
 2992 0b42 42        		.byte	66
 2993 0b43 2E        		.byte	46
 2994 0b44 3F        		.byte	63
 2995 0b45 3E        		.byte	62
 2996 0b46 E7        		.byte	-25
 2997 0b47 DB        		.byte	-37
 2998 0b48 02        		.byte	2
 2999 0b49 14        		.byte	20
 3000 0b4a FC        		.byte	-4
 3001 0b4b E7        		.byte	-25
 3002 0b4c F8        		.byte	-8
 3003 0b4d 18        		.byte	24
 3004 0b4e 11        		.byte	17
 3005 0b4f 1E        		.byte	30
GAS LISTING /tmp/ccdhZXtX.s 			page 52


 3006 0b50 37        		.byte	55
 3007 0b51 27        		.byte	39
 3008 0b52 04        		.byte	4
 3009 0b53 23        		.byte	35
 3010 0b54 19        		.byte	25
 3011 0b55 1A        		.byte	26
 3012 0b56 17        		.byte	23
 3013 0b57 09        		.byte	9
 3014 0b58 05        		.byte	5
 3015 0b59 F2        		.byte	-14
 3016 0b5a 01        		.byte	1
 3017 0b5b FB        		.byte	-5
 3018 0b5c E7        		.byte	-25
 3019 0b5d DB        		.byte	-37
 3020 0b5e D6        		.byte	-42
 3021 0b5f DB        		.byte	-37
 3022 0b60 D7        		.byte	-41
 3023 0b61 CF        		.byte	-49
 3024 0b62 C7        		.byte	-57
 3025 0b63 E3        		.byte	-29
 3026 0b64 F9        		.byte	-7
 3027 0b65 0B        		.byte	11
 3028 0b66 03        		.byte	3
 3029 0b67 FF        		.byte	-1
 3030 0b68 F5        		.byte	-11
 3031 0b69 BF        		.byte	-65
 3032 0b6a E1        		.byte	-31
 3033 0b6b EF        		.byte	-17
 3034 0b6c E6        		.byte	-26
 3035 0b6d E0        		.byte	-32
 3036 0b6e 04        		.byte	4
 3037 0b6f CB        		.byte	-53
 3038 0b70 C7        		.byte	-57
 3039 0b71 DF        		.byte	-33
 3040 0b72 E8        		.byte	-24
 3041 0b73 09        		.byte	9
 3042 0b74 D1        		.byte	-47
 3043 0b75 E9        		.byte	-23
 3044 0b76 EB        		.byte	-21
 3045 0b77 07        		.byte	7
 3046 0b78 ED        		.byte	-19
 3047 0b79 D2        		.byte	-46
 3048 0b7a DF        		.byte	-33
 3049 0b7b EA        		.byte	-22
 3050 0b7c FB        		.byte	-5
 3051 0b7d FF        		.byte	-1
 3052 0b7e F6        		.byte	-10
 3053 0b7f E9        		.byte	-23
 3054 0b80 DB        		.byte	-37
 3055 0b81 DB        		.byte	-37
 3056 0b82 FD        		.byte	-3
 3057 0b83 D7        		.byte	-41
 3058 0b84 DC        		.byte	-36
 3059 0b85 FD        		.byte	-3
 3060 0b86 03        		.byte	3
 3061 0b87 00        		.byte	0
 3062 0b88 F6        		.byte	-10
GAS LISTING /tmp/ccdhZXtX.s 			page 53


 3063 0b89 FF        		.byte	-1
 3064 0b8a F4        		.byte	-12
 3065 0b8b CC        		.byte	-52
 3066 0b8c D1        		.byte	-47
 3067 0b8d F5        		.byte	-11
 3068 0b8e F6        		.byte	-10
 3069 0b8f D0        		.byte	-48
 3070 0b90 CD        		.byte	-51
 3071 0b91 EC        		.byte	-20
 3072 0b92 02        		.byte	2
 3073 0b93 F2        		.byte	-14
 3074 0b94 16        		.byte	22
 3075 0b95 1B        		.byte	27
 3076 0b96 04        		.byte	4
 3077 0b97 EF        		.byte	-17
 3078 0b98 EB        		.byte	-21
 3079 0b99 F8        		.byte	-8
 3080 0b9a 03        		.byte	3
 3081 0b9b 16        		.byte	22
 3082 0b9c F4        		.byte	-12
 3083 0b9d FD        		.byte	-3
 3084 0b9e EE        		.byte	-18
 3085 0b9f 02        		.byte	2
 3086 0ba0 F4        		.byte	-12
 3087 0ba1 F4        		.byte	-12
 3088 0ba2 D9        		.byte	-39
 3089 0ba3 D9        		.byte	-39
 3090 0ba4 DB        		.byte	-37
 3091 0ba5 E5        		.byte	-27
 3092 0ba6 D4        		.byte	-44
 3093 0ba7 C5        		.byte	-59
 3094 0ba8 F3        		.byte	-13
 3095 0ba9 F3        		.byte	-13
 3096 0baa 0E        		.byte	14
 3097 0bab FC        		.byte	-4
 3098 0bac 1D        		.byte	29
 3099 0bad CE        		.byte	-50
 3100 0bae BF        		.byte	-65
 3101 0baf FA        		.byte	-6
 3102 0bb0 EA        		.byte	-22
 3103 0bb1 D9        		.byte	-39
 3104 0bb2 E8        		.byte	-24
 3105 0bb3 FC        		.byte	-4
 3106 0bb4 00        		.byte	0
 3107 0bb5 E3        		.byte	-29
 3108 0bb6 F1        		.byte	-15
 3109 0bb7 14        		.byte	20
 3110 0bb8 F3        		.byte	-13
 3111 0bb9 E4        		.byte	-28
 3112 0bba EE        		.byte	-18
 3113 0bbb 0A        		.byte	10
 3114 0bbc 0A        		.byte	10
 3115 0bbd F4        		.byte	-12
 3116 0bbe DD        		.byte	-35
 3117 0bbf 08        		.byte	8
 3118 0bc0 FE        		.byte	-2
 3119 0bc1 FD        		.byte	-3
GAS LISTING /tmp/ccdhZXtX.s 			page 54


 3120 0bc2 0A        		.byte	10
 3121 0bc3 1E        		.byte	30
 3122 0bc4 13        		.byte	19
 3123 0bc5 0F        		.byte	15
 3124 0bc6 1F        		.byte	31
 3125 0bc7 19        		.byte	25
 3126 0bc8 34        		.byte	52
 3127 0bc9 48        		.byte	72
 3128 0bca 5E        		.byte	94
 3129 0bcb 53        		.byte	83
 3130 0bcc 44        		.byte	68
 3131 0bcd 35        		.byte	53
 3132 0bce 4A        		.byte	74
 3133 0bcf 21        		.byte	33
 3134 0bd0 F6        		.byte	-10
 3135 0bd1 19        		.byte	25
 3136 0bd2 21        		.byte	33
 3137 0bd3 23        		.byte	35
 3138 0bd4 FB        		.byte	-5
 3139 0bd5 E9        		.byte	-23
 3140 0bd6 15        		.byte	21
 3141 0bd7 18        		.byte	24
 3142 0bd8 29        		.byte	41
 3143 0bd9 45        		.byte	69
 3144 0bda 37        		.byte	55
 3145 0bdb 24        		.byte	36
 3146 0bdc 29        		.byte	41
 3147 0bdd 42        		.byte	66
 3148 0bde 38        		.byte	56
 3149 0bdf 4A        		.byte	74
 3150 0be0 40        		.byte	64
 3151 0be1 25        		.byte	37
 3152 0be2 2C        		.byte	44
 3153 0be3 29        		.byte	41
 3154 0be4 25        		.byte	37
 3155 0be5 25        		.byte	37
 3156 0be6 1F        		.byte	31
 3157 0be7 08        		.byte	8
 3158 0be8 1B        		.byte	27
 3159 0be9 FF        		.byte	-1
 3160 0bea FF        		.byte	-1
 3161 0beb F0        		.byte	-16
 3162 0bec 07        		.byte	7
 3163 0bed 35        		.byte	53
 3164 0bee 2E        		.byte	46
 3165 0bef 33        		.byte	51
 3166 0bf0 3D        		.byte	61
 3167 0bf1 30        		.byte	48
 3168 0bf2 EC        		.byte	-20
 3169 0bf3 09        		.byte	9
 3170 0bf4 18        		.byte	24
 3171 0bf5 10        		.byte	16
 3172 0bf6 05        		.byte	5
 3173 0bf7 14        		.byte	20
 3174 0bf8 26        		.byte	38
 3175 0bf9 09        		.byte	9
 3176 0bfa F6        		.byte	-10
GAS LISTING /tmp/ccdhZXtX.s 			page 55


 3177 0bfb 05        		.byte	5
 3178 0bfc 12        		.byte	18
 3179 0bfd F9        		.byte	-7
 3180 0bfe E9        		.byte	-23
 3181 0bff F3        		.byte	-13
 3182 0c00 FA        		.byte	-6
 3183 0c01 FF        		.byte	-1
 3184 0c02 D1        		.byte	-47
 3185 0c03 B3        		.byte	-77
 3186 0c04 DC        		.byte	-36
 3187 0c05 E9        		.byte	-23
 3188 0c06 F2        		.byte	-14
 3189 0c07 EC        		.byte	-20
 3190 0c08 EC        		.byte	-20
 3191 0c09 D5        		.byte	-43
 3192 0c0a D7        		.byte	-41
 3193 0c0b CE        		.byte	-50
 3194 0c0c EA        		.byte	-22
 3195 0c0d F0        		.byte	-16
 3196 0c0e F7        		.byte	-9
 3197 0c0f 0C        		.byte	12
 3198 0c10 FB        		.byte	-5
 3199 0c11 01        		.byte	1
 3200 0c12 E1        		.byte	-31
 3201 0c13 EF        		.byte	-17
 3202 0c14 C7        		.byte	-57
 3203 0c15 D0        		.byte	-48
 3204 0c16 E9        		.byte	-23
 3205 0c17 EA        		.byte	-22
 3206 0c18 E0        		.byte	-32
 3207 0c19 BF        		.byte	-65
 3208 0c1a E6        		.byte	-26
 3209 0c1b FF        		.byte	-1
 3210 0c1c F6        		.byte	-10
 3211 0c1d 03        		.byte	3
 3212 0c1e 0E        		.byte	14
 3213 0c1f F5        		.byte	-11
 3214 0c20 E6        		.byte	-26
 3215 0c21 F7        		.byte	-9
 3216 0c22 00        		.byte	0
 3217 0c23 FB        		.byte	-5
 3218 0c24 05        		.byte	5
 3219 0c25 F9        		.byte	-7
 3220 0c26 E8        		.byte	-24
 3221 0c27 CD        		.byte	-51
 3222 0c28 D6        		.byte	-42
 3223 0c29 DD        		.byte	-35
 3224 0c2a E8        		.byte	-24
 3225 0c2b CB        		.byte	-53
 3226 0c2c CD        		.byte	-51
 3227 0c2d D6        		.byte	-42
 3228 0c2e E3        		.byte	-29
 3229 0c2f F0        		.byte	-16
 3230 0c30 CB        		.byte	-53
 3231 0c31 FD        		.byte	-3
 3232 0c32 09        		.byte	9
 3233 0c33 13        		.byte	19
GAS LISTING /tmp/ccdhZXtX.s 			page 56


 3234 0c34 0B        		.byte	11
 3235 0c35 24        		.byte	36
 3236 0c36 F7        		.byte	-9
 3237 0c37 CC        		.byte	-52
 3238 0c38 FA        		.byte	-6
 3239 0c39 FF        		.byte	-1
 3240 0c3a FF        		.byte	-1
 3241 0c3b D1        		.byte	-47
 3242 0c3c ED        		.byte	-19
 3243 0c3d 05        		.byte	5
 3244 0c3e F6        		.byte	-10
 3245 0c3f F2        		.byte	-14
 3246 0c40 FF        		.byte	-1
 3247 0c41 04        		.byte	4
 3248 0c42 EE        		.byte	-18
 3249 0c43 F4        		.byte	-12
 3250 0c44 FE        		.byte	-2
 3251 0c45 04        		.byte	4
 3252 0c46 F6        		.byte	-10
 3253 0c47 C8        		.byte	-56
 3254 0c48 C8        		.byte	-56
 3255 0c49 F2        		.byte	-14
 3256 0c4a F0        		.byte	-16
 3257 0c4b F3        		.byte	-13
 3258 0c4c F2        		.byte	-14
 3259 0c4d DD        		.byte	-35
 3260 0c4e D8        		.byte	-40
 3261 0c4f E5        		.byte	-27
 3262 0c50 DE        		.byte	-34
 3263 0c51 EC        		.byte	-20
 3264 0c52 F8        		.byte	-8
 3265 0c53 14        		.byte	20
 3266 0c54 0C        		.byte	12
 3267 0c55 F5        		.byte	-11
 3268 0c56 FB        		.byte	-5
 3269 0c57 07        		.byte	7
 3270 0c58 FE        		.byte	-2
 3271 0c59 BF        		.byte	-65
 3272 0c5a E4        		.byte	-28
 3273 0c5b EB        		.byte	-21
 3274 0c5c EF        		.byte	-17
 3275 0c5d D3        		.byte	-45
 3276 0c5e CB        		.byte	-53
 3277 0c5f FF        		.byte	-1
 3278 0c60 0C        		.byte	12
 3279 0c61 0E        		.byte	14
 3280 0c62 24        		.byte	36
 3281 0c63 2E        		.byte	46
 3282 0c64 EE        		.byte	-18
 3283 0c65 F3        		.byte	-13
 3284 0c66 16        		.byte	22
 3285 0c67 2E        		.byte	46
 3286 0c68 35        		.byte	53
 3287 0c69 38        		.byte	56
 3288 0c6a 26        		.byte	38
 3289 0c6b 31        		.byte	49
 3290 0c6c 3C        		.byte	60
GAS LISTING /tmp/ccdhZXtX.s 			page 57


 3291 0c6d 31        		.byte	49
 3292 0c6e 3A        		.byte	58
 3293 0c6f 27        		.byte	39
 3294 0c70 11        		.byte	17
 3295 0c71 12        		.byte	18
 3296 0c72 1D        		.byte	29
 3297 0c73 2E        		.byte	46
 3298 0c74 16        		.byte	22
 3299 0c75 0E        		.byte	14
 3300 0c76 3C        		.byte	60
 3301 0c77 47        		.byte	71
 3302 0c78 31        		.byte	49
 3303 0c79 2D        		.byte	45
 3304 0c7a 42        		.byte	66
 3305 0c7b FF        		.byte	-1
 3306 0c7c 00        		.byte	0
 3307 0c7d 22        		.byte	34
 3308 0c7e 20        		.byte	32
 3309 0c7f 26        		.byte	38
 3310 0c80 24        		.byte	36
 3311 0c81 49        		.byte	73
 3312 0c82 43        		.byte	67
 3313 0c83 2C        		.byte	44
 3314 0c84 29        		.byte	41
 3315 0c85 32        		.byte	50
 3316 0c86 28        		.byte	40
 3317 0c87 1A        		.byte	26
 3318 0c88 20        		.byte	32
 3319 0c89 34        		.byte	52
 3320 0c8a 32        		.byte	50
 3321 0c8b 1E        		.byte	30
 3322 0c8c EE        		.byte	-18
 3323 0c8d E6        		.byte	-26
 3324 0c8e 0D        		.byte	13
 3325 0c8f 1F        		.byte	31
 3326 0c90 2E        		.byte	46
 3327 0c91 20        		.byte	32
 3328 0c92 09        		.byte	9
 3329 0c93 06        		.byte	6
 3330 0c94 11        		.byte	17
 3331 0c95 14        		.byte	20
 3332 0c96 24        		.byte	36
 3333 0c97 22        		.byte	34
 3334 0c98 3B        		.byte	59
 3335 0c99 2D        		.byte	45
 3336 0c9a 22        		.byte	34
 3337 0c9b 20        		.byte	32
 3338 0c9c 22        		.byte	34
 3339 0c9d F9        		.byte	-7
 3340 0c9e C9        		.byte	-55
 3341 0c9f EB        		.byte	-21
 3342 0ca0 EE        		.byte	-18
 3343 0ca1 FF        		.byte	-1
 3344 0ca2 BE        		.byte	-66
 3345 0ca3 CB        		.byte	-53
 3346 0ca4 FB        		.byte	-5
 3347 0ca5 ED        		.byte	-19
GAS LISTING /tmp/ccdhZXtX.s 			page 58


 3348 0ca6 F6        		.byte	-10
 3349 0ca7 FB        		.byte	-5
 3350 0ca8 FA        		.byte	-6
 3351 0ca9 E3        		.byte	-29
 3352 0caa E1        		.byte	-31
 3353 0cab F9        		.byte	-7
 3354 0cac FC        		.byte	-4
 3355 0cad F0        		.byte	-16
 3356 0cae E5        		.byte	-27
 3357 0caf E7        		.byte	-25
 3358 0cb0 E8        		.byte	-24
 3359 0cb1 E1        		.byte	-31
 3360 0cb2 E8        		.byte	-24
 3361 0cb3 EA        		.byte	-22
 3362 0cb4 DA        		.byte	-38
 3363 0cb5 BA        		.byte	-70
 3364 0cb6 AF        		.byte	-81
 3365 0cb7 C1        		.byte	-63
 3366 0cb8 E2        		.byte	-30
 3367 0cb9 BF        		.byte	-65
 3368 0cba E0        		.byte	-32
 3369 0cbb FB        		.byte	-5
 3370 0cbc 02        		.byte	2
 3371 0cbd 1A        		.byte	26
 3372 0cbe 1F        		.byte	31
 3373 0cbf 12        		.byte	18
 3374 0cc0 D0        		.byte	-48
 3375 0cc1 DF        		.byte	-33
 3376 0cc2 E5        		.byte	-27
 3377 0cc3 EA        		.byte	-22
 3378 0cc4 ED        		.byte	-19
 3379 0cc5 ED        		.byte	-19
 3380 0cc6 12        		.byte	18
 3381 0cc7 F6        		.byte	-10
 3382 0cc8 F2        		.byte	-14
 3383 0cc9 F9        		.byte	-7
 3384 0cca D5        		.byte	-43
 3385 0ccb D0        		.byte	-48
 3386 0ccc CC        		.byte	-52
 3387 0ccd E4        		.byte	-28
 3388 0cce F1        		.byte	-15
 3389 0ccf F4        		.byte	-12
 3390 0cd0 CE        		.byte	-50
 3391 0cd1 C6        		.byte	-58
 3392 0cd2 E5        		.byte	-27
 3393 0cd3 F9        		.byte	-7
 3394 0cd4 0F        		.byte	15
 3395 0cd5 0C        		.byte	12
 3396 0cd6 FB        		.byte	-5
 3397 0cd7 DB        		.byte	-37
 3398 0cd8 F7        		.byte	-9
 3399 0cd9 EB        		.byte	-21
 3400 0cda FF        		.byte	-1
 3401 0cdb 04        		.byte	4
 3402 0cdc 13        		.byte	19
 3403 0cdd 36        		.byte	54
 3404 0cde FD        		.byte	-3
GAS LISTING /tmp/ccdhZXtX.s 			page 59


 3405 0cdf ED        		.byte	-19
 3406 0ce0 F4        		.byte	-12
 3407 0ce1 0C        		.byte	12
 3408 0ce2 D7        		.byte	-41
 3409 0ce3 C8        		.byte	-56
 3410 0ce4 E4        		.byte	-28
 3411 0ce5 ED        		.byte	-19
 3412 0ce6 F7        		.byte	-9
 3413 0ce7 BE        		.byte	-66
 3414 0ce8 E3        		.byte	-29
 3415 0ce9 F9        		.byte	-7
 3416 0cea F0        		.byte	-16
 3417 0ceb 05        		.byte	5
 3418 0cec 0A        		.byte	10
 3419 0ced FC        		.byte	-4
 3420 0cee DB        		.byte	-37
 3421 0cef EB        		.byte	-21
 3422 0cf0 F7        		.byte	-9
 3423 0cf1 F1        		.byte	-15
 3424 0cf2 FD        		.byte	-3
 3425 0cf3 F8        		.byte	-8
 3426 0cf4 E1        		.byte	-31
 3427 0cf5 EB        		.byte	-21
 3428 0cf6 E7        		.byte	-25
 3429 0cf7 E8        		.byte	-24
 3430 0cf8 EC        		.byte	-20
 3431 0cf9 C8        		.byte	-56
 3432 0cfa D9        		.byte	-39
 3433 0cfb DA        		.byte	-38
 3434 0cfc EE        		.byte	-18
 3435 0cfd F1        		.byte	-15
 3436 0cfe D1        		.byte	-47
 3437 0cff F5        		.byte	-11
 3438 0d00 02        		.byte	2
 3439 0d01 24        		.byte	36
 3440 0d02 1D        		.byte	29
 3441 0d03 28        		.byte	40
 3442 0d04 0D        		.byte	13
 3443 0d05 E0        		.byte	-32
 3444 0d06 06        		.byte	6
 3445 0d07 F0        		.byte	-16
 3446 0d08 F0        		.byte	-16
 3447 0d09 02        		.byte	2
 3448 0d0a 24        		.byte	36
 3449 0d0b 41        		.byte	65
 3450 0d0c 28        		.byte	40
 3451 0d0d 28        		.byte	40
 3452 0d0e 30        		.byte	48
 3453 0d0f 3B        		.byte	59
 3454 0d10 2F        		.byte	47
 3455 0d11 2A        		.byte	42
 3456 0d12 3F        		.byte	63
 3457 0d13 36        		.byte	54
 3458 0d14 29        		.byte	41
 3459 0d15 0B        		.byte	11
 3460 0d16 14        		.byte	20
 3461 0d17 22        		.byte	34
GAS LISTING /tmp/ccdhZXtX.s 			page 60


 3462 0d18 30        		.byte	48
 3463 0d19 41        		.byte	65
 3464 0d1a 49        		.byte	73
 3465 0d1b 15        		.byte	21
 3466 0d1c F3        		.byte	-13
 3467 0d1d 0D        		.byte	13
 3468 0d1e 17        		.byte	23
 3469 0d1f 2A        		.byte	42
 3470 0d20 22        		.byte	34
 3471 0d21 4E        		.byte	78
 3472 0d22 45        		.byte	69
 3473 0d23 41        		.byte	65
 3474 0d24 42        		.byte	66
 3475 0d25 41        		.byte	65
 3476 0d26 41        		.byte	65
 3477 0d27 F9        		.byte	-7
 3478 0d28 FE        		.byte	-2
 3479 0d29 0E        		.byte	14
 3480 0d2a 23        		.byte	35
 3481 0d2b 0F        		.byte	15
 3482 0d2c F2        		.byte	-14
 3483 0d2d 2C        		.byte	44
 3484 0d2e 2C        		.byte	44
 3485 0d2f 2D        		.byte	45
 3486 0d30 21        		.byte	33
 3487 0d31 0C        		.byte	12
 3488 0d32 1C        		.byte	28
 3489 0d33 14        		.byte	20
 3490 0d34 22        		.byte	34
 3491 0d35 29        		.byte	41
 3492 0d36 25        		.byte	37
 3493 0d37 29        		.byte	41
 3494 0d38 20        		.byte	32
 3495 0d39 18        		.byte	24
 3496 0d3a 16        		.byte	22
 3497 0d3b 0A        		.byte	10
 3498 0d3c 12        		.byte	18
 3499 0d3d 0D        		.byte	13
 3500 0d3e F1        		.byte	-15
 3501 0d3f FA        		.byte	-6
 3502 0d40 E8        		.byte	-24
 3503 0d41 FC        		.byte	-4
 3504 0d42 F1        		.byte	-15
 3505 0d43 DE        		.byte	-34
 3506 0d44 13        		.byte	19
 3507 0d45 03        		.byte	3
 3508 0d46 09        		.byte	9
 3509 0d47 14        		.byte	20
 3510 0d48 12        		.byte	18
 3511 0d49 D9        		.byte	-39
 3512 0d4a BC        		.byte	-68
 3513 0d4b DD        		.byte	-35
 3514 0d4c D5        		.byte	-43
 3515 0d4d EB        		.byte	-21
 3516 0d4e DF        		.byte	-33
 3517 0d4f FE        		.byte	-2
 3518 0d50 F3        		.byte	-13
GAS LISTING /tmp/ccdhZXtX.s 			page 61


 3519 0d51 D0        		.byte	-48
 3520 0d52 E9        		.byte	-23
 3521 0d53 E9        		.byte	-23
 3522 0d54 E8        		.byte	-24
 3523 0d55 D6        		.byte	-42
 3524 0d56 EA        		.byte	-22
 3525 0d57 F8        		.byte	-8
 3526 0d58 EB        		.byte	-21
 3527 0d59 CA        		.byte	-54
 3528 0d5a AC        		.byte	-84
 3529 0d5b C6        		.byte	-58
 3530 0d5c EB        		.byte	-21
 3531 0d5d F5        		.byte	-11
 3532 0d5e FD        		.byte	-3
 3533 0d5f F9        		.byte	-7
 3534 0d60 E2        		.byte	-30
 3535 0d61 F1        		.byte	-15
 3536 0d62 EA        		.byte	-22
 3537 0d63 F5        		.byte	-11
 3538 0d64 FA        		.byte	-6
 3539 0d65 F2        		.byte	-14
 3540 0d66 1D        		.byte	29
 3541 0d67 0F        		.byte	15
 3542 0d68 02        		.byte	2
 3543 0d69 F9        		.byte	-7
 3544 0d6a 00        		.byte	0
 3545 0d6b EC        		.byte	-20
 3546 0d6c B7        		.byte	-73
 3547 0d6d BE        		.byte	-66
 3548 0d6e B1        		.byte	-79
 3549 0d6f D2        		.byte	-46
 3550 0d70 C3        		.byte	-61
 3551 0d71 BB        		.byte	-69
 3552 0d72 EE        		.byte	-18
 3553 0d73 E4        		.byte	-28
 3554 0d74 02        		.byte	2
 3555 0d75 0B        		.byte	11
 3556 0d76 0B        		.byte	11
 3557 0d77 FF        		.byte	-1
 3558 0d78 F9        		.byte	-7
 3559 0d79 07        		.byte	7
 3560 0d7a F6        		.byte	-10
 3561 0d7b 0C        		.byte	12
 3562 0d7c 0E        		.byte	14
 3563 0d7d F8        		.byte	-8
 3564 0d7e FC        		.byte	-4
 3565 0d7f FF        		.byte	-1
 3566 0d80 07        		.byte	7
 3567 0d81 F8        		.byte	-8
 3568 0d82 C1        		.byte	-63
 3569 0d83 C8        		.byte	-56
 3570 0d84 E2        		.byte	-30
 3571 0d85 E1        		.byte	-31
 3572 0d86 FE        		.byte	-2
 3573 0d87 DB        		.byte	-37
 3574 0d88 E9        		.byte	-23
 3575 0d89 0A        		.byte	10
GAS LISTING /tmp/ccdhZXtX.s 			page 62


 3576 0d8a 0E        		.byte	14
 3577 0d8b 1A        		.byte	26
 3578 0d8c 15        		.byte	21
 3579 0d8d 0A        		.byte	10
 3580 0d8e C5        		.byte	-59
 3581 0d8f DC        		.byte	-36
 3582 0d90 E6        		.byte	-26
 3583 0d91 DB        		.byte	-37
 3584 0d92 DF        		.byte	-33
 3585 0d93 E3        		.byte	-29
 3586 0d94 0F        		.byte	15
 3587 0d95 F0        		.byte	-16
 3588 0d96 F0        		.byte	-16
 3589 0d97 E2        		.byte	-30
 3590 0d98 EA        		.byte	-22
 3591 0d99 F2        		.byte	-14
 3592 0d9a D8        		.byte	-40
 3593 0d9b EF        		.byte	-17
 3594 0d9c E7        		.byte	-25
 3595 0d9d F6        		.byte	-10
 3596 0d9e DF        		.byte	-33
 3597 0d9f BD        		.byte	-67
 3598 0da0 E5        		.byte	-27
 3599 0da1 FE        		.byte	-2
 3600 0da2 FA        		.byte	-6
 3601 0da3 09        		.byte	9
 3602 0da4 00        		.byte	0
 3603 0da5 F3        		.byte	-13
 3604 0da6 F8        		.byte	-8
 3605 0da7 F9        		.byte	-7
 3606 0da8 16        		.byte	22
 3607 0da9 1C        		.byte	28
 3608 0daa 1A        		.byte	26
 3609 0dab 16        		.byte	22
 3610 0dac 11        		.byte	17
 3611 0dad 29        		.byte	41
 3612 0dae 2B        		.byte	43
 3613 0daf 3F        		.byte	63
 3614 0db0 02        		.byte	2
 3615 0db1 F5        		.byte	-11
 3616 0db2 20        		.byte	32
 3617 0db3 1E        		.byte	30
 3618 0db4 34        		.byte	52
 3619 0db5 03        		.byte	3
 3620 0db6 1C        		.byte	28
 3621 0db7 2C        		.byte	44
 3622 0db8 32        		.byte	50
 3623 0db9 4E        		.byte	78
 3624 0dba 3E        		.byte	62
 3625 0dbb 42        		.byte	66
 3626 0dbc 2B        		.byte	43
 3627 0dbd 42        		.byte	66
 3628 0dbe 39        		.byte	57
 3629 0dbf 10        		.byte	16
 3630 0dc0 25        		.byte	37
 3631 0dc1 22        		.byte	34
 3632 0dc2 23        		.byte	35
GAS LISTING /tmp/ccdhZXtX.s 			page 63


 3633 0dc3 2B        		.byte	43
 3634 0dc4 21        		.byte	33
 3635 0dc5 2D        		.byte	45
 3636 0dc6 2D        		.byte	45
 3637 0dc7 16        		.byte	22
 3638 0dc8 1E        		.byte	30
 3639 0dc9 17        		.byte	23
 3640 0dca 23        		.byte	35
 3641 0dcb 24        		.byte	36
 3642 0dcc FF        		.byte	-1
 3643 0dcd 2D        		.byte	45
 3644 0dce 34        		.byte	52
 3645 0dcf 42        		.byte	66
 3646 0dd0 44        		.byte	68
 3647 0dd1 5A        		.byte	90
 3648 0dd2 35        		.byte	53
 3649 0dd3 D9        		.byte	-39
 3650 0dd4 F5        		.byte	-11
 3651 0dd5 F7        		.byte	-9
 3652 0dd6 1A        		.byte	26
 3653 0dd7 13        		.byte	19
 3654 0dd8 24        		.byte	36
 3655 0dd9 32        		.byte	50
 3656 0dda 1B        		.byte	27
 3657 0ddb 22        		.byte	34
 3658 0ddc 19        		.byte	25
 3659 0ddd 28        		.byte	40
 3660 0dde 08        		.byte	8
 3661 0ddf 07        		.byte	7
 3662 0de0 19        		.byte	25
 3663 0de1 12        		.byte	18
 3664 0de2 15        		.byte	21
 3665 0de3 DD        		.byte	-35
 3666 0de4 CC        		.byte	-52
 3667 0de5 FD        		.byte	-3
 3668 0de6 01        		.byte	1
 3669 0de7 13        		.byte	19
 3670 0de8 07        		.byte	7
 3671 0de9 E0        		.byte	-32
 3672 0dea EB        		.byte	-21
 3673 0deb E6        		.byte	-26
 3674 0dec E3        		.byte	-29
 3675 0ded EC        		.byte	-20
 3676 0dee E9        		.byte	-23
 3677 0def 0F        		.byte	15
 3678 0df0 09        		.byte	9
 3679 0df1 FD        		.byte	-3
 3680 0df2 F2        		.byte	-14
 3681 0df3 F3        		.byte	-13
 3682 0df4 ED        		.byte	-19
 3683 0df5 A2        		.byte	-94
 3684 0df6 D1        		.byte	-47
 3685 0df7 C4        		.byte	-60
 3686 0df8 D1        		.byte	-47
 3687 0df9 DA        		.byte	-38
 3688 0dfa B6        		.byte	-74
 3689 0dfb DF        		.byte	-33
GAS LISTING /tmp/ccdhZXtX.s 			page 64


 3690 0dfc BB        		.byte	-69
 3691 0dfd C8        		.byte	-56
 3692 0dfe E7        		.byte	-25
 3693 0dff 01        		.byte	1
 3694 0e00 FE        		.byte	-2
 3695 0e01 EA        		.byte	-22
 3696 0e02 F6        		.byte	-10
 3697 0e03 F9        		.byte	-7
 3698 0e04 08        		.byte	8
 3699 0e05 11        		.byte	17
 3700 0e06 F4        		.byte	-12
 3701 0e07 F1        		.byte	-15
 3702 0e08 E6        		.byte	-26
 3703 0e09 DE        		.byte	-34
 3704 0e0a F9        		.byte	-7
 3705 0e0b E0        		.byte	-32
 3706 0e0c D6        		.byte	-42
 3707 0e0d EC        		.byte	-20
 3708 0e0e E6        		.byte	-26
 3709 0e0f FB        		.byte	-5
 3710 0e10 CC        		.byte	-52
 3711 0e11 AF        		.byte	-81
 3712 0e12 CB        		.byte	-53
 3713 0e13 DA        		.byte	-38
 3714 0e14 F7        		.byte	-9
 3715 0e15 FF        		.byte	-1
 3716 0e16 0F        		.byte	15
 3717 0e17 D5        		.byte	-43
 3718 0e18 F2        		.byte	-14
 3719 0e19 FF        		.byte	-1
 3720 0e1a F6        		.byte	-10
 3721 0e1b FC        		.byte	-4
 3722 0e1c F6        		.byte	-10
 3723 0e1d 10        		.byte	16
 3724 0e1e F1        		.byte	-15
 3725 0e1f F3        		.byte	-13
 3726 0e20 EC        		.byte	-20
 3727 0e21 03        		.byte	3
 3728 0e22 06        		.byte	6
 3729 0e23 08        		.byte	8
 3730 0e24 13        		.byte	19
 3731 0e25 DF        		.byte	-33
 3732 0e26 E5        		.byte	-27
 3733 0e27 F5        		.byte	-11
 3734 0e28 BE        		.byte	-66
 3735 0e29 CA        		.byte	-54
 3736 0e2a E5        		.byte	-27
 3737 0e2b EE        		.byte	-18
 3738 0e2c 17        		.byte	23
 3739 0e2d 02        		.byte	2
 3740 0e2e F8        		.byte	-8
 3741 0e2f FD        		.byte	-3
 3742 0e30 F0        		.byte	-16
 3743 0e31 00        		.byte	0
 3744 0e32 F4        		.byte	-12
 3745 0e33 07        		.byte	7
 3746 0e34 0D        		.byte	13
GAS LISTING /tmp/ccdhZXtX.s 			page 65


 3747 0e35 E0        		.byte	-32
 3748 0e36 EC        		.byte	-20
 3749 0e37 E7        		.byte	-25
 3750 0e38 08        		.byte	8
 3751 0e39 D8        		.byte	-40
 3752 0e3a B2        		.byte	-78
 3753 0e3b E3        		.byte	-29
 3754 0e3c D5        		.byte	-43
 3755 0e3d EB        		.byte	-21
 3756 0e3e CB        		.byte	-53
 3757 0e3f BE        		.byte	-66
 3758 0e40 D3        		.byte	-45
 3759 0e41 DD        		.byte	-35
 3760 0e42 F4        		.byte	-12
 3761 0e43 01        		.byte	1
 3762 0e44 09        		.byte	9
 3763 0e45 08        		.byte	8
 3764 0e46 02        		.byte	2
 3765 0e47 12        		.byte	18
 3766 0e48 13        		.byte	19
 3767 0e49 0E        		.byte	14
 3768 0e4a 16        		.byte	22
 3769 0e4b FE        		.byte	-2
 3770 0e4c 11        		.byte	17
 3771 0e4d F1        		.byte	-15
 3772 0e4e DA        		.byte	-38
 3773 0e4f F1        		.byte	-15
 3774 0e50 FE        		.byte	-2
 3775 0e51 20        		.byte	32
 3776 0e52 22        		.byte	34
 3777 0e53 1C        		.byte	28
 3778 0e54 29        		.byte	41
 3779 0e55 21        		.byte	33
 3780 0e56 29        		.byte	41
 3781 0e57 26        		.byte	38
 3782 0e58 3A        		.byte	58
 3783 0e59 42        		.byte	66
 3784 0e5a 4E        		.byte	78
 3785 0e5b 3A        		.byte	58
 3786 0e5c 0E        		.byte	14
 3787 0e5d 31        		.byte	49
 3788 0e5e 22        		.byte	34
 3789 0e5f 3E        		.byte	62
 3790 0e60 33        		.byte	51
 3791 0e61 40        		.byte	64
 3792 0e62 25        		.byte	37
 3793 0e63 FE        		.byte	-2
 3794 0e64 16        		.byte	22
 3795 0e65 1A        		.byte	26
 3796 0e66 2D        		.byte	45
 3797 0e67 2A        		.byte	42
 3798 0e68 2A        		.byte	42
 3799 0e69 3B        		.byte	59
 3800 0e6a 3A        		.byte	58
 3801 0e6b 44        		.byte	68
 3802 0e6c 29        		.byte	41
 3803 0e6d DF        		.byte	-33
GAS LISTING /tmp/ccdhZXtX.s 			page 66


 3804 0e6e 0B        		.byte	11
 3805 0e6f 11        		.byte	17
 3806 0e70 30        		.byte	48
 3807 0e71 3C        		.byte	60
 3808 0e72 18        		.byte	24
 3809 0e73 3B        		.byte	59
 3810 0e74 2D        		.byte	45
 3811 0e75 36        		.byte	54
 3812 0e76 23        		.byte	35
 3813 0e77 FC        		.byte	-4
 3814 0e78 31        		.byte	49
 3815 0e79 2B        		.byte	43
 3816 0e7a 27        		.byte	39
 3817 0e7b 27        		.byte	39
 3818 0e7c 12        		.byte	18
 3819 0e7d 21        		.byte	33
 3820 0e7e F8        		.byte	-8
 3821 0e7f 04        		.byte	4
 3822 0e80 06        		.byte	6
 3823 0e81 01        		.byte	1
 3824 0e82 10        		.byte	16
 3825 0e83 F0        		.byte	-16
 3826 0e84 EC        		.byte	-20
 3827 0e85 FA        		.byte	-6
 3828 0e86 F5        		.byte	-11
 3829 0e87 09        		.byte	9
 3830 0e88 14        		.byte	20
 3831 0e89 15        		.byte	21
 3832 0e8a 18        		.byte	24
 3833 0e8b 07        		.byte	7
 3834 0e8c 00        		.byte	0
 3835 0e8d 05        		.byte	5
 3836 0e8e 0A        		.byte	10
 3837 0e8f EA        		.byte	-22
 3838 0e90 D9        		.byte	-39
 3839 0e91 D3        		.byte	-45
 3840 0e92 DB        		.byte	-37
 3841 0e93 DD        		.byte	-35
 3842 0e94 CD        		.byte	-51
 3843 0e95 D9        		.byte	-39
 3844 0e96 DF        		.byte	-33
 3845 0e97 D2        		.byte	-46
 3846 0e98 D3        		.byte	-45
 3847 0e99 E6        		.byte	-26
 3848 0e9a D7        		.byte	-41
 3849 0e9b C6        		.byte	-58
 3850 0e9c DF        		.byte	-33
 3851 0e9d F9        		.byte	-7
 3852 0e9e 05        		.byte	5
 3853 0e9f EE        		.byte	-18
 3854 0ea0 A9        		.byte	-87
 3855 0ea1 C2        		.byte	-62
 3856 0ea2 E1        		.byte	-31
 3857 0ea3 EA        		.byte	-22
 3858 0ea4 F9        		.byte	-7
 3859 0ea5 DB        		.byte	-37
 3860 0ea6 F7        		.byte	-9
GAS LISTING /tmp/ccdhZXtX.s 			page 67


 3861 0ea7 04        		.byte	4
 3862 0ea8 EF        		.byte	-17
 3863 0ea9 E7        		.byte	-25
 3864 0eaa EC        		.byte	-20
 3865 0eab FA        		.byte	-6
 3866 0eac F7        		.byte	-9
 3867 0ead F1        		.byte	-15
 3868 0eae FC        		.byte	-4
 3869 0eaf F1        		.byte	-15
 3870 0eb0 FE        		.byte	-2
 3871 0eb1 D2        		.byte	-46
 3872 0eb2 B9        		.byte	-71
 3873 0eb3 DE        		.byte	-34
 3874 0eb4 BA        		.byte	-70
 3875 0eb5 E1        		.byte	-31
 3876 0eb6 E6        		.byte	-26
 3877 0eb7 DB        		.byte	-37
 3878 0eb8 FD        		.byte	-3
 3879 0eb9 E8        		.byte	-24
 3880 0eba EE        		.byte	-18
 3881 0ebb 03        		.byte	3
 3882 0ebc 0A        		.byte	10
 3883 0ebd 19        		.byte	25
 3884 0ebe 0A        		.byte	10
 3885 0ebf 06        		.byte	6
 3886 0ec0 02        		.byte	2
 3887 0ec1 FD        		.byte	-3
 3888 0ec2 FB        		.byte	-5
 3889 0ec3 D5        		.byte	-43
 3890 0ec4 E9        		.byte	-23
 3891 0ec5 F4        		.byte	-12
 3892 0ec6 FE        		.byte	-2
 3893 0ec7 FD        		.byte	-3
 3894 0ec8 AE        		.byte	-82
 3895 0ec9 B7        		.byte	-73
 3896 0eca E0        		.byte	-32
 3897 0ecb F0        		.byte	-16
 3898 0ecc 0B        		.byte	11
 3899 0ecd 11        		.byte	17
 3900 0ece 0E        		.byte	14
 3901 0ecf 0D        		.byte	13
 3902 0ed0 16        		.byte	22
 3903 0ed1 0C        		.byte	12
 3904 0ed2 0D        		.byte	13
 3905 0ed3 FA        		.byte	-6
 3906 0ed4 E3        		.byte	-29
 3907 0ed5 E9        		.byte	-23
 3908 0ed6 DE        		.byte	-34
 3909 0ed7 E4        		.byte	-28
 3910 0ed8 D0        		.byte	-48
 3911 0ed9 D2        		.byte	-46
 3912 0eda E6        		.byte	-26
 3913 0edb DC        		.byte	-36
 3914 0edc DF        		.byte	-33
 3915 0edd DE        		.byte	-34
 3916 0ede E7        		.byte	-25
 3917 0edf DC        		.byte	-36
GAS LISTING /tmp/ccdhZXtX.s 			page 68


 3918 0ee0 D3        		.byte	-45
 3919 0ee1 EE        		.byte	-18
 3920 0ee2 FA        		.byte	-6
 3921 0ee3 03        		.byte	3
 3922 0ee4 09        		.byte	9
 3923 0ee5 D9        		.byte	-39
 3924 0ee6 E2        		.byte	-30
 3925 0ee7 F3        		.byte	-13
 3926 0ee8 FA        		.byte	-6
 3927 0ee9 FA        		.byte	-6
 3928 0eea F2        		.byte	-14
 3929 0eeb 15        		.byte	21
 3930 0eec 01        		.byte	1
 3931 0eed F8        		.byte	-8
 3932 0eee 08        		.byte	8
 3933 0eef 16        		.byte	22
 3934 0ef0 1B        		.byte	27
 3935 0ef1 EF        		.byte	-17
 3936 0ef2 FA        		.byte	-6
 3937 0ef3 1F        		.byte	31
 3938 0ef4 2B        		.byte	43
 3939 0ef5 2F        		.byte	47
 3940 0ef6 EA        		.byte	-22
 3941 0ef7 E9        		.byte	-23
 3942 0ef8 1B        		.byte	27
 3943 0ef9 37        		.byte	55
 3944 0efa 3F        		.byte	63
 3945 0efb 2B        		.byte	43
 3946 0efc 39        		.byte	57
 3947 0efd 3A        		.byte	58
 3948 0efe 2C        		.byte	44
 3949 0eff 35        		.byte	53
 3950 0f00 3D        		.byte	61
 3951 0f01 44        		.byte	68
 3952 0f02 55        		.byte	85
 3953 0f03 40        		.byte	64
 3954 0f04 48        		.byte	72
 3955 0f05 25        		.byte	37
 3956 0f06 07        		.byte	7
 3957 0f07 0A        		.byte	10
 3958 0f08 F8        		.byte	-8
 3959 0f09 16        		.byte	22
 3960 0f0a 1D        		.byte	29
 3961 0f0b 25        		.byte	37
 3962 0f0c 15        		.byte	21
 3963 0f0d 0B        		.byte	11
 3964 0f0e 13        		.byte	19
 3965 0f0f 17        		.byte	23
 3966 0f10 33        		.byte	51
 3967 0f11 3C        		.byte	60
 3968 0f12 3F        		.byte	63
 3969 0f13 3B        		.byte	59
 3970 0f14 3D        		.byte	61
 3971 0f15 39        		.byte	57
 3972 0f16 3D        		.byte	61
 3973 0f17 45        		.byte	69
 3974 0f18 34        		.byte	52
GAS LISTING /tmp/ccdhZXtX.s 			page 69


 3975 0f19 16        		.byte	22
 3976 0f1a EE        		.byte	-18
 3977 0f1b 01        		.byte	1
 3978 0f1c 12        		.byte	18
 3979 0f1d 05        		.byte	5
 3980 0f1e 0E        		.byte	14
 3981 0f1f 13        		.byte	19
 3982 0f20 08        		.byte	8
 3983 0f21 14        		.byte	20
 3984 0f22 29        		.byte	41
 3985 0f23 11        		.byte	17
 3986 0f24 00        		.byte	0
 3987 0f25 FC        		.byte	-4
 3988 0f26 1C        		.byte	28
 3989 0f27 20        		.byte	32
 3990 0f28 2C        		.byte	44
 3991 0f29 10        		.byte	16
 3992 0f2a E7        		.byte	-25
 3993 0f2b 01        		.byte	1
 3994 0f2c 04        		.byte	4
 3995 0f2d 08        		.byte	8
 3996 0f2e F3        		.byte	-13
 3997 0f2f F7        		.byte	-9
 3998 0f30 05        		.byte	5
 3999 0f31 F1        		.byte	-15
 4000 0f32 E5        		.byte	-27
 4001 0f33 EE        		.byte	-18
 4002 0f34 E6        		.byte	-26
 4003 0f35 EC        		.byte	-20
 4004 0f36 F1        		.byte	-15
 4005 0f37 E9        		.byte	-23
 4006 0f38 EE        		.byte	-18
 4007 0f39 F6        		.byte	-10
 4008 0f3a DC        		.byte	-36
 4009 0f3b A6        		.byte	-90
 4010 0f3c BD        		.byte	-67
 4011 0f3d E3        		.byte	-29
 4012 0f3e EA        		.byte	-22
 4013 0f3f ED        		.byte	-19
 4014 0f40 EA        		.byte	-22
 4015 0f41 FB        		.byte	-5
 4016 0f42 DF        		.byte	-33
 4017 0f43 C4        		.byte	-60
 4018 0f44 EA        		.byte	-22
 4019 0f45 F9        		.byte	-7
 4020 0f46 08        		.byte	8
 4021 0f47 06        		.byte	6
 4022 0f48 F9        		.byte	-7
 4023 0f49 F1        		.byte	-15
 4024 0f4a FC        		.byte	-4
 4025 0f4b FE        		.byte	-2
 4026 0f4c D1        		.byte	-47
 4027 0f4d DA        		.byte	-38
 4028 0f4e E7        		.byte	-25
 4029 0f4f EE        		.byte	-18
 4030 0f50 EC        		.byte	-20
 4031 0f51 D3        		.byte	-45
GAS LISTING /tmp/ccdhZXtX.s 			page 70


 4032 0f52 C9        		.byte	-55
 4033 0f53 D2        		.byte	-46
 4034 0f54 E6        		.byte	-26
 4035 0f55 FE        		.byte	-2
 4036 0f56 08        		.byte	8
 4037 0f57 DD        		.byte	-35
 4038 0f58 DC        		.byte	-36
 4039 0f59 F5        		.byte	-11
 4040 0f5a F8        		.byte	-8
 4041 0f5b FE        		.byte	-2
 4042 0f5c FE        		.byte	-2
 4043 0f5d E9        		.byte	-23
 4044 0f5e E8        		.byte	-24
 4045 0f5f F4        		.byte	-12
 4046 0f60 EC        		.byte	-20
 4047 0f61 F1        		.byte	-15
 4048 0f62 E9        		.byte	-23
 4049 0f63 EB        		.byte	-21
 4050 0f64 EE        		.byte	-18
 4051 0f65 EC        		.byte	-20
 4052 0f66 FF        		.byte	-1
 4053 0f67 01        		.byte	1
 4054 0f68 F5        		.byte	-11
 4055 0f69 EA        		.byte	-22
 4056 0f6a FD        		.byte	-3
 4057 0f6b ED        		.byte	-19
 4058 0f6c E6        		.byte	-26
 4059 0f6d 11        		.byte	17
 4060 0f6e E9        		.byte	-23
 4061 0f6f E1        		.byte	-31
 4062 0f70 F9        		.byte	-7
 4063 0f71 FF        		.byte	-1
 4064 0f72 FC        		.byte	-4
 4065 0f73 01        		.byte	1
 4066 0f74 06        		.byte	6
 4067 0f75 FE        		.byte	-2
 4068 0f76 EF        		.byte	-17
 4069 0f77 EA        		.byte	-22
 4070 0f78 F1        		.byte	-15
 4071 0f79 F0        		.byte	-16
 4072 0f7a F7        		.byte	-9
 4073 0f7b E8        		.byte	-24
 4074 0f7c F3        		.byte	-13
 4075 0f7d ED        		.byte	-19
 4076 0f7e FF        		.byte	-1
 4077 0f7f CB        		.byte	-53
 4078 0f80 AE        		.byte	-82
 4079 0f81 D0        		.byte	-48
 4080 0f82 E5        		.byte	-27
 4081 0f83 F7        		.byte	-9
 4082 0f84 EA        		.byte	-22
 4083 0f85 EF        		.byte	-17
 4084 0f86 EB        		.byte	-21
 4085 0f87 EE        		.byte	-18
 4086 0f88 F6        		.byte	-10
 4087 0f89 FB        		.byte	-5
 4088 0f8a 0A        		.byte	10
GAS LISTING /tmp/ccdhZXtX.s 			page 71


 4089 0f8b 16        		.byte	22
 4090 0f8c 07        		.byte	7
 4091 0f8d 05        		.byte	5
 4092 0f8e 01        		.byte	1
 4093 0f8f 09        		.byte	9
 4094 0f90 FB        		.byte	-5
 4095 0f91 E1        		.byte	-31
 4096 0f92 FB        		.byte	-5
 4097 0f93 0E        		.byte	14
 4098 0f94 EE        		.byte	-18
 4099 0f95 E8        		.byte	-24
 4100 0f96 ED        		.byte	-19
 4101 0f97 F0        		.byte	-16
 4102 0f98 05        		.byte	5
 4103 0f99 1E        		.byte	30
 4104 0f9a 37        		.byte	55
 4105 0f9b 30        		.byte	48
 4106 0f9c 45        		.byte	69
 4107 0f9d 40        		.byte	64
 4108 0f9e 49        		.byte	73
 4109 0f9f 46        		.byte	70
 4110 0fa0 44        		.byte	68
 4111 0fa1 43        		.byte	67
 4112 0fa2 16        		.byte	22
 4113 0fa3 28        		.byte	40
 4114 0fa4 28        		.byte	40
 4115 0fa5 2A        		.byte	42
 4116 0fa6 20        		.byte	32
 4117 0fa7 2B        		.byte	43
 4118 0fa8 19        		.byte	25
 4119 0fa9 F7        		.byte	-9
 4120 0faa 0D        		.byte	13
 4121 0fab 20        		.byte	32
 4122 0fac 28        		.byte	40
 4123 0fad 16        		.byte	22
 4124 0fae 0F        		.byte	15
 4125 0faf 25        		.byte	37
 4126 0fb0 3E        		.byte	62
 4127 0fb1 3B        		.byte	59
 4128 0fb2 3A        		.byte	58
 4129 0fb3 1D        		.byte	29
 4130 0fb4 1A        		.byte	26
 4131 0fb5 28        		.byte	40
 4132 0fb6 2C        		.byte	44
 4133 0fb7 2C        		.byte	44
 4134 0fb8 31        		.byte	49
 4135 0fb9 37        		.byte	55
 4136 0fba 27        		.byte	39
 4137 0fbb 29        		.byte	41
 4138 0fbc 2B        		.byte	43
 4139 0fbd FD        		.byte	-3
 4140 0fbe 09        		.byte	9
 4141 0fbf 1C        		.byte	28
 4142 0fc0 22        		.byte	34
 4143 0fc1 24        		.byte	36
 4144 0fc2 22        		.byte	34
 4145 0fc3 24        		.byte	36
GAS LISTING /tmp/ccdhZXtX.s 			page 72


 4146 0fc4 DD        		.byte	-35
 4147 0fc5 DD        		.byte	-35
 4148 0fc6 F7        		.byte	-9
 4149 0fc7 1D        		.byte	29
 4150 0fc8 1B        		.byte	27
 4151 0fc9 17        		.byte	23
 4152 0fca 10        		.byte	16
 4153 0fcb 0E        		.byte	14
 4154 0fcc 0F        		.byte	15
 4155 0fcd 14        		.byte	20
 4156 0fce 12        		.byte	18
 4157 0fcf 0E        		.byte	14
 4158 0fd0 21        		.byte	33
 4159 0fd1 0B        		.byte	11
 4160 0fd2 0E        		.byte	14
 4161 0fd3 F1        		.byte	-15
 4162 0fd4 F6        		.byte	-10
 4163 0fd5 D6        		.byte	-42
 4164 0fd6 C6        		.byte	-58
 4165 0fd7 DD        		.byte	-35
 4166 0fd8 E0        		.byte	-32
 4167 0fd9 E5        		.byte	-27
 4168 0fda CA        		.byte	-54
 4169 0fdb C5        		.byte	-59
 4170 0fdc BF        		.byte	-65
 4171 0fdd CE        		.byte	-50
 4172 0fde EC        		.byte	-20
 4173 0fdf EC        		.byte	-20
 4174 0fe0 F9        		.byte	-7
 4175 0fe1 F6        		.byte	-10
 4176 0fe2 FE        		.byte	-2
 4177 0fe3 FD        		.byte	-3
 4178 0fe4 00        		.byte	0
 4179 0fe5 FB        		.byte	-5
 4180 0fe6 BA        		.byte	-70
 4181 0fe7 C7        		.byte	-57
 4182 0fe8 D8        		.byte	-40
 4183 0fe9 E5        		.byte	-27
 4184 0fea E6        		.byte	-26
 4185 0feb DB        		.byte	-37
 4186 0fec E7        		.byte	-25
 4187 0fed DC        		.byte	-36
 4188 0fee EA        		.byte	-22
 4189 0fef EF        		.byte	-17
 4190 0ff0 08        		.byte	8
 4191 0ff1 F0        		.byte	-16
 4192 0ff2 DB        		.byte	-37
 4193 0ff3 D9        		.byte	-39
 4194 0ff4 F1        		.byte	-15
 4195 0ff5 02        		.byte	2
 4196 0ff6 05        		.byte	5
 4197 0ff7 FA        		.byte	-6
 4198 0ff8 CC        		.byte	-52
 4199 0ff9 F1        		.byte	-15
 4200 0ffa D5        		.byte	-43
 4201 0ffb D7        		.byte	-41
 4202 0ffc D8        		.byte	-40
GAS LISTING /tmp/ccdhZXtX.s 			page 73


 4203 0ffd E7        		.byte	-25
 4204 0ffe F4        		.byte	-12
 4205 0fff E3        		.byte	-29
 4206 1000 F1        		.byte	-15
 4207 1001 F2        		.byte	-14
 4208 1002 F1        		.byte	-15
 4209 1003 F3        		.byte	-13
 4210 1004 0A        		.byte	10
 4211 1005 06        		.byte	6
 4212 1006 FC        		.byte	-4
 4213 1007 01        		.byte	1
 4214 1008 EF        		.byte	-17
 4215 1009 BC        		.byte	-68
 4216 100a C9        		.byte	-55
 4217 100b F5        		.byte	-11
 4218 100c 03        		.byte	3
 4219 100d 0A        		.byte	10
 4220 100e F5        		.byte	-11
 4221 100f D6        		.byte	-42
 4222 1010 EA        		.byte	-22
 4223 1011 F3        		.byte	-13
 4224 1012 07        		.byte	7
 4225 1013 05        		.byte	5
 4226 1014 17        		.byte	23
 4227 1015 20        		.byte	32
 4228 1016 17        		.byte	23
 4229 1017 03        		.byte	3
 4230 1018 FC        		.byte	-4
 4231 1019 FF        		.byte	-1
 4232 101a D0        		.byte	-48
 4233 101b D5        		.byte	-43
 4234 101c DA        		.byte	-38
 4235 101d EC        		.byte	-20
 4236 101e DD        		.byte	-35
 4237 101f D1        		.byte	-47
 4238 1020 B9        		.byte	-71
 4239 1021 BD        		.byte	-67
 4240 1022 E5        		.byte	-27
 4241 1023 F2        		.byte	-14
 4242 1024 FD        		.byte	-3
 4243 1025 F4        		.byte	-12
 4244 1026 FF        		.byte	-1
 4245 1027 09        		.byte	9
 4246 1028 02        		.byte	2
 4247 1029 FE        		.byte	-2
 4248 102a 03        		.byte	3
 4249 102b E0        		.byte	-32
 4250 102c DF        		.byte	-33
 4251 102d FC        		.byte	-4
 4252 102e F4        		.byte	-12
 4253 102f F1        		.byte	-15
 4254 1030 EA        		.byte	-22
 4255 1031 EF        		.byte	-17
 4256 1032 F5        		.byte	-11
 4257 1033 F9        		.byte	-7
 4258 1034 0A        		.byte	10
 4259 1035 0D        		.byte	13
GAS LISTING /tmp/ccdhZXtX.s 			page 74


 4260 1036 0F        		.byte	15
 4261 1037 E1        		.byte	-31
 4262 1038 E3        		.byte	-29
 4263 1039 1F        		.byte	31
 4264 103a 25        		.byte	37
 4265 103b 3E        		.byte	62
 4266 103c 1A        		.byte	26
 4267 103d 0F        		.byte	15
 4268 103e 24        		.byte	36
 4269 103f 27        		.byte	39
 4270 1040 35        		.byte	53
 4271 1041 36        		.byte	54
 4272 1042 3F        		.byte	63
 4273 1043 30        		.byte	48
 4274 1044 30        		.byte	48
 4275 1045 28        		.byte	40
 4276 1046 37        		.byte	55
 4277 1047 31        		.byte	49
 4278 1048 38        		.byte	56
 4279 1049 39        		.byte	57
 4280 104a 3D        		.byte	61
 4281 104b 36        		.byte	54
 4282 104c 16        		.byte	22
 4283 104d F9        		.byte	-7
 4284 104e D0        		.byte	-48
 4285 104f FC        		.byte	-4
 4286 1050 26        		.byte	38
 4287 1051 2B        		.byte	43
 4288 1052 37        		.byte	55
 4289 1053 2F        		.byte	47
 4290 1054 1C        		.byte	28
 4291 1055 29        		.byte	41
 4292 1056 40        		.byte	64
 4293 1057 3B        		.byte	59
 4294 1058 35        		.byte	53
 4295 1059 37        		.byte	55
 4296 105a 3F        		.byte	63
 4297 105b 47        		.byte	71
 4298 105c 2E        		.byte	46
 4299 105d 29        		.byte	41
 4300 105e 17        		.byte	23
 4301 105f 08        		.byte	8
 4302 1060 F5        		.byte	-11
 4303 1061 03        		.byte	3
 4304 1062 13        		.byte	19
 4305 1063 0C        		.byte	12
 4306 1064 00        		.byte	0
 4307 1065 E7        		.byte	-25
 4308 1066 03        		.byte	3
 4309 1067 1A        		.byte	26
 4310 1068 22        		.byte	34
 4311 1069 1E        		.byte	30
 4312 106a 25        		.byte	37
 4313 106b 2A        		.byte	42
 4314 106c 2F        		.byte	47
 4315 106d 1D        		.byte	29
 4316 106e 1B        		.byte	27
GAS LISTING /tmp/ccdhZXtX.s 			page 75


 4317 106f 1A        		.byte	26
 4318 1070 F8        		.byte	-8
 4319 1071 F5        		.byte	-11
 4320 1072 FB        		.byte	-5
 4321 1073 F4        		.byte	-12
 4322 1074 F6        		.byte	-10
 4323 1075 F1        		.byte	-15
 4324 1076 E9        		.byte	-23
 4325 1077 DF        		.byte	-33
 4326 1078 E9        		.byte	-23
 4327 1079 F2        		.byte	-14
 4328 107a F1        		.byte	-15
 4329 107b DD        		.byte	-35
 4330 107c C4        		.byte	-60
 4331 107d DB        		.byte	-37
 4332 107e F2        		.byte	-14
 4333 107f 04        		.byte	4
 4334 1080 F6        		.byte	-10
 4335 1081 D0        		.byte	-48
 4336 1082 C7        		.byte	-57
 4337 1083 E7        		.byte	-25
 4338 1084 E7        		.byte	-25
 4339 1085 E4        		.byte	-28
 4340 1086 E7        		.byte	-25
 4341 1087 E6        		.byte	-26
 4342 1088 EF        		.byte	-17
 4343 1089 CB        		.byte	-53
 4344 108a D2        		.byte	-46
 4345 108b EC        		.byte	-20
 4346 108c E5        		.byte	-27
 4347 108d F4        		.byte	-12
 4348 108e FA        		.byte	-6
 4349 108f F8        		.byte	-8
 4350 1090 F4        		.byte	-12
 4351 1091 F1        		.byte	-15
 4352 1092 C5        		.byte	-59
 4353 1093 B7        		.byte	-73
 4354 1094 E2        		.byte	-30
 4355 1095 EE        		.byte	-18
 4356 1096 F7        		.byte	-9
 4357 1097 F8        		.byte	-8
 4358 1098 F3        		.byte	-13
 4359 1099 EC        		.byte	-20
 4360 109a F8        		.byte	-8
 4361 109b F6        		.byte	-10
 4362 109c 04        		.byte	4
 4363 109d F6        		.byte	-10
 4364 109e DF        		.byte	-33
 4365 109f FD        		.byte	-3
 4366 10a0 F1        		.byte	-15
 4367 10a1 F1        		.byte	-15
 4368 10a2 F8        		.byte	-8
 4369 10a3 DB        		.byte	-37
 4370 10a4 D3        		.byte	-45
 4371 10a5 D8        		.byte	-40
 4372 10a6 E1        		.byte	-31
 4373 10a7 F3        		.byte	-13
GAS LISTING /tmp/ccdhZXtX.s 			page 76


 4374 10a8 F7        		.byte	-9
 4375 10a9 D3        		.byte	-45
 4376 10aa CC        		.byte	-52
 4377 10ab E3        		.byte	-29
 4378 10ac 05        		.byte	5
 4379 10ad 13        		.byte	19
 4380 10ae 0F        		.byte	15
 4381 10af 0E        		.byte	14
 4382 10b0 17        		.byte	23
 4383 10b1 17        		.byte	23
 4384 10b2 EE        		.byte	-18
 4385 10b3 F9        		.byte	-7
 4386 10b4 EE        		.byte	-18
 4387 10b5 E3        		.byte	-29
 4388 10b6 F1        		.byte	-15
 4389 10b7 F8        		.byte	-8
 4390 10b8 FA        		.byte	-6
 4391 10b9 F4        		.byte	-12
 4392 10ba EB        		.byte	-21
 4393 10bb E8        		.byte	-24
 4394 10bc F2        		.byte	-14
 4395 10bd F2        		.byte	-14
 4396 10be F6        		.byte	-10
 4397 10bf E8        		.byte	-24
 4398 10c0 D6        		.byte	-42
 4399 10c1 DD        		.byte	-35
 4400 10c2 ED        		.byte	-19
 4401 10c3 ED        		.byte	-19
 4402 10c4 FC        		.byte	-4
 4403 10c5 E8        		.byte	-24
 4404 10c6 D3        		.byte	-45
 4405 10c7 E3        		.byte	-29
 4406 10c8 E3        		.byte	-29
 4407 10c9 E9        		.byte	-23
 4408 10ca EA        		.byte	-22
 4409 10cb F9        		.byte	-7
 4410 10cc F4        		.byte	-12
 4411 10cd EE        		.byte	-18
 4412 10ce EA        		.byte	-22
 4413 10cf EE        		.byte	-18
 4414 10d0 FE        		.byte	-2
 4415 10d1 F6        		.byte	-10
 4416 10d2 FF        		.byte	-1
 4417 10d3 04        		.byte	4
 4418 10d4 FB        		.byte	-5
 4419 10d5 10        		.byte	16
 4420 10d6 FC        		.byte	-4
 4421 10d7 BE        		.byte	-66
 4422 10d8 CC        		.byte	-52
 4423 10d9 FC        		.byte	-4
 4424 10da 0E        		.byte	14
 4425 10db F9        		.byte	-7
 4426 10dc 09        		.byte	9
 4427 10dd 14        		.byte	20
 4428 10de 1A        		.byte	26
 4429 10df 29        		.byte	41
 4430 10e0 33        		.byte	51
GAS LISTING /tmp/ccdhZXtX.s 			page 77


 4431 10e1 35        		.byte	53
 4432 10e2 36        		.byte	54
 4433 10e3 4F        		.byte	79
 4434 10e4 50        		.byte	80
 4435 10e5 43        		.byte	67
 4436 10e6 33        		.byte	51
 4437 10e7 34        		.byte	52
 4438 10e8 0A        		.byte	10
 4439 10e9 0E        		.byte	14
 4440 10ea 26        		.byte	38
 4441 10eb 26        		.byte	38
 4442 10ec 23        		.byte	35
 4443 10ed 1D        		.byte	29
 4444 10ee 10        		.byte	16
 4445 10ef EB        		.byte	-21
 4446 10f0 03        		.byte	3
 4447 10f1 2A        		.byte	42
 4448 10f2 35        		.byte	53
 4449 10f3 35        		.byte	53
 4450 10f4 41        		.byte	65
 4451 10f5 4C        		.byte	76
 4452 10f6 3C        		.byte	60
 4453 10f7 39        		.byte	57
 4454 10f8 3A        		.byte	58
 4455 10f9 24        		.byte	36
 4456 10fa 21        		.byte	33
 4457 10fb 28        		.byte	40
 4458 10fc 29        		.byte	41
 4459 10fd 1E        		.byte	30
 4460 10fe 29        		.byte	41
 4461 10ff 20        		.byte	32
 4462 1100 1A        		.byte	26
 4463 1101 1F        		.byte	31
 4464 1102 29        		.byte	41
 4465 1103 2B        		.byte	43
 4466 1104 F8        		.byte	-8
 4467 1105 F4        		.byte	-12
 4468 1106 0B        		.byte	11
 4469 1107 23        		.byte	35
 4470 1108 2D        		.byte	45
 4471 1109 3A        		.byte	58
 4472 110a 0F        		.byte	15
 4473 110b FB        		.byte	-5
 4474 110c 09        		.byte	9
 4475 110d 17        		.byte	23
 4476 110e 1A        		.byte	26
 4477 110f 16        		.byte	22
 4478 1110 1B        		.byte	27
 4479 1111 11        		.byte	17
 4480 1112 14        		.byte	20
 4481 1113 02        		.byte	2
 4482 1114 0A        		.byte	10
 4483 1115 FB        		.byte	-5
 4484 1116 02        		.byte	2
 4485 1117 12        		.byte	18
 4486 1118 15        		.byte	21
 4487 1119 FA        		.byte	-6
GAS LISTING /tmp/ccdhZXtX.s 			page 78


 4488 111a FD        		.byte	-3
 4489 111b DE        		.byte	-34
 4490 111c AC        		.byte	-84
 4491 111d D2        		.byte	-46
 4492 111e E4        		.byte	-28
 4493 111f E8        		.byte	-24
 4494 1120 E4        		.byte	-28
 4495 1121 E9        		.byte	-23
 4496 1122 EC        		.byte	-20
 4497 1123 E7        		.byte	-25
 4498 1124 E5        		.byte	-27
 4499 1125 F8        		.byte	-8
 4500 1126 EF        		.byte	-17
 4501 1127 FD        		.byte	-3
 4502 1128 0A        		.byte	10
 4503 1129 FE        		.byte	-2
 4504 112a EB        		.byte	-21
 4505 112b F5        		.byte	-11
 4506 112c D8        		.byte	-40
 4507 112d B0        		.byte	-80
 4508 112e D0        		.byte	-48
 4509 112f CD        		.byte	-51
 4510 1130 E2        		.byte	-30
 4511 1131 EC        		.byte	-20
 4512 1132 EA        		.byte	-22
 4513 1133 B7        		.byte	-73
 4514 1134 C3        		.byte	-61
 4515 1135 E4        		.byte	-28
 4516 1136 0E        		.byte	14
 4517 1137 12        		.byte	18
 4518 1138 FF        		.byte	-1
 4519 1139 19        		.byte	25
 4520 113a 06        		.byte	6
 4521 113b 0F        		.byte	15
 4522 113c F9        		.byte	-7
 4523 113d 02        		.byte	2
 4524 113e C8        		.byte	-56
 4525 113f E0        		.byte	-32
 4526 1140 EC        		.byte	-20
 4527 1141 D7        		.byte	-41
 4528 1142 D9        		.byte	-39
 4529 1143 C1        		.byte	-63
 4530 1144 E4        		.byte	-28
 4531 1145 FA        		.byte	-6
 4532 1146 0E        		.byte	14
 4533 1147 D4        		.byte	-44
 4534 1148 D7        		.byte	-41
 4535 1149 F0        		.byte	-16
 4536 114a FF        		.byte	-1
 4537 114b 0F        		.byte	15
 4538 114c F1        		.byte	-15
 4539 114d E7        		.byte	-25
 4540 114e E2        		.byte	-30
 4541 114f DF        		.byte	-33
 4542 1150 0A        		.byte	10
 4543 1151 04        		.byte	4
 4544 1152 15        		.byte	21
GAS LISTING /tmp/ccdhZXtX.s 			page 79


 4545 1153 0D        		.byte	13
 4546 1154 0B        		.byte	11
 4547 1155 FC        		.byte	-4
 4548 1156 D0        		.byte	-48
 4549 1157 CE        		.byte	-50
 4550 1158 DB        		.byte	-37
 4551 1159 F8        		.byte	-8
 4552 115a 02        		.byte	2
 4553 115b 1E        		.byte	30
 4554 115c 1B        		.byte	27
 4555 115d 1A        		.byte	26
 4556 115e 00        		.byte	0
 4557 115f 05        		.byte	5
 4558 1160 C3        		.byte	-61
 4559 1161 A3        		.byte	-93
 4560 1162 CB        		.byte	-53
 4561 1163 E7        		.byte	-25
 4562 1164 EF        		.byte	-17
 4563 1165 F1        		.byte	-15
 4564 1166 F6        		.byte	-10
 4565 1167 EA        		.byte	-22
 4566 1168 E4        		.byte	-28
 4567 1169 E0        		.byte	-32
 4568 116a F6        		.byte	-10
 4569 116b E2        		.byte	-30
 4570 116c F5        		.byte	-11
 4571 116d 01        		.byte	1
 4572 116e 01        		.byte	1
 4573 116f FD        		.byte	-3
 4574 1170 09        		.byte	9
 4575 1171 D8        		.byte	-40
 4576 1172 C8        		.byte	-56
 4577 1173 E0        		.byte	-32
 4578 1174 EC        		.byte	-20
 4579 1175 F4        		.byte	-12
 4580 1176 F9        		.byte	-7
 4581 1177 EC        		.byte	-20
 4582 1178 D0        		.byte	-48
 4583 1179 E4        		.byte	-28
 4584 117a F4        		.byte	-12
 4585 117b 13        		.byte	19
 4586 117c 0C        		.byte	12
 4587 117d 2C        		.byte	44
 4588 117e 16        		.byte	22
 4589 117f 02        		.byte	2
 4590 1180 19        		.byte	25
 4591 1181 38        		.byte	56
 4592 1182 1B        		.byte	27
 4593 1183 1A        		.byte	26
 4594 1184 2B        		.byte	43
 4595 1185 1D        		.byte	29
 4596 1186 1B        		.byte	27
 4597 1187 07        		.byte	7
 4598 1188 2B        		.byte	43
 4599 1189 25        		.byte	37
 4600 118a 55        		.byte	85
 4601 118b 3F        		.byte	63
GAS LISTING /tmp/ccdhZXtX.s 			page 80


 4602 118c 24        		.byte	36
 4603 118d 3C        		.byte	60
 4604 118e 3D        		.byte	61
 4605 118f 13        		.byte	19
 4606 1190 0A        		.byte	10
 4607 1191 32        		.byte	50
 4608 1192 43        		.byte	67
 4609 1193 1C        		.byte	28
 4610 1194 1B        		.byte	27
 4611 1195 2C        		.byte	44
 4612 1196 0E        		.byte	14
 4613 1197 29        		.byte	41
 4614 1198 37        		.byte	55
 4615 1199 48        		.byte	72
 4616 119a 14        		.byte	20
 4617 119b 09        		.byte	9
 4618 119c 19        		.byte	25
 4619 119d 3D        		.byte	61
 4620 119e 31        		.byte	49
 4621 119f 3B        		.byte	59
 4622 11a0 30        		.byte	48
 4623 11a1 40        		.byte	64
 4624 11a2 2A        		.byte	42
 4625 11a3 3A        		.byte	58
 4626 11a4 38        		.byte	56
 4627 11a5 E2        		.byte	-30
 4628 11a6 FA        		.byte	-6
 4629 11a7 CC        		.byte	-52
 4630 11a8 EB        		.byte	-21
 4631 11a9 07        		.byte	7
 4632 11aa 29        		.byte	41
 4633 11ab 0F        		.byte	15
 4634 11ac 1E        		.byte	30
 4635 11ad 19        		.byte	25
 4636 11ae 3D        		.byte	61
 4637 11af 40        		.byte	64
 4638 11b0 35        		.byte	53
 4639 11b1 25        		.byte	37
 4640 11b2 1B        		.byte	27
 4641 11b3 23        		.byte	35
 4642 11b4 0F        		.byte	15
 4643 11b5 10        		.byte	16
 4644 11b6 C6        		.byte	-58
 4645 11b7 EF        		.byte	-17
 4646 11b8 DC        		.byte	-36
 4647 11b9 EF        		.byte	-17
 4648 11ba 0A        		.byte	10
 4649 11bb 06        		.byte	6
 4650 11bc DF        		.byte	-33
 4651 11bd C2        		.byte	-62
 4652 11be 13        		.byte	19
 4653 11bf 5E        		.byte	94
 4654 11c0 26        		.byte	38
 4655 11c1 33        		.byte	51
 4656 11c2 FF        		.byte	-1
 4657 11c3 E1        		.byte	-31
 4658 11c4 EC        		.byte	-20
GAS LISTING /tmp/ccdhZXtX.s 			page 81


 4659 11c5 DC        		.byte	-36
 4660 11c6 F4        		.byte	-12
 4661 11c7 A6        		.byte	-90
 4662 11c8 CA        		.byte	-54
 4663 11c9 DD        		.byte	-35
 4664 11ca DD        		.byte	-35
 4665 11cb D6        		.byte	-42
 4666 11cc F6        		.byte	-10
 4667 11cd E3        		.byte	-29
 4668 11ce F2        		.byte	-14
 4669 11cf CB        		.byte	-53
 4670 11d0 B8        		.byte	-72
 4671 11d1 DE        		.byte	-34
 4672 11d2 D9        		.byte	-39
 4673 11d3 C9        		.byte	-55
 4674 11d4 EA        		.byte	-22
 4675 11d5 08        		.byte	8
 4676 11d6 04        		.byte	4
 4677 11d7 4C        		.byte	76
 4678 11d8 F1        		.byte	-15
 4679 11d9 40        		.byte	64
 4680 11da 19        		.byte	25
 4681 11db 1D        		.byte	29
 4682 11dc 2E        		.byte	46
 4683 11dd F3        		.byte	-13
 4684 11de 3B        		.byte	59
 4685 11df 2B        		.byte	43
 4686 11e0 3A        		.byte	58
 4687 11e1 F9        		.byte	-7
 4688 11e2 E1        		.byte	-31
 4689 11e3 D1        		.byte	-47
 4690 11e4 DB        		.byte	-37
 4691 11e5 DB        		.byte	-37
 4692 11e6 E5        		.byte	-27
 4693 11e7 CC        		.byte	-52
 4694 11e8 E9        		.byte	-23
 4695 11e9 D6        		.byte	-42
 4696 11ea A7        		.byte	-89
 4697 11eb C7        		.byte	-57
 4698 11ec B8        		.byte	-72
 4699 11ed C6        		.byte	-58
 4700 11ee C6        		.byte	-58
 4701 11ef D1        		.byte	-47
 4702 11f0 E5        		.byte	-27
 4703 11f1 ED        		.byte	-19
 4704 11f2 E1        		.byte	-31
 4705 11f3 F5        		.byte	-11
 4706 11f4 00        		.byte	0
 4707 11f5 0B        		.byte	11
 4708 11f6 FC        		.byte	-4
 4709 11f7 FB        		.byte	-5
 4710 11f8 D8        		.byte	-40
 4711 11f9 D8        		.byte	-40
 4712 11fa DE        		.byte	-34
 4713 11fb F1        		.byte	-15
 4714 11fc 10        		.byte	16
 4715 11fd 18        		.byte	24
GAS LISTING /tmp/ccdhZXtX.s 			page 82


 4716 11fe 21        		.byte	33
 4717 11ff 2D        		.byte	45
 4718 1200 2B        		.byte	43
 4719 1201 12        		.byte	18
 4720 1202 2A        		.byte	42
 4721 1203 29        		.byte	41
 4722 1204 3C        		.byte	60
 4723 1205 1A        		.byte	26
 4724 1206 35        		.byte	53
 4725 1207 49        		.byte	73
 4726 1208 40        		.byte	64
 4727 1209 4C        		.byte	76
 4728 120a 47        		.byte	71
 4729 120b 4E        		.byte	78
 4730 120c 2B        		.byte	43
 4731 120d 25        		.byte	37
 4732 120e 31        		.byte	49
 4733 120f 21        		.byte	33
 4734 1210 2E        		.byte	46
 4735 1211 39        		.byte	57
 4736 1212 39        		.byte	57
 4737 1213 21        		.byte	33
 4738 1214 EE        		.byte	-18
 4739 1215 FA        		.byte	-6
 4740 1216 DC        		.byte	-36
 4741 1217 C3        		.byte	-61
 4742 1218 B9        		.byte	-71
 4743 1219 B5        		.byte	-75
 4744 121a BE        		.byte	-66
 4745 121b B5        		.byte	-75
 4746 121c BD        		.byte	-67
 4747 121d C8        		.byte	-56
 4748 121e C5        		.byte	-59
 4749 121f CB        		.byte	-53
 4750 1220 CB        		.byte	-53
 4751 1221 B0        		.byte	-80
 4752 1222 C1        		.byte	-63
 4753 1223 C5        		.byte	-59
 4754 1224 B0        		.byte	-80
 4755 1225 B0        		.byte	-80
 4756 1226 B9        		.byte	-71
 4757 1227 AD        		.byte	-83
 4758 1228 C0        		.byte	-64
 4759 1229 C0        		.byte	-64
 4760 122a E1        		.byte	-31
 4761 122b E1        		.byte	-31
 4762 122c C1        		.byte	-63
 4763 122d E8        		.byte	-24
 4764 122e AD        		.byte	-83
 4765 122f A2        		.byte	-94
 4766 1230 AC        		.byte	-84
 4767 1231 D5        		.byte	-43
 4768 1232 FF        		.byte	-1
 4769 1233 0F        		.byte	15
 4770 1234 35        		.byte	53
 4771 1235 32        		.byte	50
 4772 1236 3C        		.byte	60
GAS LISTING /tmp/ccdhZXtX.s 			page 83


 4773 1237 50        		.byte	80
 4774 1238 57        		.byte	87
 4775 1239 55        		.byte	85
 4776 123a 5D        		.byte	93
 4777 123b 5E        		.byte	94
 4778 123c 60        		.byte	96
 4779 123d 52        		.byte	82
 4780 123e 4B        		.byte	75
 4781 123f 40        		.byte	64
 4782 1240 55        		.byte	85
 4783 1241 52        		.byte	82
 4784 1242 3D        		.byte	61
 4785 1243 41        		.byte	65
 4786 1244 48        		.byte	72
 4787 1245 4D        		.byte	77
 4788 1246 42        		.byte	66
 4789 1247 42        		.byte	66
 4790 1248 4C        		.byte	76
 4791 1249 50        		.byte	80
 4792 124a 47        		.byte	71
 4793 124b 45        		.byte	69
 4794 124c 45        		.byte	69
 4795 124d 42        		.byte	66
 4796 124e 3D        		.byte	61
 4797 124f 3E        		.byte	62
 4798 1250 19        		.byte	25
 4799 1251 12        		.byte	18
 4800 1252 22        		.byte	34
 4801 1253 1D        		.byte	29
 4802 1254 13        		.byte	19
 4803 1255 17        		.byte	23
 4804 1256 1F        		.byte	31
 4805 1257 12        		.byte	18
 4806 1258 08        		.byte	8
 4807 1259 F1        		.byte	-15
 4808 125a EB        		.byte	-21
 4809 125b EB        		.byte	-21
 4810 125c D7        		.byte	-41
 4811 125d BC        		.byte	-68
 4812 125e C3        		.byte	-61
 4813 125f BA        		.byte	-70
 4814 1260 B9        		.byte	-71
 4815 1261 AD        		.byte	-83
 4816 1262 9E        		.byte	-98
 4817 1263 AC        		.byte	-84
 4818 1264 A3        		.byte	-93
 4819 1265 A4        		.byte	-92
 4820 1266 9C        		.byte	-100
 4821 1267 A2        		.byte	-94
 4822 1268 99        		.byte	-103
 4823 1269 A0        		.byte	-96
 4824 126a A4        		.byte	-92
 4825 126b AE        		.byte	-82
 4826 126c B7        		.byte	-73
 4827 126d BC        		.byte	-68
 4828 126e CD        		.byte	-51
 4829 126f D1        		.byte	-47
GAS LISTING /tmp/ccdhZXtX.s 			page 84


 4830 1270 D3        		.byte	-45
 4831 1271 DE        		.byte	-34
 4832 1272 E1        		.byte	-31
 4833 1273 B9        		.byte	-71
 4834 1274 D2        		.byte	-46
 4835 1275 E4        		.byte	-28
 4836 1276 F2        		.byte	-14
 4837 1277 02        		.byte	2
 4838 1278 05        		.byte	5
 4839 1279 10        		.byte	16
 4840 127a 08        		.byte	8
 4841 127b 03        		.byte	3
 4842 127c 06        		.byte	6
 4843 127d 07        		.byte	7
 4844 127e 0A        		.byte	10
 4845 127f 0A        		.byte	10
 4846 1280 14        		.byte	20
 4847 1281 18        		.byte	24
 4848 1282 1C        		.byte	28
 4849 1283 23        		.byte	35
 4850 1284 1E        		.byte	30
 4851 1285 42        		.byte	66
 4852 1286 45        		.byte	69
 4853 1287 38        		.byte	56
 4854 1288 3F        		.byte	63
 4855 1289 5F        		.byte	95
 4856 128a 44        		.byte	68
 4857 128b 31        		.byte	49
 4858 128c 42        		.byte	66
 4859 128d 4C        		.byte	76
 4860 128e 56        		.byte	86
 4861 128f 4D        		.byte	77
 4862 1290 5C        		.byte	92
 4863 1291 5E        		.byte	94
 4864 1292 4D        		.byte	77
 4865 1293 43        		.byte	67
 4866 1294 40        		.byte	64
 4867 1295 27        		.byte	39
 4868 1296 1E        		.byte	30
 4869 1297 0F        		.byte	15
 4870 1298 FE        		.byte	-2
 4871 1299 EA        		.byte	-22
 4872 129a F0        		.byte	-16
 4873 129b ED        		.byte	-19
 4874 129c D0        		.byte	-48
 4875 129d D7        		.byte	-41
 4876 129e E9        		.byte	-23
 4877 129f F6        		.byte	-10
 4878 12a0 E6        		.byte	-26
 4879 12a1 C0        		.byte	-64
 4880 12a2 CC        		.byte	-52
 4881 12a3 EB        		.byte	-21
 4882 12a4 E2        		.byte	-30
 4883 12a5 ED        		.byte	-19
 4884 12a6 EB        		.byte	-21
 4885 12a7 E8        		.byte	-24
 4886 12a8 F3        		.byte	-13
GAS LISTING /tmp/ccdhZXtX.s 			page 85


 4887 12a9 FE        		.byte	-2
 4888 12aa F4        		.byte	-12
 4889 12ab FA        		.byte	-6
 4890 12ac FF        		.byte	-1
 4891 12ad F7        		.byte	-9
 4892 12ae FD        		.byte	-3
 4893 12af F7        		.byte	-9
 4894 12b0 06        		.byte	6
 4895 12b1 FA        		.byte	-6
 4896 12b2 02        		.byte	2
 4897 12b3 0A        		.byte	10
 4898 12b4 FE        		.byte	-2
 4899 12b5 F0        		.byte	-16
 4900 12b6 F5        		.byte	-11
 4901 12b7 D2        		.byte	-46
 4902 12b8 AB        		.byte	-85
 4903 12b9 B1        		.byte	-79
 4904 12ba B4        		.byte	-76
 4905 12bb C2        		.byte	-62
 4906 12bc BB        		.byte	-69
 4907 12bd C6        		.byte	-58
 4908 12be C0        		.byte	-64
 4909 12bf B7        		.byte	-73
 4910 12c0 B6        		.byte	-74
 4911 12c1 B0        		.byte	-80
 4912 12c2 AA        		.byte	-86
 4913 12c3 B7        		.byte	-73
 4914 12c4 AF        		.byte	-81
 4915 12c5 A9        		.byte	-87
 4916 12c6 B4        		.byte	-76
 4917 12c7 C4        		.byte	-60
 4918 12c8 C4        		.byte	-60
 4919 12c9 C1        		.byte	-63
 4920 12ca E2        		.byte	-30
 4921 12cb E6        		.byte	-26
 4922 12cc E8        		.byte	-24
 4923 12cd EE        		.byte	-18
 4924 12ce F4        		.byte	-12
 4925 12cf E8        		.byte	-24
 4926 12d0 F9        		.byte	-7
 4927 12d1 12        		.byte	18
 4928 12d2 2F        		.byte	47
 4929 12d3 31        		.byte	49
 4930 12d4 3D        		.byte	61
 4931 12d5 49        		.byte	73
 4932 12d6 52        		.byte	82
 4933 12d7 50        		.byte	80
 4934 12d8 50        		.byte	80
 4935 12d9 39        		.byte	57
 4936 12da 18        		.byte	24
 4937 12db 33        		.byte	51
 4938 12dc 29        		.byte	41
 4939 12dd 35        		.byte	53
 4940 12de 32        		.byte	50
 4941 12df 3B        		.byte	59
 4942 12e0 36        		.byte	54
 4943 12e1 2F        		.byte	47
GAS LISTING /tmp/ccdhZXtX.s 			page 86


 4944 12e2 34        		.byte	52
 4945 12e3 32        		.byte	50
 4946 12e4 31        		.byte	49
 4947 12e5 1F        		.byte	31
 4948 12e6 0F        		.byte	15
 4949 12e7 17        		.byte	23
 4950 12e8 17        		.byte	23
 4951 12e9 1D        		.byte	29
 4952 12ea 28        		.byte	40
 4953 12eb 11        		.byte	17
 4954 12ec 2B        		.byte	43
 4955 12ed 20        		.byte	32
 4956 12ee 1A        		.byte	26
 4957 12ef 29        		.byte	41
 4958 12f0 33        		.byte	51
 4959 12f1 3F        		.byte	63
 4960 12f2 3C        		.byte	60
 4961 12f3 38        		.byte	56
 4962 12f4 4D        		.byte	77
 4963 12f5 49        		.byte	73
 4964 12f6 4C        		.byte	76
 4965 12f7 5B        		.byte	91
 4966 12f8 5D        		.byte	93
 4967 12f9 5C        		.byte	92
 4968 12fa 53        		.byte	83
 4969 12fb 5E        		.byte	94
 4970 12fc 39        		.byte	57
 4971 12fd 28        		.byte	40
 4972 12fe 29        		.byte	41
 4973 12ff 3C        		.byte	60
 4974 1300 40        		.byte	64
 4975 1301 46        		.byte	70
 4976 1302 46        		.byte	70
 4977 1303 32        		.byte	50
 4978 1304 33        		.byte	51
 4979 1305 2C        		.byte	44
 4980 1306 29        		.byte	41
 4981 1307 22        		.byte	34
 4982 1308 18        		.byte	24
 4983 1309 0C        		.byte	12
 4984 130a FE        		.byte	-2
 4985 130b F3        		.byte	-13
 4986 130c FB        		.byte	-5
 4987 130d DC        		.byte	-36
 4988 130e DD        		.byte	-35
 4989 130f DE        		.byte	-34
 4990 1310 CE        		.byte	-50
 4991 1311 CB        		.byte	-53
 4992 1312 CA        		.byte	-54
 4993 1313 C3        		.byte	-61
 4994 1314 A7        		.byte	-89
 4995 1315 AC        		.byte	-84
 4996 1316 B7        		.byte	-73
 4997 1317 BB        		.byte	-69
 4998 1318 BC        		.byte	-68
 4999 1319 C6        		.byte	-58
 5000 131a CB        		.byte	-53
GAS LISTING /tmp/ccdhZXtX.s 			page 87


 5001 131b D1        		.byte	-47
 5002 131c C9        		.byte	-55
 5003 131d C5        		.byte	-59
 5004 131e AE        		.byte	-82
 5005 131f AD        		.byte	-83
 5006 1320 B6        		.byte	-74
 5007 1321 B4        		.byte	-76
 5008 1322 B4        		.byte	-76
 5009 1323 AE        		.byte	-82
 5010 1324 BA        		.byte	-70
 5011 1325 B4        		.byte	-76
 5012 1326 B3        		.byte	-77
 5013 1327 BA        		.byte	-70
 5014 1328 BD        		.byte	-67
 5015 1329 BC        		.byte	-68
 5016 132a AB        		.byte	-85
 5017 132b 93        		.byte	-109
 5018 132c A7        		.byte	-89
 5019 132d AA        		.byte	-86
 5020 132e B7        		.byte	-73
 5021 132f B2        		.byte	-78
 5022 1330 AA        		.byte	-86
 5023 1331 BA        		.byte	-70
 5024 1332 B1        		.byte	-79
 5025 1333 BC        		.byte	-68
 5026 1334 B9        		.byte	-71
 5027 1335 C6        		.byte	-58
 5028 1336 C1        		.byte	-63
 5029 1337 C8        		.byte	-56
 5030 1338 CB        		.byte	-53
 5031 1339 D0        		.byte	-48
 5032 133a E7        		.byte	-25
 5033 133b EE        		.byte	-18
 5034 133c FE        		.byte	-2
 5035 133d 10        		.byte	16
 5036 133e 22        		.byte	34
 5037 133f 26        		.byte	38
 5038 1340 1B        		.byte	27
 5039 1341 FF        		.byte	-1
 5040 1342 15        		.byte	21
 5041 1343 2C        		.byte	44
 5042 1344 39        		.byte	57
 5043 1345 49        		.byte	73
 5044 1346 54        		.byte	84
 5045 1347 53        		.byte	83
 5046 1348 4F        		.byte	79
 5047 1349 5B        		.byte	91
 5048 134a 66        		.byte	102
 5049 134b 5E        		.byte	94
 5050 134c 5B        		.byte	91
 5051 134d 5D        		.byte	93
 5052 134e 5A        		.byte	90
 5053 134f 52        		.byte	82
 5054 1350 51        		.byte	81
 5055 1351 55        		.byte	85
 5056 1352 3E        		.byte	62
 5057 1353 4F        		.byte	79
GAS LISTING /tmp/ccdhZXtX.s 			page 88


 5058 1354 49        		.byte	73
 5059 1355 48        		.byte	72
 5060 1356 4C        		.byte	76
 5061 1357 4A        		.byte	74
 5062 1358 33        		.byte	51
 5063 1359 23        		.byte	35
 5064 135a 24        		.byte	36
 5065 135b 2B        		.byte	43
 5066 135c 31        		.byte	49
 5067 135d 2B        		.byte	43
 5068 135e 3B        		.byte	59
 5069 135f 39        		.byte	57
 5070 1360 2A        		.byte	42
 5071 1361 22        		.byte	34
 5072 1362 1E        		.byte	30
 5073 1363 FB        		.byte	-5
 5074 1364 03        		.byte	3
 5075 1365 03        		.byte	3
 5076 1366 FF        		.byte	-1
 5077 1367 01        		.byte	1
 5078 1368 FE        		.byte	-2
 5079 1369 F8        		.byte	-8
 5080 136a 05        		.byte	5
 5081 136b 01        		.byte	1
 5082 136c FB        		.byte	-5
 5083 136d 09        		.byte	9
 5084 136e FE        		.byte	-2
 5085 136f E5        		.byte	-27
 5086 1370 DE        		.byte	-34
 5087 1371 EB        		.byte	-21
 5088 1372 F1        		.byte	-15
 5089 1373 05        		.byte	5
 5090 1374 E0        		.byte	-32
 5091 1375 EB        		.byte	-21
 5092 1376 EA        		.byte	-22
 5093 1377 E9        		.byte	-23
 5094 1378 E8        		.byte	-24
 5095 1379 DA        		.byte	-38
 5096 137a D4        		.byte	-44
 5097 137b C8        		.byte	-56
 5098 137c BE        		.byte	-66
 5099 137d B1        		.byte	-79
 5100 137e C3        		.byte	-61
 5101 137f B6        		.byte	-74
 5102 1380 C7        		.byte	-57
 5103 1381 D2        		.byte	-46
 5104 1382 DF        		.byte	-33
 5105 1383 D3        		.byte	-45
 5106 1384 D4        		.byte	-44
 5107 1385 B0        		.byte	-80
 5108 1386 9C        		.byte	-100
 5109 1387 AA        		.byte	-86
 5110 1388 B5        		.byte	-75
 5111 1389 CE        		.byte	-50
 5112 138a CC        		.byte	-52
 5113 138b E0        		.byte	-32
 5114 138c DD        		.byte	-35
GAS LISTING /tmp/ccdhZXtX.s 			page 89


 5115 138d DF        		.byte	-33
 5116 138e E5        		.byte	-27
 5117 138f FD        		.byte	-3
 5118 1390 EE        		.byte	-18
 5119 1391 DA        		.byte	-38
 5120 1392 E9        		.byte	-23
 5121 1393 F6        		.byte	-10
 5122 1394 F6        		.byte	-10
 5123 1395 07        		.byte	7
 5124 1396 F4        		.byte	-12
 5125 1397 F4        		.byte	-12
 5126 1398 07        		.byte	7
 5127 1399 01        		.byte	1
 5128 139a 0C        		.byte	12
 5129 139b 0E        		.byte	14
 5130 139c 15        		.byte	21
 5131 139d F7        		.byte	-9
 5132 139e F1        		.byte	-15
 5133 139f F6        		.byte	-10
 5134 13a0 11        		.byte	17
 5135 13a1 0F        		.byte	15
 5136 13a2 16        		.byte	22
 5137 13a3 2C        		.byte	44
 5138 13a4 2F        		.byte	47
 5139 13a5 22        		.byte	34
 5140 13a6 1E        		.byte	30
 5141 13a7 09        		.byte	9
 5142 13a8 EE        		.byte	-18
 5143 13a9 FB        		.byte	-5
 5144 13aa F1        		.byte	-15
 5145 13ab 06        		.byte	6
 5146 13ac F9        		.byte	-7
 5147 13ad FE        		.byte	-2
 5148 13ae FA        		.byte	-6
 5149 13af 00        		.byte	0
 5150 13b0 14        		.byte	20
 5151 13b1 0D        		.byte	13
 5152 13b2 18        		.byte	24
 5153 13b3 05        		.byte	5
 5154 13b4 EF        		.byte	-17
 5155 13b5 FB        		.byte	-5
 5156 13b6 10        		.byte	16
 5157 13b7 1C        		.byte	28
 5158 13b8 1F        		.byte	31
 5159 13b9 09        		.byte	9
 5160 13ba 03        		.byte	3
 5161 13bb 10        		.byte	16
 5162 13bc 29        		.byte	41
 5163 13bd 2B        		.byte	43
 5164 13be 2B        		.byte	43
 5165 13bf 30        		.byte	48
 5166 13c0 21        		.byte	33
 5167 13c1 26        		.byte	38
 5168 13c2 2F        		.byte	47
 5169 13c3 2B        		.byte	43
 5170 13c4 3E        		.byte	62
 5171 13c5 4A        		.byte	74
GAS LISTING /tmp/ccdhZXtX.s 			page 90


 5172 13c6 4D        		.byte	77
 5173 13c7 49        		.byte	73
 5174 13c8 45        		.byte	69
 5175 13c9 3C        		.byte	60
 5176 13ca 15        		.byte	21
 5177 13cb 0C        		.byte	12
 5178 13cc 18        		.byte	24
 5179 13cd 28        		.byte	40
 5180 13ce 1A        		.byte	26
 5181 13cf 25        		.byte	37
 5182 13d0 29        		.byte	41
 5183 13d1 29        		.byte	41
 5184 13d2 31        		.byte	49
 5185 13d3 39        		.byte	57
 5186 13d4 3E        		.byte	62
 5187 13d5 27        		.byte	39
 5188 13d6 28        		.byte	40
 5189 13d7 29        		.byte	41
 5190 13d8 32        		.byte	50
 5191 13d9 30        		.byte	48
 5192 13da 2D        		.byte	45
 5193 13db 08        		.byte	8
 5194 13dc 13        		.byte	19
 5195 13dd 22        		.byte	34
 5196 13de 23        		.byte	35
 5197 13df 2C        		.byte	44
 5198 13e0 17        		.byte	23
 5199 13e1 0D        		.byte	13
 5200 13e2 E4        		.byte	-28
 5201 13e3 DD        		.byte	-35
 5202 13e4 F8        		.byte	-8
 5203 13e5 04        		.byte	4
 5204 13e6 0B        		.byte	11
 5205 13e7 0D        		.byte	13
 5206 13e8 15        		.byte	21
 5207 13e9 10        		.byte	16
 5208 13ea 04        		.byte	4
 5209 13eb 11        		.byte	17
 5210 13ec E4        		.byte	-28
 5211 13ed DD        		.byte	-35
 5212 13ee E5        		.byte	-27
 5213 13ef D4        		.byte	-44
 5214 13f0 CC        		.byte	-52
 5215 13f1 CD        		.byte	-51
 5216 13f2 CC        		.byte	-52
 5217 13f3 C4        		.byte	-60
 5218 13f4 C7        		.byte	-57
 5219 13f5 C5        		.byte	-59
 5220 13f6 C9        		.byte	-55
 5221 13f7 AF        		.byte	-81
 5222 13f8 AC        		.byte	-84
 5223 13f9 A6        		.byte	-90
 5224 13fa AF        		.byte	-81
 5225 13fb AD        		.byte	-83
 5226 13fc B7        		.byte	-73
 5227 13fd AA        		.byte	-86
 5228 13fe 9D        		.byte	-99
GAS LISTING /tmp/ccdhZXtX.s 			page 91


 5229 13ff B3        		.byte	-77
 5230 1400 A9        		.byte	-87
 5231 1401 B4        		.byte	-76
 5232 1402 B2        		.byte	-78
 5233 1403 AF        		.byte	-81
 5234 1404 A2        		.byte	-94
 5235 1405 A1        		.byte	-95
 5236 1406 A8        		.byte	-88
 5237 1407 A5        		.byte	-91
 5238 1408 B7        		.byte	-73
 5239 1409 B5        		.byte	-75
 5240 140a C1        		.byte	-63
 5241 140b B8        		.byte	-72
 5242 140c B3        		.byte	-77
 5243 140d D5        		.byte	-43
 5244 140e C1        		.byte	-63
 5245 140f A9        		.byte	-87
 5246 1410 9F        		.byte	-97
 5247 1411 B4        		.byte	-76
 5248 1412 C5        		.byte	-59
 5249 1413 D1        		.byte	-47
 5250 1414 D4        		.byte	-44
 5251 1415 DC        		.byte	-36
 5252 1416 EE        		.byte	-18
 5253 1417 F0        		.byte	-16
 5254 1418 F4        		.byte	-12
 5255 1419 EF        		.byte	-17
 5256 141a F8        		.byte	-8
 5257 141b F6        		.byte	-10
 5258 141c 01        		.byte	1
 5259 141d F4        		.byte	-12
 5260 141e 07        		.byte	7
 5261 141f 03        		.byte	3
 5262 1420 DB        		.byte	-37
 5263 1421 FD        		.byte	-3
 5264 1422 06        		.byte	6
 5265 1423 1A        		.byte	26
 5266 1424 26        		.byte	38
 5267 1425 24        		.byte	36
 5268 1426 10        		.byte	16
 5269 1427 F9        		.byte	-7
 5270 1428 19        		.byte	25
 5271 1429 29        		.byte	41
 5272 142a 3C        		.byte	60
 5273 142b 56        		.byte	86
 5274 142c 5D        		.byte	93
 5275 142d 57        		.byte	87
 5276 142e 53        		.byte	83
 5277 142f 64        		.byte	100
 5278 1430 5B        		.byte	91
 5279 1431 44        		.byte	68
 5280 1432 49        		.byte	73
 5281 1433 46        		.byte	70
 5282 1434 3F        		.byte	63
 5283 1435 43        		.byte	67
 5284 1436 48        		.byte	72
 5285 1437 4A        		.byte	74
GAS LISTING /tmp/ccdhZXtX.s 			page 92


 5286 1438 57        		.byte	87
 5287 1439 58        		.byte	88
 5288 143a 5D        		.byte	93
 5289 143b 53        		.byte	83
 5290 143c 5A        		.byte	90
 5291 143d 52        		.byte	82
 5292 143e 43        		.byte	67
 5293 143f 4A        		.byte	74
 5294 1440 54        		.byte	84
 5295 1441 62        		.byte	98
 5296 1442 51        		.byte	81
 5297 1443 58        		.byte	88
 5298 1444 51        		.byte	81
 5299 1445 5D        		.byte	93
 5300 1446 5C        		.byte	92
 5301 1447 51        		.byte	81
 5302 1448 4D        		.byte	77
 5303 1449 39        		.byte	57
 5304 144a 44        		.byte	68
 5305 144b 41        		.byte	65
 5306 144c 38        		.byte	56
 5307 144d 3E        		.byte	62
 5308 144e 40        		.byte	64
 5309 144f 42        		.byte	66
 5310 1450 29        		.byte	41
 5311 1451 2E        		.byte	46
 5312 1452 2D        		.byte	45
 5313 1453 12        		.byte	18
 5314 1454 03        		.byte	3
 5315 1455 F2        		.byte	-14
 5316 1456 0B        		.byte	11
 5317 1457 0E        		.byte	14
 5318 1458 13        		.byte	19
 5319 1459 14        		.byte	20
 5320 145a 12        		.byte	18
 5321 145b 19        		.byte	25
 5322 145c 16        		.byte	22
 5323 145d FA        		.byte	-6
 5324 145e F3        		.byte	-13
 5325 145f 02        		.byte	2
 5326 1460 FB        		.byte	-5
 5327 1461 04        		.byte	4
 5328 1462 F5        		.byte	-11
 5329 1463 F8        		.byte	-8
 5330 1464 DF        		.byte	-33
 5331 1465 D5        		.byte	-43
 5332 1466 E1        		.byte	-31
 5333 1467 DE        		.byte	-34
 5334 1468 E8        		.byte	-24
 5335 1469 DF        		.byte	-33
 5336 146a D4        		.byte	-44
 5337 146b B9        		.byte	-71
 5338 146c B7        		.byte	-73
 5339 146d C6        		.byte	-58
 5340 146e CA        		.byte	-54
 5341 146f D5        		.byte	-43
 5342 1470 EF        		.byte	-17
GAS LISTING /tmp/ccdhZXtX.s 			page 93


 5343 1471 E3        		.byte	-29
 5344 1472 CA        		.byte	-54
 5345 1473 D5        		.byte	-43
 5346 1474 DB        		.byte	-37
 5347 1475 CC        		.byte	-52
 5348 1476 B3        		.byte	-77
 5349 1477 B2        		.byte	-78
 5350 1478 BD        		.byte	-67
 5351 1479 B9        		.byte	-71
 5352 147a BB        		.byte	-69
 5353 147b BB        		.byte	-69
 5354 147c B7        		.byte	-73
 5355 147d CA        		.byte	-54
 5356 147e D2        		.byte	-46
 5357 147f CB        		.byte	-53
 5358 1480 C6        		.byte	-58
 5359 1481 BF        		.byte	-65
 5360 1482 AB        		.byte	-85
 5361 1483 AB        		.byte	-85
 5362 1484 BE        		.byte	-66
 5363 1485 C8        		.byte	-56
 5364 1486 B1        		.byte	-79
 5365 1487 A5        		.byte	-91
 5366 1488 BD        		.byte	-67
 5367 1489 C6        		.byte	-58
 5368 148a D1        		.byte	-47
 5369 148b D5        		.byte	-43
 5370 148c C5        		.byte	-59
 5371 148d C1        		.byte	-63
 5372 148e C2        		.byte	-62
 5373 148f CA        		.byte	-54
 5374 1490 C2        		.byte	-62
 5375 1491 C9        		.byte	-55
 5376 1492 CF        		.byte	-49
 5377 1493 CD        		.byte	-51
 5378 1494 E1        		.byte	-31
 5379 1495 D9        		.byte	-39
 5380 1496 E5        		.byte	-27
 5381 1497 D6        		.byte	-42
 5382 1498 B9        		.byte	-71
 5383 1499 AA        		.byte	-86
 5384 149a B1        		.byte	-79
 5385 149b C1        		.byte	-63
 5386 149c CD        		.byte	-51
 5387 149d E8        		.byte	-24
 5388 149e E4        		.byte	-28
 5389 149f EE        		.byte	-18
 5390 14a0 F2        		.byte	-14
 5391 14a1 F1        		.byte	-15
 5392 14a2 F1        		.byte	-15
 5393 14a3 E2        		.byte	-30
 5394 14a4 F2        		.byte	-14
 5395 14a5 F2        		.byte	-14
 5396 14a6 F6        		.byte	-10
 5397 14a7 ED        		.byte	-19
 5398 14a8 ED        		.byte	-19
 5399 14a9 D9        		.byte	-39
GAS LISTING /tmp/ccdhZXtX.s 			page 94


 5400 14aa DE        		.byte	-34
 5401 14ab FE        		.byte	-2
 5402 14ac FB        		.byte	-5
 5403 14ad 0D        		.byte	13
 5404 14ae F9        		.byte	-7
 5405 14af E6        		.byte	-26
 5406 14b0 D7        		.byte	-41
 5407 14b1 E6        		.byte	-26
 5408 14b2 FE        		.byte	-2
 5409 14b3 0B        		.byte	11
 5410 14b4 22        		.byte	34
 5411 14b5 2D        		.byte	45
 5412 14b6 39        		.byte	57
 5413 14b7 35        		.byte	53
 5414 14b8 3E        		.byte	62
 5415 14b9 42        		.byte	66
 5416 14ba 1B        		.byte	27
 5417 14bb 1E        		.byte	30
 5418 14bc 22        		.byte	34
 5419 14bd 26        		.byte	38
 5420 14be 1E        		.byte	30
 5421 14bf 2C        		.byte	44
 5422 14c0 30        		.byte	48
 5423 14c1 2B        		.byte	43
 5424 14c2 46        		.byte	70
 5425 14c3 23        		.byte	35
 5426 14c4 37        		.byte	55
 5427 14c5 33        		.byte	51
 5428 14c6 33        		.byte	51
 5429 14c7 20        		.byte	32
 5430 14c8 27        		.byte	39
 5431 14c9 3C        		.byte	60
 5432 14ca 3B        		.byte	59
 5433 14cb 3C        		.byte	60
 5434 14cc 29        		.byte	41
 5435 14cd 4F        		.byte	79
 5436 14ce 4E        		.byte	78
 5437 14cf 55        		.byte	85
 5438 14d0 48        		.byte	72
 5439 14d1 3A        		.byte	58
 5440 14d2 36        		.byte	54
 5441 14d3 38        		.byte	56
 5442 14d4 40        		.byte	64
 5443 14d5 2F        		.byte	47
 5444 14d6 44        		.byte	68
 5445 14d7 34        		.byte	52
 5446 14d8 2D        		.byte	45
 5447 14d9 40        		.byte	64
 5448 14da 42        		.byte	66
 5449 14db 52        		.byte	82
 5450 14dc 32        		.byte	50
 5451 14dd 1A        		.byte	26
 5452 14de 04        		.byte	4
 5453 14df 11        		.byte	17
 5454 14e0 28        		.byte	40
 5455 14e1 31        		.byte	49
 5456 14e2 40        		.byte	64
GAS LISTING /tmp/ccdhZXtX.s 			page 95


 5457 14e3 35        		.byte	53
 5458 14e4 44        		.byte	68
 5459 14e5 3C        		.byte	60
 5460 14e6 4C        		.byte	76
 5461 14e7 3A        		.byte	58
 5462 14e8 35        		.byte	53
 5463 14e9 38        		.byte	56
 5464 14ea 32        		.byte	50
 5465 14eb 36        		.byte	54
 5466 14ec 27        		.byte	39
 5467 14ed 2A        		.byte	42
 5468 14ee 12        		.byte	18
 5469 14ef 26        		.byte	38
 5470 14f0 2D        		.byte	45
 5471 14f1 34        		.byte	52
 5472 14f2 22        		.byte	34
 5473 14f3 1B        		.byte	27
 5474 14f4 04        		.byte	4
 5475 14f5 E9        		.byte	-23
 5476 14f6 0A        		.byte	10
 5477 14f7 0B        		.byte	11
 5478 14f8 2B        		.byte	43
 5479 14f9 23        		.byte	35
 5480 14fa 2C        		.byte	44
 5481 14fb 32        		.byte	50
 5482 14fc 24        		.byte	36
 5483 14fd 32        		.byte	50
 5484 14fe 0C        		.byte	12
 5485 14ff F5        		.byte	-11
 5486 1500 E0        		.byte	-32
 5487 1501 E6        		.byte	-26
 5488 1502 EB        		.byte	-21
 5489 1503 E2        		.byte	-30
 5490 1504 F3        		.byte	-13
 5491 1505 EA        		.byte	-22
 5492 1506 F5        		.byte	-11
 5493 1507 FA        		.byte	-6
 5494 1508 00        		.byte	0
 5495 1509 F3        		.byte	-13
 5496 150a F3        		.byte	-13
 5497 150b E4        		.byte	-28
 5498 150c C8        		.byte	-56
 5499 150d DF        		.byte	-33
 5500 150e D4        		.byte	-44
 5501 150f EB        		.byte	-21
 5502 1510 CD        		.byte	-51
 5503 1511 D7        		.byte	-41
 5504 1512 E5        		.byte	-27
 5505 1513 E9        		.byte	-23
 5506 1514 E5        		.byte	-27
 5507 1515 B4        		.byte	-76
 5508 1516 C5        		.byte	-59
 5509 1517 C0        		.byte	-64
 5510 1518 D2        		.byte	-46
 5511 1519 C5        		.byte	-59
 5512 151a D1        		.byte	-47
 5513 151b D2        		.byte	-46
GAS LISTING /tmp/ccdhZXtX.s 			page 96


 5514 151c D3        		.byte	-45
 5515 151d E4        		.byte	-28
 5516 151e E0        		.byte	-32
 5517 151f F5        		.byte	-11
 5518 1520 DD        		.byte	-35
 5519 1521 C9        		.byte	-55
 5520 1522 A7        		.byte	-89
 5521 1523 A0        		.byte	-96
 5522 1524 B1        		.byte	-79
 5523 1525 BD        		.byte	-67
 5524 1526 D4        		.byte	-44
 5525 1527 CD        		.byte	-51
 5526 1528 D2        		.byte	-46
 5527 1529 C3        		.byte	-61
 5528 152a C4        		.byte	-60
 5529 152b D7        		.byte	-41
 5530 152c C8        		.byte	-56
 5531 152d D1        		.byte	-47
 5532 152e D1        		.byte	-47
 5533 152f CE        		.byte	-50
 5534 1530 C1        		.byte	-63
 5535 1531 C2        		.byte	-62
 5536 1532 B4        		.byte	-76
 5537 1533 AE        		.byte	-82
 5538 1534 C8        		.byte	-56
 5539 1535 C9        		.byte	-55
 5540 1536 D0        		.byte	-48
 5541 1537 C0        		.byte	-64
 5542 1538 B7        		.byte	-73
 5543 1539 A1        		.byte	-95
 5544 153a 9B        		.byte	-101
 5545 153b A5        		.byte	-91
 5546 153c B6        		.byte	-74
 5547 153d CD        		.byte	-51
 5548 153e CD        		.byte	-51
 5549 153f DA        		.byte	-38
 5550 1540 E0        		.byte	-32
 5551 1541 EC        		.byte	-20
 5552 1542 EE        		.byte	-18
 5553 1543 C9        		.byte	-55
 5554 1544 AF        		.byte	-81
 5555 1545 C2        		.byte	-62
 5556 1546 C4        		.byte	-60
 5557 1547 C6        		.byte	-58
 5558 1548 D1        		.byte	-47
 5559 1549 D1        		.byte	-47
 5560 154a DB        		.byte	-37
 5561 154b E8        		.byte	-24
 5562 154c F3        		.byte	-13
 5563 154d FD        		.byte	-3
 5564 154e 00        		.byte	0
 5565 154f FC        		.byte	-4
 5566 1550 EE        		.byte	-18
 5567 1551 E0        		.byte	-32
 5568 1552 DC        		.byte	-36
 5569 1553 FB        		.byte	-5
 5570 1554 0C        		.byte	12
GAS LISTING /tmp/ccdhZXtX.s 			page 97


 5571 1555 02        		.byte	2
 5572 1556 20        		.byte	32
 5573 1557 2B        		.byte	43
 5574 1558 33        		.byte	51
 5575 1559 36        		.byte	54
 5576 155a 1D        		.byte	29
 5577 155b 1D        		.byte	29
 5578 155c 2E        		.byte	46
 5579 155d 31        		.byte	49
 5580 155e 2D        		.byte	45
 5581 155f 3A        		.byte	58
 5582 1560 3A        		.byte	58
 5583 1561 40        		.byte	64
 5584 1562 4D        		.byte	77
 5585 1563 54        		.byte	84
 5586 1564 5B        		.byte	91
 5587 1565 48        		.byte	72
 5588 1566 10        		.byte	16
 5589 1567 FB        		.byte	-5
 5590 1568 0F        		.byte	15
 5591 1569 22        		.byte	34
 5592 156a 3A        		.byte	58
 5593 156b 4A        		.byte	74
 5594 156c 48        		.byte	72
 5595 156d 4F        		.byte	79
 5596 156e 53        		.byte	83
 5597 156f 53        		.byte	83
 5598 1570 62        		.byte	98
 5599 1571 4E        		.byte	78
 5600 1572 58        		.byte	88
 5601 1573 57        		.byte	87
 5602 1574 51        		.byte	81
 5603 1575 49        		.byte	73
 5604 1576 41        		.byte	65
 5605 1577 37        		.byte	55
 5606 1578 39        		.byte	57
 5607 1579 5A        		.byte	90
 5608 157a 44        		.byte	68
 5609 157b 3A        		.byte	58
 5610 157c 2D        		.byte	45
 5611 157d 35        		.byte	53
 5612 157e 1F        		.byte	31
 5613 157f 1D        		.byte	29
 5614 1580 2E        		.byte	46
 5615 1581 38        		.byte	56
 5616 1582 53        		.byte	83
 5617 1583 48        		.byte	72
 5618 1584 57        		.byte	87
 5619 1585 57        		.byte	87
 5620 1586 5B        		.byte	91
 5621 1587 4C        		.byte	76
 5622 1588 1E        		.byte	30
 5623 1589 1C        		.byte	28
 5624 158a 21        		.byte	33
 5625 158b 21        		.byte	33
 5626 158c 16        		.byte	22
 5627 158d 12        		.byte	18
GAS LISTING /tmp/ccdhZXtX.s 			page 98


 5628 158e 12        		.byte	18
 5629 158f 1A        		.byte	26
 5630 1590 21        		.byte	33
 5631 1591 1B        		.byte	27
 5632 1592 2D        		.byte	45
 5633 1593 18        		.byte	24
 5634 1594 14        		.byte	20
 5635 1595 EB        		.byte	-21
 5636 1596 E7        		.byte	-25
 5637 1597 F6        		.byte	-10
 5638 1598 F8        		.byte	-8
 5639 1599 04        		.byte	4
 5640 159a E8        		.byte	-24
 5641 159b 0F        		.byte	15
 5642 159c 09        		.byte	9
 5643 159d 13        		.byte	19
 5644 159e FE        		.byte	-2
 5645 159f ED        		.byte	-19
 5646 15a0 FC        		.byte	-4
 5647 15a1 F1        		.byte	-15
 5648 15a2 F2        		.byte	-14
 5649 15a3 D9        		.byte	-39
 5650 15a4 E4        		.byte	-28
 5651 15a5 E8        		.byte	-24
 5652 15a6 FB        		.byte	-5
 5653 15a7 08        		.byte	8
 5654 15a8 0B        		.byte	11
 5655 15a9 08        		.byte	8
 5656 15aa E3        		.byte	-29
 5657 15ab CF        		.byte	-49
 5658 15ac B9        		.byte	-71
 5659 15ad C0        		.byte	-64
 5660 15ae D7        		.byte	-41
 5661 15af E2        		.byte	-30
 5662 15b0 F0        		.byte	-16
 5663 15b1 F2        		.byte	-14
 5664 15b2 F6        		.byte	-10
 5665 15b3 F0        		.byte	-16
 5666 15b4 02        		.byte	2
 5667 15b5 F9        		.byte	-7
 5668 15b6 F0        		.byte	-16
 5669 15b7 EA        		.byte	-22
 5670 15b8 CB        		.byte	-53
 5671 15b9 D2        		.byte	-46
 5672 15ba D3        		.byte	-45
 5673 15bb DA        		.byte	-38
 5674 15bc C0        		.byte	-64
 5675 15bd DD        		.byte	-35
 5676 15be E2        		.byte	-30
 5677 15bf EC        		.byte	-20
 5678 15c0 E5        		.byte	-27
 5679 15c1 D1        		.byte	-47
 5680 15c2 E2        		.byte	-30
 5681 15c3 B7        		.byte	-73
 5682 15c4 C5        		.byte	-59
 5683 15c5 CD        		.byte	-51
 5684 15c6 EF        		.byte	-17
GAS LISTING /tmp/ccdhZXtX.s 			page 99


 5685 15c7 F3        		.byte	-13
 5686 15c8 F1        		.byte	-15
 5687 15c9 04        		.byte	4
 5688 15ca 07        		.byte	7
 5689 15cb 0B        		.byte	11
 5690 15cc D3        		.byte	-45
 5691 15cd B2        		.byte	-78
 5692 15ce C6        		.byte	-58
 5693 15cf D9        		.byte	-39
 5694 15d0 DA        		.byte	-38
 5695 15d1 D0        		.byte	-48
 5696 15d2 D5        		.byte	-43
 5697 15d3 D7        		.byte	-41
 5698 15d4 EB        		.byte	-21
 5699 15d5 E7        		.byte	-25
 5700 15d6 F2        		.byte	-14
 5701 15d7 F2        		.byte	-14
 5702 15d8 E0        		.byte	-32
 5703 15d9 DA        		.byte	-38
 5704 15da B4        		.byte	-76
 5705 15db C3        		.byte	-61
 5706 15dc C3        		.byte	-61
 5707 15dd D7        		.byte	-41
 5708 15de C8        		.byte	-56
 5709 15df CA        		.byte	-54
 5710 15e0 E2        		.byte	-30
 5711 15e1 E8        		.byte	-24
 5712 15e2 EB        		.byte	-21
 5713 15e3 CF        		.byte	-49
 5714 15e4 DD        		.byte	-35
 5715 15e5 DA        		.byte	-38
 5716 15e6 D6        		.byte	-42
 5717 15e7 CA        		.byte	-54
 5718 15e8 D4        		.byte	-44
 5719 15e9 E1        		.byte	-31
 5720 15ea DE        		.byte	-34
 5721 15eb F5        		.byte	-11
 5722 15ec FB        		.byte	-5
 5723 15ed 07        		.byte	7
 5724 15ee F4        		.byte	-12
 5725 15ef D7        		.byte	-41
 5726 15f0 C5        		.byte	-59
 5727 15f1 BE        		.byte	-66
 5728 15f2 D5        		.byte	-43
 5729 15f3 DA        		.byte	-38
 5730 15f4 EF        		.byte	-17
 5731 15f5 E7        		.byte	-25
 5732 15f6 EF        		.byte	-17
 5733 15f7 05        		.byte	5
 5734 15f8 0B        		.byte	11
 5735 15f9 20        		.byte	32
 5736 15fa 0F        		.byte	15
 5737 15fb 11        		.byte	17
 5738 15fc 0C        		.byte	12
 5739 15fd 0D        		.byte	13
 5740 15fe 07        		.byte	7
 5741 15ff 0B        		.byte	11
GAS LISTING /tmp/ccdhZXtX.s 			page 100


 5742 1600 FD        		.byte	-3
 5743 1601 EE        		.byte	-18
 5744 1602 14        		.byte	20
 5745 1603 14        		.byte	20
 5746 1604 1C        		.byte	28
 5747 1605 04        		.byte	4
 5748 1606 0A        		.byte	10
 5749 1607 FF        		.byte	-1
 5750 1608 E9        		.byte	-23
 5751 1609 E2        		.byte	-30
 5752 160a E4        		.byte	-28
 5753 160b 18        		.byte	24
 5754 160c 20        		.byte	32
 5755 160d 2E        		.byte	46
 5756 160e 33        		.byte	51
 5757 160f 3D        		.byte	61
 5758 1610 37        		.byte	55
 5759 1611 12        		.byte	18
 5760 1612 00        		.byte	0
 5761 1613 10        		.byte	16
 5762 1614 1B        		.byte	27
 5763 1615 16        		.byte	22
 5764 1616 14        		.byte	20
 5765 1617 1B        		.byte	27
 5766 1618 26        		.byte	38
 5767 1619 26        		.byte	38
 5768 161a 2E        		.byte	46
 5769 161b 41        		.byte	65
 5770 161c 34        		.byte	52
 5771 161d 2F        		.byte	47
 5772 161e FB        		.byte	-5
 5773 161f EE        		.byte	-18
 5774 1620 0F        		.byte	15
 5775 1621 20        		.byte	32
 5776 1622 2D        		.byte	45
 5777 1623 12        		.byte	18
 5778 1624 29        		.byte	41
 5779 1625 32        		.byte	50
 5780 1626 40        		.byte	64
 5781 1627 2F        		.byte	47
 5782 1628 1F        		.byte	31
 5783 1629 2D        		.byte	45
 5784 162a 23        		.byte	35
 5785 162b 1D        		.byte	29
 5786 162c 1E        		.byte	30
 5787 162d 24        		.byte	36
 5788 162e 24        		.byte	36
 5789 162f 2A        		.byte	42
 5790 1630 2E        		.byte	46
 5791 1631 33        		.byte	51
 5792 1632 34        		.byte	52
 5793 1633 17        		.byte	23
 5794 1634 FD        		.byte	-3
 5795 1635 F5        		.byte	-11
 5796 1636 F1        		.byte	-15
 5797 1637 FD        		.byte	-3
 5798 1638 FB        		.byte	-5
GAS LISTING /tmp/ccdhZXtX.s 			page 101


 5799 1639 11        		.byte	17
 5800 163a 12        		.byte	18
 5801 163b 1C        		.byte	28
 5802 163c 24        		.byte	36
 5803 163d 2F        		.byte	47
 5804 163e 37        		.byte	55
 5805 163f 24        		.byte	36
 5806 1640 26        		.byte	38
 5807 1641 1F        		.byte	31
 5808 1642 1E        		.byte	30
 5809 1643 16        		.byte	22
 5810 1644 16        		.byte	22
 5811 1645 FB        		.byte	-5
 5812 1646 FE        		.byte	-2
 5813 1647 05        		.byte	5
 5814 1648 15        		.byte	21
 5815 1649 20        		.byte	32
 5816 164a 10        		.byte	16
 5817 164b 19        		.byte	25
 5818 164c F9        		.byte	-7
 5819 164d F0        		.byte	-16
 5820 164e F7        		.byte	-9
 5821 164f 15        		.byte	21
 5822 1650 2C        		.byte	44
 5823 1651 2A        		.byte	42
 5824 1652 30        		.byte	48
 5825 1653 3C        		.byte	60
 5826 1654 40        		.byte	64
 5827 1655 33        		.byte	51
 5828 1656 FE        		.byte	-2
 5829 1657 FC        		.byte	-4
 5830 1658 0D        		.byte	13
 5831 1659 08        		.byte	8
 5832 165a FF        		.byte	-1
 5833 165b DC        		.byte	-36
 5834 165c E6        		.byte	-26
 5835 165d FE        		.byte	-2
 5836 165e 0C        		.byte	12
 5837 165f 17        		.byte	23
 5838 1660 25        		.byte	37
 5839 1661 0E        		.byte	14
 5840 1662 16        		.byte	22
 5841 1663 EB        		.byte	-21
 5842 1664 E6        		.byte	-26
 5843 1665 F5        		.byte	-11
 5844 1666 00        		.byte	0
 5845 1667 01        		.byte	1
 5846 1668 ED        		.byte	-19
 5847 1669 14        		.byte	20
 5848 166a 14        		.byte	20
 5849 166b 17        		.byte	23
 5850 166c 06        		.byte	6
 5851 166d FC        		.byte	-4
 5852 166e 00        		.byte	0
 5853 166f E5        		.byte	-27
 5854 1670 C4        		.byte	-60
 5855 1671 DF        		.byte	-33
GAS LISTING /tmp/ccdhZXtX.s 			page 102


 5856 1672 EC        		.byte	-20
 5857 1673 F6        		.byte	-10
 5858 1674 F9        		.byte	-7
 5859 1675 00        		.byte	0
 5860 1676 07        		.byte	7
 5861 1677 01        		.byte	1
 5862 1678 DA        		.byte	-38
 5863 1679 C2        		.byte	-62
 5864 167a AC        		.byte	-84
 5865 167b AA        		.byte	-86
 5866 167c B6        		.byte	-74
 5867 167d B8        		.byte	-72
 5868 167e DF        		.byte	-33
 5869 167f C1        		.byte	-63
 5870 1680 DB        		.byte	-37
 5871 1681 D3        		.byte	-45
 5872 1682 E1        		.byte	-31
 5873 1683 DE        		.byte	-34
 5874 1684 CE        		.byte	-50
 5875 1685 CA        		.byte	-54
 5876 1686 C8        		.byte	-56
 5877 1687 D1        		.byte	-47
 5878 1688 C1        		.byte	-63
 5879 1689 C2        		.byte	-62
 5880 168a A0        		.byte	-96
 5881 168b C0        		.byte	-64
 5882 168c C8        		.byte	-56
 5883 168d D7        		.byte	-41
 5884 168e C5        		.byte	-59
 5885 168f C3        		.byte	-61
 5886 1690 C7        		.byte	-57
 5887 1691 A2        		.byte	-94
 5888 1692 A6        		.byte	-90
 5889 1693 B7        		.byte	-73
 5890 1694 D5        		.byte	-43
 5891 1695 F2        		.byte	-14
 5892 1696 E9        		.byte	-23
 5893 1697 FA        		.byte	-6
 5894 1698 F4        		.byte	-12
 5895 1699 E3        		.byte	-29
 5896 169a EA        		.byte	-22
 5897 169b C3        		.byte	-61
 5898 169c E0        		.byte	-32
 5899 169d E5        		.byte	-27
 5900 169e E9        		.byte	-23
 5901 169f DA        		.byte	-38
 5902 16a0 E4        		.byte	-28
 5903 16a1 E7        		.byte	-25
 5904 16a2 00        		.byte	0
 5905 16a3 02        		.byte	2
 5906 16a4 14        		.byte	20
 5907 16a5 1D        		.byte	29
 5908 16a6 07        		.byte	7
 5909 16a7 14        		.byte	20
 5910 16a8 D0        		.byte	-48
 5911 16a9 F2        		.byte	-14
 5912 16aa F1        		.byte	-15
GAS LISTING /tmp/ccdhZXtX.s 			page 103


 5913 16ab 15        		.byte	21
 5914 16ac F0        		.byte	-16
 5915 16ad DA        		.byte	-38
 5916 16ae 0F        		.byte	15
 5917 16af 1D        		.byte	29
 5918 16b0 22        		.byte	34
 5919 16b1 13        		.byte	19
 5920 16b2 19        		.byte	25
 5921 16b3 13        		.byte	19
 5922 16b4 11        		.byte	17
 5923 16b5 0F        		.byte	15
 5924 16b6 23        		.byte	35
 5925 16b7 22        		.byte	34
 5926 16b8 32        		.byte	50
 5927 16b9 34        		.byte	52
 5928 16ba 41        		.byte	65
 5929 16bb 50        		.byte	80
 5930 16bc 3B        		.byte	59
 5931 16bd 0D        		.byte	13
 5932 16be 0F        		.byte	15
 5933 16bf F7        		.byte	-9
 5934 16c0 09        		.byte	9
 5935 16c1 E9        		.byte	-23
 5936 16c2 FC        		.byte	-4
 5937 16c3 28        		.byte	40
 5938 16c4 24        		.byte	36
 5939 16c5 46        		.byte	70
 5940 16c6 3B        		.byte	59
 5941 16c7 53        		.byte	83
 5942 16c8 37        		.byte	55
 5943 16c9 41        		.byte	65
 5944 16ca 2E        		.byte	46
 5945 16cb 34        		.byte	52
 5946 16cc 21        		.byte	33
 5947 16cd 25        		.byte	37
 5948 16ce 0D        		.byte	13
 5949 16cf 08        		.byte	8
 5950 16d0 2E        		.byte	46
 5951 16d1 28        		.byte	40
 5952 16d2 32        		.byte	50
 5953 16d3 12        		.byte	18
 5954 16d4 1D        		.byte	29
 5955 16d5 03        		.byte	3
 5956 16d6 E7        		.byte	-25
 5957 16d7 E6        		.byte	-26
 5958 16d8 0C        		.byte	12
 5959 16d9 23        		.byte	35
 5960 16da 33        		.byte	51
 5961 16db 25        		.byte	37
 5962 16dc 2F        		.byte	47
 5963 16dd 2D        		.byte	45
 5964 16de 32        		.byte	50
 5965 16df 15        		.byte	21
 5966 16e0 F3        		.byte	-13
 5967 16e1 15        		.byte	21
 5968 16e2 11        		.byte	17
 5969 16e3 0A        		.byte	10
GAS LISTING /tmp/ccdhZXtX.s 			page 104


 5970 16e4 01        		.byte	1
 5971 16e5 0E        		.byte	14
 5972 16e6 0B        		.byte	11
 5973 16e7 25        		.byte	37
 5974 16e8 24        		.byte	36
 5975 16e9 45        		.byte	69
 5976 16ea 0A        		.byte	10
 5977 16eb 10        		.byte	16
 5978 16ec 12        		.byte	18
 5979 16ed F0        		.byte	-16
 5980 16ee 0B        		.byte	11
 5981 16ef 0E        		.byte	14
 5982 16f0 21        		.byte	33
 5983 16f1 FC        		.byte	-4
 5984 16f2 20        		.byte	32
 5985 16f3 2C        		.byte	44
 5986 16f4 35        		.byte	53
 5987 16f5 20        		.byte	32
 5988 16f6 20        		.byte	32
 5989 16f7 17        		.byte	23
 5990 16f8 12        		.byte	18
 5991 16f9 0D        		.byte	13
 5992 16fa 08        		.byte	8
 5993 16fb 0D        		.byte	13
 5994 16fc 0D        		.byte	13
 5995 16fd 1A        		.byte	26
 5996 16fe FC        		.byte	-4
 5997 16ff FA        		.byte	-6
 5998 1700 14        		.byte	20
 5999 1701 FB        		.byte	-5
 6000 1702 D8        		.byte	-40
 6001 1703 DC        		.byte	-36
 6002 1704 C2        		.byte	-62
 6003 1705 D0        		.byte	-48
 6004 1706 CE        		.byte	-50
 6005 1707 F6        		.byte	-10
 6006 1708 F6        		.byte	-10
 6007 1709 FC        		.byte	-4
 6008 170a 0C        		.byte	12
 6009 170b 16        		.byte	22
 6010 170c 14        		.byte	20
 6011 170d FF        		.byte	-1
 6012 170e FD        		.byte	-3
 6013 170f EA        		.byte	-22
 6014 1710 EF        		.byte	-17
 6015 1711 E4        		.byte	-28
 6016 1712 E0        		.byte	-32
 6017 1713 A2        		.byte	-94
 6018 1714 BD        		.byte	-67
 6019 1715 DF        		.byte	-33
 6020 1716 EA        		.byte	-22
 6021 1717 E6        		.byte	-26
 6022 1718 D3        		.byte	-45
 6023 1719 D2        		.byte	-46
 6024 171a B9        		.byte	-71
 6025 171b A8        		.byte	-88
 6026 171c AB        		.byte	-85
GAS LISTING /tmp/ccdhZXtX.s 			page 105


 6027 171d C1        		.byte	-63
 6028 171e D1        		.byte	-47
 6029 171f DB        		.byte	-37
 6030 1720 D5        		.byte	-43
 6031 1721 EC        		.byte	-20
 6032 1722 E0        		.byte	-32
 6033 1723 D9        		.byte	-39
 6034 1724 AC        		.byte	-84
 6035 1725 B1        		.byte	-79
 6036 1726 BD        		.byte	-67
 6037 1727 B8        		.byte	-72
 6038 1728 AD        		.byte	-83
 6039 1729 B0        		.byte	-80
 6040 172a C0        		.byte	-64
 6041 172b C0        		.byte	-64
 6042 172c D5        		.byte	-43
 6043 172d D4        		.byte	-44
 6044 172e E0        		.byte	-32
 6045 172f C8        		.byte	-56
 6046 1730 DD        		.byte	-35
 6047 1731 B6        		.byte	-74
 6048 1732 AB        		.byte	-85
 6049 1733 BE        		.byte	-66
 6050 1734 D4        		.byte	-44
 6051 1735 D1        		.byte	-47
 6052 1736 CC        		.byte	-52
 6053 1737 ED        		.byte	-19
 6054 1738 F7        		.byte	-9
 6055 1739 06        		.byte	6
 6056 173a FE        		.byte	-2
 6057 173b F2        		.byte	-14
 6058 173c D1        		.byte	-47
 6059 173d E8        		.byte	-24
 6060 173e F1        		.byte	-15
 6061 173f FB        		.byte	-5
 6062 1740 07        		.byte	7
 6063 1741 13        		.byte	19
 6064 1742 16        		.byte	22
 6065 1743 24        		.byte	36
 6066 1744 37        		.byte	55
 6067 1745 35        		.byte	53
 6068 1746 11        		.byte	17
 6069 1747 FF        		.byte	-1
 6070 1748 02        		.byte	2
 6071 1749 F2        		.byte	-14
 6072 174a 03        		.byte	3
 6073 174b 11        		.byte	17
 6074 174c 28        		.byte	40
 6075 174d 26        		.byte	38
 6076 174e 41        		.byte	65
 6077 174f 4D        		.byte	77
 6078 1750 35        		.byte	53
 6079 1751 2B        		.byte	43
 6080 1752 3B        		.byte	59
 6081 1753 39        		.byte	57
 6082 1754 3D        		.byte	61
 6083 1755 35        		.byte	53
GAS LISTING /tmp/ccdhZXtX.s 			page 106


 6084 1756 2E        		.byte	46
 6085 1757 26        		.byte	38
 6086 1758 0A        		.byte	10
 6087 1759 36        		.byte	54
 6088 175a 46        		.byte	70
 6089 175b 53        		.byte	83
 6090 175c 4C        		.byte	76
 6091 175d 3F        		.byte	63
 6092 175e 40        		.byte	64
 6093 175f 21        		.byte	33
 6094 1760 11        		.byte	17
 6095 1761 23        		.byte	35
 6096 1762 3F        		.byte	63
 6097 1763 55        		.byte	85
 6098 1764 37        		.byte	55
 6099 1765 33        		.byte	51
 6100 1766 4D        		.byte	77
 6101 1767 53        		.byte	83
 6102 1768 49        		.byte	73
 6103 1769 22        		.byte	34
 6104 176a 2C        		.byte	44
 6105 176b 28        		.byte	40
 6106 176c 2B        		.byte	43
 6107 176d 1D        		.byte	29
 6108 176e 1F        		.byte	31
 6109 176f 1F        		.byte	31
 6110 1770 2F        		.byte	47
 6111 1771 3E        		.byte	62
 6112 1772 4A        		.byte	74
 6113 1773 45        		.byte	69
 6114 1774 30        		.byte	48
 6115 1775 29        		.byte	41
 6116 1776 FC        		.byte	-4
 6117 1777 F6        		.byte	-10
 6118 1778 FB        		.byte	-5
 6119 1779 14        		.byte	20
 6120 177a F1        		.byte	-15
 6121 177b 06        		.byte	6
 6122 177c 1E        		.byte	30
 6123 177d 26        		.byte	38
 6124 177e 1F        		.byte	31
 6125 177f 03        		.byte	3
 6126 1780 FA        		.byte	-6
 6127 1781 F5        		.byte	-11
 6128 1782 FA        		.byte	-6
 6129 1783 F4        		.byte	-12
 6130 1784 FB        		.byte	-5
 6131 1785 00        		.byte	0
 6132 1786 06        		.byte	6
 6133 1787 01        		.byte	1
 6134 1788 16        		.byte	22
 6135 1789 0B        		.byte	11
 6136 178a 09        		.byte	9
 6137 178b DC        		.byte	-36
 6138 178c E2        		.byte	-30
 6139 178d B8        		.byte	-72
 6140 178e A8        		.byte	-88
GAS LISTING /tmp/ccdhZXtX.s 			page 107


 6141 178f C7        		.byte	-57
 6142 1790 D8        		.byte	-40
 6143 1791 F3        		.byte	-13
 6144 1792 F0        		.byte	-16
 6145 1793 0C        		.byte	12
 6146 1794 0A        		.byte	10
 6147 1795 11        		.byte	17
 6148 1796 02        		.byte	2
 6149 1797 00        		.byte	0
 6150 1798 EE        		.byte	-18
 6151 1799 EF        		.byte	-17
 6152 179a E0        		.byte	-32
 6153 179b E0        		.byte	-32
 6154 179c C6        		.byte	-58
 6155 179d BF        		.byte	-65
 6156 179e DE        		.byte	-34
 6157 179f E8        		.byte	-24
 6158 17a0 FC        		.byte	-4
 6159 17a1 CF        		.byte	-49
 6160 17a2 B6        		.byte	-74
 6161 17a3 BB        		.byte	-69
 6162 17a4 A7        		.byte	-89
 6163 17a5 B0        		.byte	-80
 6164 17a6 D3        		.byte	-45
 6165 17a7 E0        		.byte	-32
 6166 17a8 F2        		.byte	-14
 6167 17a9 E6        		.byte	-26
 6168 17aa 09        		.byte	9
 6169 17ab 03        		.byte	3
 6170 17ac 0A        		.byte	10
 6171 17ad E3        		.byte	-29
 6172 17ae CE        		.byte	-50
 6173 17af E4        		.byte	-28
 6174 17b0 D4        		.byte	-44
 6175 17b1 DA        		.byte	-38
 6176 17b2 C7        		.byte	-57
 6177 17b3 DB        		.byte	-37
 6178 17b4 DA        		.byte	-38
 6179 17b5 F0        		.byte	-16
 6180 17b6 DD        		.byte	-35
 6181 17b7 ED        		.byte	-19
 6182 17b8 EA        		.byte	-22
 6183 17b9 F9        		.byte	-7
 6184 17ba EE        		.byte	-18
 6185 17bb C1        		.byte	-63
 6186 17bc C2        		.byte	-62
 6187 17bd D8        		.byte	-40
 6188 17be E9        		.byte	-23
 6189 17bf CC        		.byte	-52
 6190 17c0 E8        		.byte	-24
 6191 17c1 F9        		.byte	-7
 6192 17c2 04        		.byte	4
 6193 17c3 F3        		.byte	-13
 6194 17c4 EC        		.byte	-20
 6195 17c5 DC        		.byte	-36
 6196 17c6 DC        		.byte	-36
 6197 17c7 CD        		.byte	-51
GAS LISTING /tmp/ccdhZXtX.s 			page 108


 6198 17c8 D9        		.byte	-39
 6199 17c9 D4        		.byte	-44
 6200 17ca E0        		.byte	-32
 6201 17cb E4        		.byte	-28
 6202 17cc EF        		.byte	-17
 6203 17cd 00        		.byte	0
 6204 17ce 0B        		.byte	11
 6205 17cf F1        		.byte	-15
 6206 17d0 C8        		.byte	-56
 6207 17d1 CC        		.byte	-52
 6208 17d2 A2        		.byte	-94
 6209 17d3 C5        		.byte	-59
 6210 17d4 C9        		.byte	-55
 6211 17d5 F1        		.byte	-15
 6212 17d6 F8        		.byte	-8
 6213 17d7 06        		.byte	6
 6214 17d8 19        		.byte	25
 6215 17d9 2C        		.byte	44
 6216 17da 20        		.byte	32
 6217 17db 1C        		.byte	28
 6218 17dc 13        		.byte	19
 6219 17dd 12        		.byte	18
 6220 17de 14        		.byte	20
 6221 17df E8        		.byte	-24
 6222 17e0 F8        		.byte	-8
 6223 17e1 DA        		.byte	-38
 6224 17e2 01        		.byte	1
 6225 17e3 20        		.byte	32
 6226 17e4 3E        		.byte	62
 6227 17e5 32        		.byte	50
 6228 17e6 17        		.byte	23
 6229 17e7 24        		.byte	36
 6230 17e8 18        		.byte	24
 6231 17e9 F0        		.byte	-16
 6232 17ea 0B        		.byte	11
 6233 17eb 22        		.byte	34
 6234 17ec 3E        		.byte	62
 6235 17ed 3F        		.byte	63
 6236 17ee 3F        		.byte	63
 6237 17ef 5B        		.byte	91
 6238 17f0 48        		.byte	72
 6239 17f1 4D        		.byte	77
 6240 17f2 1A        		.byte	26
 6241 17f3 03        		.byte	3
 6242 17f4 F9        		.byte	-7
 6243 17f5 12        		.byte	18
 6244 17f6 0B        		.byte	11
 6245 17f7 1C        		.byte	28
 6246 17f8 1B        		.byte	27
 6247 17f9 28        		.byte	40
 6248 17fa 39        		.byte	57
 6249 17fb 49        		.byte	73
 6250 17fc 55        		.byte	85
 6251 17fd 3E        		.byte	62
 6252 17fe 4A        		.byte	74
 6253 17ff 23        		.byte	35
 6254 1800 0D        		.byte	13
GAS LISTING /tmp/ccdhZXtX.s 			page 109


 6255 1801 0C        		.byte	12
 6256 1802 30        		.byte	48
 6257 1803 13        		.byte	19
 6258 1804 22        		.byte	34
 6259 1805 34        		.byte	52
 6260 1806 4E        		.byte	78
 6261 1807 39        		.byte	57
 6262 1808 0C        		.byte	12
 6263 1809 19        		.byte	25
 6264 180a 12        		.byte	18
 6265 180b 1E        		.byte	30
 6266 180c 1D        		.byte	29
 6267 180d 1D        		.byte	29
 6268 180e 18        		.byte	24
 6269 180f 28        		.byte	40
 6270 1810 23        		.byte	35
 6271 1811 3C        		.byte	60
 6272 1812 35        		.byte	53
 6273 1813 3A        		.byte	58
 6274 1814 05        		.byte	5
 6275 1815 FD        		.byte	-3
 6276 1816 F3        		.byte	-13
 6277 1817 CB        		.byte	-53
 6278 1818 E4        		.byte	-28
 6279 1819 E9        		.byte	-23
 6280 181a 03        		.byte	3
 6281 181b FE        		.byte	-2
 6282 181c 10        		.byte	16
 6283 181d 1F        		.byte	31
 6284 181e 21        		.byte	33
 6285 181f 15        		.byte	21
 6286 1820 15        		.byte	21
 6287 1821 F8        		.byte	-8
 6288 1822 F9        		.byte	-7
 6289 1823 E0        		.byte	-32
 6290 1824 E5        		.byte	-27
 6291 1825 D5        		.byte	-43
 6292 1826 C3        		.byte	-61
 6293 1827 E8        		.byte	-24
 6294 1828 F9        		.byte	-7
 6295 1829 06        		.byte	6
 6296 182a F3        		.byte	-13
 6297 182b EC        		.byte	-20
 6298 182c E5        		.byte	-27
 6299 182d D3        		.byte	-45
 6300 182e AD        		.byte	-83
 6301 182f DD        		.byte	-35
 6302 1830 DA        		.byte	-38
 6303 1831 E0        		.byte	-32
 6304 1832 E7        		.byte	-25
 6305 1833 FE        		.byte	-2
 6306 1834 1C        		.byte	28
 6307 1835 17        		.byte	23
 6308 1836 06        		.byte	6
 6309 1837 CD        		.byte	-51
 6310 1838 DB        		.byte	-37
 6311 1839 E3        		.byte	-29
GAS LISTING /tmp/ccdhZXtX.s 			page 110


 6312 183a DE        		.byte	-34
 6313 183b D5        		.byte	-43
 6314 183c DD        		.byte	-35
 6315 183d E7        		.byte	-25
 6316 183e F5        		.byte	-11
 6317 183f 01        		.byte	1
 6318 1840 15        		.byte	21
 6319 1841 0A        		.byte	10
 6320 1842 FE        		.byte	-2
 6321 1843 FB        		.byte	-5
 6322 1844 D6        		.byte	-42
 6323 1845 A8        		.byte	-88
 6324 1846 C0        		.byte	-64
 6325 1847 D4        		.byte	-44
 6326 1848 CF        		.byte	-49
 6327 1849 F0        		.byte	-16
 6328 184a FE        		.byte	-2
 6329 184b 14        		.byte	20
 6330 184c FB        		.byte	-5
 6331 184d F9        		.byte	-7
 6332 184e F7        		.byte	-9
 6333 184f F8        		.byte	-8
 6334 1850 F5        		.byte	-11
 6335 1851 F8        		.byte	-8
 6336 1852 F7        		.byte	-9
 6337 1853 FD        		.byte	-3
 6338 1854 FC        		.byte	-4
 6339 1855 03        		.byte	3
 6340 1856 20        		.byte	32
 6341 1857 14        		.byte	20
 6342 1858 13        		.byte	19
 6343 1859 CA        		.byte	-54
 6344 185a C9        		.byte	-55
 6345 185b C5        		.byte	-59
 6346 185c BD        		.byte	-67
 6347 185d D7        		.byte	-41
 6348 185e E5        		.byte	-27
 6349 185f FE        		.byte	-2
 6350 1860 04        		.byte	4
 6351 1861 19        		.byte	25
 6352 1862 26        		.byte	38
 6353 1863 21        		.byte	33
 6354 1864 15        		.byte	21
 6355 1865 06        		.byte	6
 6356 1866 F0        		.byte	-16
 6357 1867 F4        		.byte	-12
 6358 1868 DF        		.byte	-33
 6359 1869 D9        		.byte	-39
 6360 186a C1        		.byte	-63
 6361 186b BB        		.byte	-69
 6362 186c DD        		.byte	-35
 6363 186d F9        		.byte	-7
 6364 186e F5        		.byte	-11
 6365 186f E8        		.byte	-24
 6366 1870 E3        		.byte	-29
 6367 1871 E8        		.byte	-24
 6368 1872 C5        		.byte	-59
GAS LISTING /tmp/ccdhZXtX.s 			page 111


 6369 1873 B2        		.byte	-78
 6370 1874 D8        		.byte	-40
 6371 1875 E0        		.byte	-32
 6372 1876 06        		.byte	6
 6373 1877 FA        		.byte	-6
 6374 1878 1F        		.byte	31
 6375 1879 2A        		.byte	42
 6376 187a 21        		.byte	33
 6377 187b FA        		.byte	-6
 6378 187c E5        		.byte	-27
 6379 187d FB        		.byte	-5
 6380 187e F7        		.byte	-9
 6381 187f F3        		.byte	-13
 6382 1880 E1        		.byte	-31
 6383 1881 09        		.byte	9
 6384 1882 EA        		.byte	-22
 6385 1883 FC        		.byte	-4
 6386 1884 22        		.byte	34
 6387 1885 37        		.byte	55
 6388 1886 3B        		.byte	59
 6389 1887 35        		.byte	53
 6390 1888 25        		.byte	37
 6391 1889 F5        		.byte	-11
 6392 188a F0        		.byte	-16
 6393 188b 0E        		.byte	14
 6394 188c 11        		.byte	17
 6395 188d 0C        		.byte	12
 6396 188e 34        		.byte	52
 6397 188f 4B        		.byte	75
 6398 1890 4D        		.byte	77
 6399 1891 3A        		.byte	58
 6400 1892 36        		.byte	54
 6401 1893 2F        		.byte	47
 6402 1894 2B        		.byte	43
 6403 1895 24        		.byte	36
 6404 1896 13        		.byte	19
 6405 1897 FA        		.byte	-6
 6406 1898 17        		.byte	23
 6407 1899 17        		.byte	23
 6408 189a 3A        		.byte	58
 6409 189b 54        		.byte	84
 6410 189c 4B        		.byte	75
 6411 189d 2F        		.byte	47
 6412 189e FF        		.byte	-1
 6413 189f 19        		.byte	25
 6414 18a0 F2        		.byte	-14
 6415 18a1 F1        		.byte	-15
 6416 18a2 0C        		.byte	12
 6417 18a3 25        		.byte	37
 6418 18a4 2B        		.byte	43
 6419 18a5 41        		.byte	65
 6420 18a6 4E        		.byte	78
 6421 18a7 5C        		.byte	92
 6422 18a8 55        		.byte	85
 6423 18a9 46        		.byte	70
 6424 18aa 36        		.byte	54
 6425 18ab 04        		.byte	4
GAS LISTING /tmp/ccdhZXtX.s 			page 112


 6426 18ac 08        		.byte	8
 6427 18ad 05        		.byte	5
 6428 18ae 03        		.byte	3
 6429 18af EC        		.byte	-20
 6430 18b0 FD        		.byte	-3
 6431 18b1 25        		.byte	37
 6432 18b2 2E        		.byte	46
 6433 18b3 27        		.byte	39
 6434 18b4 1B        		.byte	27
 6435 18b5 14        		.byte	20
 6436 18b6 07        		.byte	7
 6437 18b7 DF        		.byte	-33
 6438 18b8 E5        		.byte	-27
 6439 18b9 00        		.byte	0
 6440 18ba 12        		.byte	18
 6441 18bb 14        		.byte	20
 6442 18bc 15        		.byte	21
 6443 18bd 31        		.byte	49
 6444 18be 20        		.byte	32
 6445 18bf 0F        		.byte	15
 6446 18c0 DF        		.byte	-33
 6447 18c1 DF        		.byte	-33
 6448 18c2 ED        		.byte	-19
 6449 18c3 E1        		.byte	-31
 6450 18c4 D0        		.byte	-48
 6451 18c5 CD        		.byte	-51
 6452 18c6 D1        		.byte	-47
 6453 18c7 D6        		.byte	-42
 6454 18c8 F9        		.byte	-7
 6455 18c9 08        		.byte	8
 6456 18ca 0C        		.byte	12
 6457 18cb 09        		.byte	9
 6458 18cc 01        		.byte	1
 6459 18cd DB        		.byte	-37
 6460 18ce BF        		.byte	-65
 6461 18cf BC        		.byte	-68
 6462 18d0 D9        		.byte	-39
 6463 18d1 C2        		.byte	-62
 6464 18d2 D8        		.byte	-40
 6465 18d3 FB        		.byte	-5
 6466 18d4 E4        		.byte	-28
 6467 18d5 EB        		.byte	-21
 6468 18d6 ED        		.byte	-19
 6469 18d7 F0        		.byte	-16
 6470 18d8 F3        		.byte	-13
 6471 18d9 F2        		.byte	-14
 6472 18da E3        		.byte	-29
 6473 18db DF        		.byte	-33
 6474 18dc EC        		.byte	-20
 6475 18dd F0        		.byte	-16
 6476 18de ED        		.byte	-19
 6477 18df 18        		.byte	24
 6478 18e0 1D        		.byte	29
 6479 18e1 0B        		.byte	11
 6480 18e2 DE        		.byte	-34
 6481 18e3 D7        		.byte	-41
 6482 18e4 D9        		.byte	-39
GAS LISTING /tmp/ccdhZXtX.s 			page 113


 6483 18e5 B1        		.byte	-79
 6484 18e6 B9        		.byte	-71
 6485 18e7 D1        		.byte	-47
 6486 18e8 C8        		.byte	-56
 6487 18e9 D2        		.byte	-46
 6488 18ea F6        		.byte	-10
 6489 18eb 0C        		.byte	12
 6490 18ec 21        		.byte	33
 6491 18ed 15        		.byte	21
 6492 18ee 0F        		.byte	15
 6493 18ef F3        		.byte	-13
 6494 18f0 F6        		.byte	-10
 6495 18f1 F3        		.byte	-13
 6496 18f2 F0        		.byte	-16
 6497 18f3 D6        		.byte	-42
 6498 18f4 D6        		.byte	-42
 6499 18f5 F2        		.byte	-14
 6500 18f6 0A        		.byte	10
 6501 18f7 19        		.byte	25
 6502 18f8 03        		.byte	3
 6503 18f9 06        		.byte	6
 6504 18fa 01        		.byte	1
 6505 18fb EE        		.byte	-18
 6506 18fc AE        		.byte	-82
 6507 18fd B2        		.byte	-78
 6508 18fe DC        		.byte	-36
 6509 18ff FA        		.byte	-6
 6510 1900 FC        		.byte	-4
 6511 1901 17        		.byte	23
 6512 1902 20        		.byte	32
 6513 1903 13        		.byte	19
 6514 1904 05        		.byte	5
 6515 1905 E1        		.byte	-31
 6516 1906 EC        		.byte	-20
 6517 1907 E2        		.byte	-30
 6518 1908 E7        		.byte	-25
 6519 1909 D5        		.byte	-43
 6520 190a D8        		.byte	-40
 6521 190b E9        		.byte	-23
 6522 190c FB        		.byte	-5
 6523 190d 1E        		.byte	30
 6524 190e 2A        		.byte	42
 6525 190f 21        		.byte	33
 6526 1910 12        		.byte	18
 6527 1911 0F        		.byte	15
 6528 1912 CC        		.byte	-52
 6529 1913 AB        		.byte	-85
 6530 1914 BD        		.byte	-67
 6531 1915 C7        		.byte	-57
 6532 1916 DC        		.byte	-36
 6533 1917 FE        		.byte	-2
 6534 1918 15        		.byte	21
 6535 1919 1C        		.byte	28
 6536 191a 17        		.byte	23
 6537 191b 23        		.byte	35
 6538 191c 25        		.byte	37
 6539 191d 15        		.byte	21
GAS LISTING /tmp/ccdhZXtX.s 			page 114


 6540 191e 04        		.byte	4
 6541 191f F4        		.byte	-12
 6542 1920 ED        		.byte	-19
 6543 1921 F5        		.byte	-11
 6544 1922 08        		.byte	8
 6545 1923 0D        		.byte	13
 6546 1924 10        		.byte	16
 6547 1925 0F        		.byte	15
 6548 1926 00        		.byte	0
 6549 1927 E6        		.byte	-26
 6550 1928 15        		.byte	21
 6551 1929 03        		.byte	3
 6552 192a D3        		.byte	-45
 6553 192b DC        		.byte	-36
 6554 192c F4        		.byte	-12
 6555 192d 27        		.byte	39
 6556 192e 3A        		.byte	58
 6557 192f 4A        		.byte	74
 6558 1930 69        		.byte	105
 6559 1931 58        		.byte	88
 6560 1932 49        		.byte	73
 6561 1933 3D        		.byte	61
 6562 1934 23        		.byte	35
 6563 1935 33        		.byte	51
 6564 1936 E3        		.byte	-29
 6565 1937 C8        		.byte	-56
 6566 1938 EA        		.byte	-22
 6567 1939 ED        		.byte	-19
 6568 193a F4        		.byte	-12
 6569 193b 24        		.byte	36
 6570 193c 36        		.byte	54
 6571 193d 28        		.byte	40
 6572 193e 20        		.byte	32
 6573 193f 28        		.byte	40
 6574 1940 1E        		.byte	30
 6575 1941 F1        		.byte	-15
 6576 1942 FA        		.byte	-6
 6577 1943 08        		.byte	8
 6578 1944 30        		.byte	48
 6579 1945 3F        		.byte	63
 6580 1946 5C        		.byte	92
 6581 1947 5E        		.byte	94
 6582 1948 24        		.byte	36
 6583 1949 04        		.byte	4
 6584 194a 21        		.byte	33
 6585 194b 15        		.byte	21
 6586 194c 03        		.byte	3
 6587 194d DE        		.byte	-34
 6588 194e EA        		.byte	-22
 6589 194f 0F        		.byte	15
 6590 1950 0A        		.byte	10
 6591 1951 22        		.byte	34
 6592 1952 35        		.byte	53
 6593 1953 3C        		.byte	60
 6594 1954 2B        		.byte	43
 6595 1955 1E        		.byte	30
 6596 1956 17        		.byte	23
GAS LISTING /tmp/ccdhZXtX.s 			page 115


 6597 1957 0E        		.byte	14
 6598 1958 E6        		.byte	-26
 6599 1959 EC        		.byte	-20
 6600 195a CD        		.byte	-51
 6601 195b CA        		.byte	-54
 6602 195c ED        		.byte	-19
 6603 195d 08        		.byte	8
 6604 195e 06        		.byte	6
 6605 195f 06        		.byte	6
 6606 1960 03        		.byte	3
 6607 1961 FE        		.byte	-2
 6608 1962 EA        		.byte	-22
 6609 1963 CD        		.byte	-51
 6610 1964 D7        		.byte	-41
 6611 1965 E0        		.byte	-32
 6612 1966 FB        		.byte	-5
 6613 1967 E4        		.byte	-28
 6614 1968 F8        		.byte	-8
 6615 1969 FE        		.byte	-2
 6616 196a E5        		.byte	-27
 6617 196b E8        		.byte	-24
 6618 196c DD        		.byte	-35
 6619 196d C8        		.byte	-56
 6620 196e C1        		.byte	-63
 6621 196f B8        		.byte	-72
 6622 1970 BF        		.byte	-65
 6623 1971 DA        		.byte	-38
 6624 1972 E0        		.byte	-32
 6625 1973 EC        		.byte	-20
 6626 1974 24        		.byte	36
 6627 1975 3E        		.byte	62
 6628 1976 42        		.byte	66
 6629 1977 2E        		.byte	46
 6630 1978 28        		.byte	40
 6631 1979 1A        		.byte	26
 6632 197a F3        		.byte	-13
 6633 197b DE        		.byte	-34
 6634 197c CE        		.byte	-50
 6635 197d 02        		.byte	2
 6636 197e 04        		.byte	4
 6637 197f 06        		.byte	6
 6638 1980 16        		.byte	22
 6639 1981 0D        		.byte	13
 6640 1982 10        		.byte	16
 6641 1983 18        		.byte	24
 6642 1984 25        		.byte	37
 6643 1985 01        		.byte	1
 6644 1986 0F        		.byte	15
 6645 1987 0C        		.byte	12
 6646 1988 18        		.byte	24
 6647 1989 32        		.byte	50
 6648 198a 22        		.byte	34
 6649 198b 24        		.byte	36
 6650 198c 1E        		.byte	30
 6651 198d 39        		.byte	57
 6652 198e 33        		.byte	51
 6653 198f 3E        		.byte	62
GAS LISTING /tmp/ccdhZXtX.s 			page 116


 6654 1990 20        		.byte	32
 6655 1991 E4        		.byte	-28
 6656 1992 C3        		.byte	-61
 6657 1993 DF        		.byte	-33
 6658 1994 0A        		.byte	10
 6659 1995 0D        		.byte	13
 6660 1996 2E        		.byte	46
 6661 1997 51        		.byte	81
 6662 1998 43        		.byte	67
 6663 1999 35        		.byte	53
 6664 199a 2E        		.byte	46
 6665 199b 1E        		.byte	30
 6666 199c FF        		.byte	-1
 6667 199d F6        		.byte	-10
 6668 199e FE        		.byte	-2
 6669 199f 02        		.byte	2
 6670 19a0 12        		.byte	18
 6671 19a1 19        		.byte	25
 6672 19a2 35        		.byte	53
 6673 19a3 10        		.byte	16
 6674 19a4 E3        		.byte	-29
 6675 19a5 E9        		.byte	-23
 6676 19a6 15        		.byte	21
 6677 19a7 FE        		.byte	-2
 6678 19a8 FE        		.byte	-2
 6679 19a9 DF        		.byte	-33
 6680 19aa F0        		.byte	-16
 6681 19ab 00        		.byte	0
 6682 19ac 00        		.byte	0
 6683 19ad 28        		.byte	40
 6684 19ae 14        		.byte	20
 6685 19af 12        		.byte	18
 6686 19b0 05        		.byte	5
 6687 19b1 15        		.byte	21
 6688 19b2 F5        		.byte	-11
 6689 19b3 D2        		.byte	-46
 6690 19b4 CB        		.byte	-53
 6691 19b5 CA        		.byte	-54
 6692 19b6 A9        		.byte	-87
 6693 19b7 D5        		.byte	-43
 6694 19b8 D3        		.byte	-45
 6695 19b9 EE        		.byte	-18
 6696 19ba FE        		.byte	-2
 6697 19bb F4        		.byte	-12
 6698 19bc FB        		.byte	-5
 6699 19bd D4        		.byte	-44
 6700 19be C1        		.byte	-63
 6701 19bf B1        		.byte	-79
 6702 19c0 D1        		.byte	-47
 6703 19c1 DC        		.byte	-36
 6704 19c2 E3        		.byte	-29
 6705 19c3 DE        		.byte	-34
 6706 19c4 07        		.byte	7
 6707 19c5 DE        		.byte	-34
 6708 19c6 FD        		.byte	-3
 6709 19c7 DD        		.byte	-35
 6710 19c8 BD        		.byte	-67
GAS LISTING /tmp/ccdhZXtX.s 			page 117


 6711 19c9 D3        		.byte	-45
 6712 19ca BA        		.byte	-70
 6713 19cb D6        		.byte	-42
 6714 19cc CD        		.byte	-51
 6715 19cd DD        		.byte	-35
 6716 19ce E1        		.byte	-31
 6717 19cf FC        		.byte	-4
 6718 19d0 0E        		.byte	14
 6719 19d1 10        		.byte	16
 6720 19d2 F8        		.byte	-8
 6721 19d3 04        		.byte	4
 6722 19d4 F5        		.byte	-11
 6723 19d5 E6        		.byte	-26
 6724 19d6 D2        		.byte	-46
 6725 19d7 B4        		.byte	-76
 6726 19d8 CC        		.byte	-52
 6727 19d9 DE        		.byte	-34
 6728 19da D3        		.byte	-45
 6729 19db F7        		.byte	-9
 6730 19dc FD        		.byte	-3
 6731 19dd F9        		.byte	-7
 6732 19de 03        		.byte	3
 6733 19df 04        		.byte	4
 6734 19e0 F9        		.byte	-7
 6735 19e1 E2        		.byte	-30
 6736 19e2 F7        		.byte	-9
 6737 19e3 F4        		.byte	-12
 6738 19e4 08        		.byte	8
 6739 19e5 13        		.byte	19
 6740 19e6 1F        		.byte	31
 6741 19e7 13        		.byte	19
 6742 19e8 23        		.byte	35
 6743 19e9 02        		.byte	2
 6744 19ea 17        		.byte	23
 6745 19eb 08        		.byte	8
 6746 19ec DA        		.byte	-38
 6747 19ed CF        		.byte	-49
 6748 19ee C9        		.byte	-55
 6749 19ef E2        		.byte	-30
 6750 19f0 EF        		.byte	-17
 6751 19f1 F9        		.byte	-7
 6752 19f2 FC        		.byte	-4
 6753 19f3 1C        		.byte	28
 6754 19f4 18        		.byte	24
 6755 19f5 20        		.byte	32
 6756 19f6 21        		.byte	33
 6757 19f7 0F        		.byte	15
 6758 19f8 F2        		.byte	-14
 6759 19f9 FD        		.byte	-3
 6760 19fa F4        		.byte	-12
 6761 19fb 0B        		.byte	11
 6762 19fc 0A        		.byte	10
 6763 19fd 26        		.byte	38
 6764 19fe 23        		.byte	35
 6765 19ff 0C        		.byte	12
 6766 1a00 18        		.byte	24
 6767 1a01 15        		.byte	21
GAS LISTING /tmp/ccdhZXtX.s 			page 118


 6768 1a02 06        		.byte	6
 6769 1a03 F5        		.byte	-11
 6770 1a04 F3        		.byte	-13
 6771 1a05 E2        		.byte	-30
 6772 1a06 FA        		.byte	-6
 6773 1a07 02        		.byte	2
 6774 1a08 0B        		.byte	11
 6775 1a09 1E        		.byte	30
 6776 1a0a 26        		.byte	38
 6777 1a0b 09        		.byte	9
 6778 1a0c F9        		.byte	-7
 6779 1a0d EE        		.byte	-18
 6780 1a0e F8        		.byte	-8
 6781 1a0f EC        		.byte	-20
 6782 1a10 DD        		.byte	-35
 6783 1a11 CF        		.byte	-49
 6784 1a12 DE        		.byte	-34
 6785 1a13 DE        		.byte	-34
 6786 1a14 01        		.byte	1
 6787 1a15 09        		.byte	9
 6788 1a16 09        		.byte	9
 6789 1a17 14        		.byte	20
 6790 1a18 FD        		.byte	-3
 6791 1a19 17        		.byte	23
 6792 1a1a DB        		.byte	-37
 6793 1a1b E7        		.byte	-25
 6794 1a1c E3        		.byte	-29
 6795 1a1d EB        		.byte	-21
 6796 1a1e F1        		.byte	-15
 6797 1a1f F8        		.byte	-8
 6798 1a20 19        		.byte	25
 6799 1a21 16        		.byte	22
 6800 1a22 01        		.byte	1
 6801 1a23 E5        		.byte	-27
 6802 1a24 EF        		.byte	-17
 6803 1a25 F0        		.byte	-16
 6804 1a26 E5        		.byte	-27
 6805 1a27 D6        		.byte	-42
 6806 1a28 F2        		.byte	-14
 6807 1a29 0A        		.byte	10
 6808 1a2a 2B        		.byte	43
 6809 1a2b 45        		.byte	69
 6810 1a2c 4F        		.byte	79
 6811 1a2d 45        		.byte	69
 6812 1a2e 45        		.byte	69
 6813 1a2f 3B        		.byte	59
 6814 1a30 1F        		.byte	31
 6815 1a31 13        		.byte	19
 6816 1a32 F2        		.byte	-14
 6817 1a33 FC        		.byte	-4
 6818 1a34 0C        		.byte	12
 6819 1a35 08        		.byte	8
 6820 1a36 20        		.byte	32
 6821 1a37 37        		.byte	55
 6822 1a38 41        		.byte	65
 6823 1a39 32        		.byte	50
 6824 1a3a 43        		.byte	67
GAS LISTING /tmp/ccdhZXtX.s 			page 119


 6825 1a3b 4C        		.byte	76
 6826 1a3c 29        		.byte	41
 6827 1a3d 24        		.byte	36
 6828 1a3e 21        		.byte	33
 6829 1a3f 2B        		.byte	43
 6830 1a40 3D        		.byte	61
 6831 1a41 3A        		.byte	58
 6832 1a42 35        		.byte	53
 6833 1a43 3B        		.byte	59
 6834 1a44 33        		.byte	51
 6835 1a45 4C        		.byte	76
 6836 1a46 48        		.byte	72
 6837 1a47 19        		.byte	25
 6838 1a48 01        		.byte	1
 6839 1a49 FD        		.byte	-3
 6840 1a4a FE        		.byte	-2
 6841 1a4b 1D        		.byte	29
 6842 1a4c 2B        		.byte	43
 6843 1a4d 44        		.byte	68
 6844 1a4e 5A        		.byte	90
 6845 1a4f 43        		.byte	67
 6846 1a50 4C        		.byte	76
 6847 1a51 3E        		.byte	62
 6848 1a52 42        		.byte	66
 6849 1a53 18        		.byte	24
 6850 1a54 00        		.byte	0
 6851 1a55 0D        		.byte	13
 6852 1a56 0C        		.byte	12
 6853 1a57 1B        		.byte	27
 6854 1a58 28        		.byte	40
 6855 1a59 19        		.byte	25
 6856 1a5a 18        		.byte	24
 6857 1a5b 1F        		.byte	31
 6858 1a5c 1E        		.byte	30
 6859 1a5d 29        		.byte	41
 6860 1a5e F8        		.byte	-8
 6861 1a5f EF        		.byte	-17
 6862 1a60 DE        		.byte	-34
 6863 1a61 E5        		.byte	-27
 6864 1a62 13        		.byte	19
 6865 1a63 04        		.byte	4
 6866 1a64 21        		.byte	33
 6867 1a65 2D        		.byte	45
 6868 1a66 12        		.byte	18
 6869 1a67 07        		.byte	7
 6870 1a68 01        		.byte	1
 6871 1a69 FC        		.byte	-4
 6872 1a6a EC        		.byte	-20
 6873 1a6b CA        		.byte	-54
 6874 1a6c BB        		.byte	-69
 6875 1a6d E2        		.byte	-30
 6876 1a6e E6        		.byte	-26
 6877 1a6f F1        		.byte	-15
 6878 1a70 02        		.byte	2
 6879 1a71 06        		.byte	6
 6880 1a72 0E        		.byte	14
 6881 1a73 04        		.byte	4
GAS LISTING /tmp/ccdhZXtX.s 			page 120


 6882 1a74 FF        		.byte	-1
 6883 1a75 E1        		.byte	-31
 6884 1a76 C8        		.byte	-56
 6885 1a77 D1        		.byte	-47
 6886 1a78 CC        		.byte	-52
 6887 1a79 D6        		.byte	-42
 6888 1a7a D8        		.byte	-40
 6889 1a7b D2        		.byte	-46
 6890 1a7c E8        		.byte	-24
 6891 1a7d D8        		.byte	-40
 6892 1a7e C3        		.byte	-61
 6893 1a7f D5        		.byte	-43
 6894 1a80 D8        		.byte	-40
 6895 1a81 C8        		.byte	-56
 6896 1a82 C6        		.byte	-58
 6897 1a83 CD        		.byte	-51
 6898 1a84 EE        		.byte	-18
 6899 1a85 F1        		.byte	-15
 6900 1a86 02        		.byte	2
 6901 1a87 08        		.byte	8
 6902 1a88 0B        		.byte	11
 6903 1a89 16        		.byte	22
 6904 1a8a 01        		.byte	1
 6905 1a8b FC        		.byte	-4
 6906 1a8c DE        		.byte	-34
 6907 1a8d CA        		.byte	-54
 6908 1a8e BB        		.byte	-69
 6909 1a8f B2        		.byte	-78
 6910 1a90 B3        		.byte	-77
 6911 1a91 C3        		.byte	-61
 6912 1a92 E6        		.byte	-26
 6913 1a93 F4        		.byte	-12
 6914 1a94 F7        		.byte	-9
 6915 1a95 F3        		.byte	-13
 6916 1a96 0A        		.byte	10
 6917 1a97 EC        		.byte	-20
 6918 1a98 C2        		.byte	-62
 6919 1a99 CA        		.byte	-54
 6920 1a9a CF        		.byte	-49
 6921 1a9b FC        		.byte	-4
 6922 1a9c F3        		.byte	-13
 6923 1a9d 00        		.byte	0
 6924 1a9e 17        		.byte	23
 6925 1a9f 13        		.byte	19
 6926 1aa0 1D        		.byte	29
 6927 1aa1 0D        		.byte	13
 6928 1aa2 E8        		.byte	-24
 6929 1aa3 C9        		.byte	-55
 6930 1aa4 D0        		.byte	-48
 6931 1aa5 B7        		.byte	-73
 6932 1aa6 D1        		.byte	-47
 6933 1aa7 F3        		.byte	-13
 6934 1aa8 04        		.byte	4
 6935 1aa9 14        		.byte	20
 6936 1aaa 10        		.byte	16
 6937 1aab 09        		.byte	9
 6938 1aac F8        		.byte	-8
GAS LISTING /tmp/ccdhZXtX.s 			page 121


 6939 1aad 09        		.byte	9
 6940 1aae EE        		.byte	-18
 6941 1aaf DD        		.byte	-35
 6942 1ab0 DC        		.byte	-36
 6943 1ab1 DB        		.byte	-37
 6944 1ab2 F9        		.byte	-7
 6945 1ab3 F1        		.byte	-15
 6946 1ab4 E7        		.byte	-25
 6947 1ab5 E1        		.byte	-31
 6948 1ab6 F3        		.byte	-13
 6949 1ab7 00        		.byte	0
 6950 1ab8 0D        		.byte	13
 6951 1ab9 0B        		.byte	11
 6952 1aba 02        		.byte	2
 6953 1abb FC        		.byte	-4
 6954 1abc D2        		.byte	-46
 6955 1abd EE        		.byte	-18
 6956 1abe ED        		.byte	-19
 6957 1abf FE        		.byte	-2
 6958 1ac0 13        		.byte	19
 6959 1ac1 13        		.byte	19
 6960 1ac2 0A        		.byte	10
 6961 1ac3 FF        		.byte	-1
 6962 1ac4 14        		.byte	20
 6963 1ac5 02        		.byte	2
 6964 1ac6 D0        		.byte	-48
 6965 1ac7 AA        		.byte	-86
 6966 1ac8 CE        		.byte	-50
 6967 1ac9 D7        		.byte	-41
 6968 1aca D4        		.byte	-44
 6969 1acb EA        		.byte	-22
 6970 1acc 01        		.byte	1
 6971 1acd 0A        		.byte	10
 6972 1ace FA        		.byte	-6
 6973 1acf FF        		.byte	-1
 6974 1ad0 EA        		.byte	-22
 6975 1ad1 D5        		.byte	-43
 6976 1ad2 CF        		.byte	-49
 6977 1ad3 AD        		.byte	-83
 6978 1ad4 C5        		.byte	-59
 6979 1ad5 DF        		.byte	-33
 6980 1ad6 F6        		.byte	-10
 6981 1ad7 1F        		.byte	31
 6982 1ad8 07        		.byte	7
 6983 1ad9 E6        		.byte	-26
 6984 1ada F7        		.byte	-9
 6985 1adb FB        		.byte	-5
 6986 1adc F6        		.byte	-10
 6987 1add F0        		.byte	-16
 6988 1ade ED        		.byte	-19
 6989 1adf 09        		.byte	9
 6990 1ae0 0C        		.byte	12
 6991 1ae1 17        		.byte	23
 6992 1ae2 2E        		.byte	46
 6993 1ae3 41        		.byte	65
 6994 1ae4 4C        		.byte	76
 6995 1ae5 29        		.byte	41
GAS LISTING /tmp/ccdhZXtX.s 			page 122


 6996 1ae6 20        		.byte	32
 6997 1ae7 1C        		.byte	28
 6998 1ae8 01        		.byte	1
 6999 1ae9 FF        		.byte	-1
 7000 1aea D9        		.byte	-39
 7001 1aeb DD        		.byte	-35
 7002 1aec FD        		.byte	-3
 7003 1aed 13        		.byte	19
 7004 1aee 31        		.byte	49
 7005 1aef 3C        		.byte	60
 7006 1af0 3D        		.byte	61
 7007 1af1 33        		.byte	51
 7008 1af2 2B        		.byte	43
 7009 1af3 21        		.byte	33
 7010 1af4 1A        		.byte	26
 7011 1af5 1B        		.byte	27
 7012 1af6 36        		.byte	54
 7013 1af7 34        		.byte	52
 7014 1af8 2B        		.byte	43
 7015 1af9 48        		.byte	72
 7016 1afa 4F        		.byte	79
 7017 1afb 60        		.byte	96
 7018 1afc 49        		.byte	73
 7019 1afd 27        		.byte	39
 7020 1afe 23        		.byte	35
 7021 1aff 12        		.byte	18
 7022 1b00 0D        		.byte	13
 7023 1b01 03        		.byte	3
 7024 1b02 20        		.byte	32
 7025 1b03 31        		.byte	49
 7026 1b04 39        		.byte	57
 7027 1b05 52        		.byte	82
 7028 1b06 4D        		.byte	77
 7029 1b07 33        		.byte	51
 7030 1b08 3D        		.byte	61
 7031 1b09 2F        		.byte	47
 7032 1b0a 0A        		.byte	10
 7033 1b0b 08        		.byte	8
 7034 1b0c FE        		.byte	-2
 7035 1b0d 27        		.byte	39
 7036 1b0e 2B        		.byte	43
 7037 1b0f FD        		.byte	-3
 7038 1b10 04        		.byte	4
 7039 1b11 20        		.byte	32
 7040 1b12 2F        		.byte	47
 7041 1b13 2D        		.byte	45
 7042 1b14 35        		.byte	53
 7043 1b15 2B        		.byte	43
 7044 1b16 24        		.byte	36
 7045 1b17 FA        		.byte	-6
 7046 1b18 EA        		.byte	-22
 7047 1b19 04        		.byte	4
 7048 1b1a 11        		.byte	17
 7049 1b1b 1A        		.byte	26
 7050 1b1c 1E        		.byte	30
 7051 1b1d 27        		.byte	39
 7052 1b1e 09        		.byte	9
GAS LISTING /tmp/ccdhZXtX.s 			page 123


 7053 1b1f 1E        		.byte	30
 7054 1b20 1F        		.byte	31
 7055 1b21 DC        		.byte	-36
 7056 1b22 BE        		.byte	-66
 7057 1b23 D2        		.byte	-46
 7058 1b24 E2        		.byte	-30
 7059 1b25 E0        		.byte	-32
 7060 1b26 E9        		.byte	-23
 7061 1b27 10        		.byte	16
 7062 1b28 1F        		.byte	31
 7063 1b29 14        		.byte	20
 7064 1b2a 07        		.byte	7
 7065 1b2b F9        		.byte	-7
 7066 1b2c ED        		.byte	-19
 7067 1b2d D4        		.byte	-44
 7068 1b2e B7        		.byte	-73
 7069 1b2f B3        		.byte	-77
 7070 1b30 CD        		.byte	-51
 7071 1b31 E3        		.byte	-29
 7072 1b32 08        		.byte	8
 7073 1b33 F6        		.byte	-10
 7074 1b34 DA        		.byte	-38
 7075 1b35 EB        		.byte	-21
 7076 1b36 E3        		.byte	-29
 7077 1b37 DE        		.byte	-34
 7078 1b38 D6        		.byte	-42
 7079 1b39 CE        		.byte	-50
 7080 1b3a DB        		.byte	-37
 7081 1b3b E6        		.byte	-26
 7082 1b3c F4        		.byte	-12
 7083 1b3d EE        		.byte	-18
 7084 1b3e 15        		.byte	21
 7085 1b3f 25        		.byte	37
 7086 1b40 09        		.byte	9
 7087 1b41 FC        		.byte	-4
 7088 1b42 F5        		.byte	-11
 7089 1b43 E6        		.byte	-26
 7090 1b44 E5        		.byte	-27
 7091 1b45 C2        		.byte	-62
 7092 1b46 AD        		.byte	-83
 7093 1b47 DB        		.byte	-37
 7094 1b48 DB        		.byte	-37
 7095 1b49 EF        		.byte	-17
 7096 1b4a FE        		.byte	-2
 7097 1b4b 05        		.byte	5
 7098 1b4c 04        		.byte	4
 7099 1b4d EC        		.byte	-20
 7100 1b4e E9        		.byte	-23
 7101 1b4f D8        		.byte	-40
 7102 1b50 D9        		.byte	-39
 7103 1b51 F1        		.byte	-15
 7104 1b52 F6        		.byte	-10
 7105 1b53 F6        		.byte	-10
 7106 1b54 F6        		.byte	-10
 7107 1b55 12        		.byte	18
 7108 1b56 31        		.byte	49
 7109 1b57 1C        		.byte	28
GAS LISTING /tmp/ccdhZXtX.s 			page 124


 7110 1b58 E6        		.byte	-26
 7111 1b59 FF        		.byte	-1
 7112 1b5a F0        		.byte	-16
 7113 1b5b D6        		.byte	-42
 7114 1b5c D0        		.byte	-48
 7115 1b5d D3        		.byte	-45
 7116 1b5e 04        		.byte	4
 7117 1b5f F6        		.byte	-10
 7118 1b60 13        		.byte	19
 7119 1b61 15        		.byte	21
 7120 1b62 13        		.byte	19
 7121 1b63 13        		.byte	19
 7122 1b64 06        		.byte	6
 7123 1b65 FA        		.byte	-6
 7124 1b66 E2        		.byte	-30
 7125 1b67 DB        		.byte	-37
 7126 1b68 EF        		.byte	-17
 7127 1b69 FB        		.byte	-5
 7128 1b6a D2        		.byte	-46
 7129 1b6b E4        		.byte	-28
 7130 1b6c 01        		.byte	1
 7131 1b6d 05        		.byte	5
 7132 1b6e 16        		.byte	22
 7133 1b6f 17        		.byte	23
 7134 1b70 24        		.byte	36
 7135 1b71 0B        		.byte	11
 7136 1b72 00        		.byte	0
 7137 1b73 DE        		.byte	-34
 7138 1b74 DA        		.byte	-38
 7139 1b75 0B        		.byte	11
 7140 1b76 F4        		.byte	-12
 7141 1b77 0C        		.byte	12
 7142 1b78 18        		.byte	24
 7143 1b79 13        		.byte	19
 7144 1b7a 0E        		.byte	14
 7145 1b7b 13        		.byte	19
 7146 1b7c E9        		.byte	-23
 7147 1b7d C4        		.byte	-60
 7148 1b7e D0        		.byte	-48
 7149 1b7f CB        		.byte	-53
 7150 1b80 DB        		.byte	-37
 7151 1b81 D8        		.byte	-40
 7152 1b82 F3        		.byte	-13
 7153 1b83 06        		.byte	6
 7154 1b84 0D        		.byte	13
 7155 1b85 00        		.byte	0
 7156 1b86 EE        		.byte	-18
 7157 1b87 F1        		.byte	-15
 7158 1b88 CF        		.byte	-49
 7159 1b89 C7        		.byte	-57
 7160 1b8a B5        		.byte	-75
 7161 1b8b B9        		.byte	-71
 7162 1b8c E3        		.byte	-29
 7163 1b8d FB        		.byte	-5
 7164 1b8e F3        		.byte	-13
 7165 1b8f E8        		.byte	-24
 7166 1b90 0A        		.byte	10
GAS LISTING /tmp/ccdhZXtX.s 			page 125


 7167 1b91 F8        		.byte	-8
 7168 1b92 F8        		.byte	-8
 7169 1b93 05        		.byte	5
 7170 1b94 F3        		.byte	-13
 7171 1b95 F6        		.byte	-10
 7172 1b96 01        		.byte	1
 7173 1b97 18        		.byte	24
 7174 1b98 0B        		.byte	11
 7175 1b99 1F        		.byte	31
 7176 1b9a 3E        		.byte	62
 7177 1b9b 44        		.byte	68
 7178 1b9c 2C        		.byte	44
 7179 1b9d 19        		.byte	25
 7180 1b9e 1D        		.byte	29
 7181 1b9f 0D        		.byte	13
 7182 1ba0 EE        		.byte	-18
 7183 1ba1 B1        		.byte	-79
 7184 1ba2 EB        		.byte	-21
 7185 1ba3 0D        		.byte	13
 7186 1ba4 09        		.byte	9
 7187 1ba5 32        		.byte	50
 7188 1ba6 3E        		.byte	62
 7189 1ba7 4C        		.byte	76
 7190 1ba8 37        		.byte	55
 7191 1ba9 2D        		.byte	45
 7192 1baa 19        		.byte	25
 7193 1bab 0C        		.byte	12
 7194 1bac 18        		.byte	24
 7195 1bad 25        		.byte	37
 7196 1bae 31        		.byte	49
 7197 1baf 2A        		.byte	42
 7198 1bb0 3D        		.byte	61
 7199 1bb1 68        		.byte	104
 7200 1bb2 5A        		.byte	90
 7201 1bb3 20        		.byte	32
 7202 1bb4 37        		.byte	55
 7203 1bb5 3B        		.byte	59
 7204 1bb6 12        		.byte	18
 7205 1bb7 17        		.byte	23
 7206 1bb8 00        		.byte	0
 7207 1bb9 28        		.byte	40
 7208 1bba 33        		.byte	51
 7209 1bbb 32        		.byte	50
 7210 1bbc 42        		.byte	66
 7211 1bbd 3E        		.byte	62
 7212 1bbe 46        		.byte	70
 7213 1bbf 29        		.byte	41
 7214 1bc0 30        		.byte	48
 7215 1bc1 1B        		.byte	27
 7216 1bc2 FC        		.byte	-4
 7217 1bc3 09        		.byte	9
 7218 1bc4 14        		.byte	20
 7219 1bc5 EF        		.byte	-17
 7220 1bc6 04        		.byte	4
 7221 1bc7 1E        		.byte	30
 7222 1bc8 16        		.byte	22
 7223 1bc9 36        		.byte	54
GAS LISTING /tmp/ccdhZXtX.s 			page 126


 7224 1bca 35        		.byte	53
 7225 1bcb 41        		.byte	65
 7226 1bcc 33        		.byte	51
 7227 1bcd 21        		.byte	33
 7228 1bce 00        		.byte	0
 7229 1bcf D4        		.byte	-44
 7230 1bd0 FA        		.byte	-6
 7231 1bd1 03        		.byte	3
 7232 1bd2 06        		.byte	6
 7233 1bd3 1F        		.byte	31
 7234 1bd4 22        		.byte	34
 7235 1bd5 24        		.byte	36
 7236 1bd6 0B        		.byte	11
 7237 1bd7 ED        		.byte	-19
 7238 1bd8 E1        		.byte	-31
 7239 1bd9 D1        		.byte	-47
 7240 1bda CC        		.byte	-52
 7241 1bdb E1        		.byte	-31
 7242 1bdc E9        		.byte	-23
 7243 1bdd F2        		.byte	-14
 7244 1bde 04        		.byte	4
 7245 1bdf 1C        		.byte	28
 7246 1be0 1B        		.byte	27
 7247 1be1 FE        		.byte	-2
 7248 1be2 FB        		.byte	-5
 7249 1be3 E2        		.byte	-30
 7250 1be4 CB        		.byte	-53
 7251 1be5 C0        		.byte	-64
 7252 1be6 A9        		.byte	-87
 7253 1be7 C7        		.byte	-57
 7254 1be8 EA        		.byte	-22
 7255 1be9 D1        		.byte	-47
 7256 1bea DA        		.byte	-38
 7257 1beb FD        		.byte	-3
 7258 1bec F1        		.byte	-15
 7259 1bed DC        		.byte	-36
 7260 1bee E7        		.byte	-25
 7261 1bef E8        		.byte	-24
 7262 1bf0 C4        		.byte	-60
 7263 1bf1 D2        		.byte	-46
 7264 1bf2 E1        		.byte	-31
 7265 1bf3 E8        		.byte	-24
 7266 1bf4 EC        		.byte	-20
 7267 1bf5 F9        		.byte	-7
 7268 1bf6 17        		.byte	23
 7269 1bf7 11        		.byte	17
 7270 1bf8 F6        		.byte	-10
 7271 1bf9 F9        		.byte	-7
 7272 1bfa F2        		.byte	-14
 7273 1bfb C2        		.byte	-62
 7274 1bfc 9F        		.byte	-97
 7275 1bfd A2        		.byte	-94
 7276 1bfe CB        		.byte	-53
 7277 1bff D1        		.byte	-47
 7278 1c00 E1        		.byte	-31
 7279 1c01 03        		.byte	3
 7280 1c02 09        		.byte	9
GAS LISTING /tmp/ccdhZXtX.s 			page 127


 7281 1c03 0A        		.byte	10
 7282 1c04 F4        		.byte	-12
 7283 1c05 DD        		.byte	-35
 7284 1c06 D6        		.byte	-42
 7285 1c07 C3        		.byte	-61
 7286 1c08 D9        		.byte	-39
 7287 1c09 EE        		.byte	-18
 7288 1c0a F4        		.byte	-12
 7289 1c0b FB        		.byte	-5
 7290 1c0c 1B        		.byte	27
 7291 1c0d 1B        		.byte	27
 7292 1c0e F7        		.byte	-9
 7293 1c0f 01        		.byte	1
 7294 1c10 09        		.byte	9
 7295 1c11 F3        		.byte	-13
 7296 1c12 DE        		.byte	-34
 7297 1c13 D5        		.byte	-43
 7298 1c14 CD        		.byte	-51
 7299 1c15 FE        		.byte	-2
 7300 1c16 FB        		.byte	-5
 7301 1c17 FE        		.byte	-2
 7302 1c18 11        		.byte	17
 7303 1c19 0A        		.byte	10
 7304 1c1a 07        		.byte	7
 7305 1c1b FA        		.byte	-6
 7306 1c1c 01        		.byte	1
 7307 1c1d ED        		.byte	-19
 7308 1c1e DA        		.byte	-38
 7309 1c1f DF        		.byte	-33
 7310 1c20 CA        		.byte	-54
 7311 1c21 DD        		.byte	-35
 7312 1c22 FD        		.byte	-3
 7313 1c23 FA        		.byte	-6
 7314 1c24 0B        		.byte	11
 7315 1c25 19        		.byte	25
 7316 1c26 1F        		.byte	31
 7317 1c27 23        		.byte	35
 7318 1c28 14        		.byte	20
 7319 1c29 FC        		.byte	-4
 7320 1c2a D9        		.byte	-39
 7321 1c2b C4        		.byte	-60
 7322 1c2c F3        		.byte	-13
 7323 1c2d F5        		.byte	-11
 7324 1c2e FF        		.byte	-1
 7325 1c2f 1E        		.byte	30
 7326 1c30 23        		.byte	35
 7327 1c31 0F        		.byte	15
 7328 1c32 DE        		.byte	-34
 7329 1c33 F7        		.byte	-9
 7330 1c34 EC        		.byte	-20
 7331 1c35 C3        		.byte	-61
 7332 1c36 D7        		.byte	-41
 7333 1c37 DE        		.byte	-34
 7334 1c38 E4        		.byte	-28
 7335 1c39 F0        		.byte	-16
 7336 1c3a 07        		.byte	7
 7337 1c3b 0F        		.byte	15
GAS LISTING /tmp/ccdhZXtX.s 			page 128


 7338 1c3c 01        		.byte	1
 7339 1c3d F0        		.byte	-16
 7340 1c3e EA        		.byte	-22
 7341 1c3f DA        		.byte	-38
 7342 1c40 C3        		.byte	-61
 7343 1c41 BE        		.byte	-66
 7344 1c42 B7        		.byte	-73
 7345 1c43 E2        		.byte	-30
 7346 1c44 CE        		.byte	-50
 7347 1c45 E3        		.byte	-29
 7348 1c46 19        		.byte	25
 7349 1c47 13        		.byte	19
 7350 1c48 0F        		.byte	15
 7351 1c49 02        		.byte	2
 7352 1c4a 1D        		.byte	29
 7353 1c4b FE        		.byte	-2
 7354 1c4c EB        		.byte	-21
 7355 1c4d FF        		.byte	-1
 7356 1c4e 0D        		.byte	13
 7357 1c4f 13        		.byte	19
 7358 1c50 15        		.byte	21
 7359 1c51 39        		.byte	57
 7360 1c52 4F        		.byte	79
 7361 1c53 43        		.byte	67
 7362 1c54 2C        		.byte	44
 7363 1c55 32        		.byte	50
 7364 1c56 F4        		.byte	-12
 7365 1c57 D5        		.byte	-43
 7366 1c58 DB        		.byte	-37
 7367 1c59 D9        		.byte	-39
 7368 1c5a 0F        		.byte	15
 7369 1c5b 16        		.byte	22
 7370 1c5c 39        		.byte	57
 7371 1c5d 4E        		.byte	78
 7372 1c5e 51        		.byte	81
 7373 1c5f 4B        		.byte	75
 7374 1c60 33        		.byte	51
 7375 1c61 23        		.byte	35
 7376 1c62 02        		.byte	2
 7377 1c63 0F        		.byte	15
 7378 1c64 25        		.byte	37
 7379 1c65 36        		.byte	54
 7380 1c66 39        		.byte	57
 7381 1c67 4D        		.byte	77
 7382 1c68 52        		.byte	82
 7383 1c69 41        		.byte	65
 7384 1c6a 50        		.byte	80
 7385 1c6b 46        		.byte	70
 7386 1c6c 45        		.byte	69
 7387 1c6d 2A        		.byte	42
 7388 1c6e 1F        		.byte	31
 7389 1c6f 06        		.byte	6
 7390 1c70 17        		.byte	23
 7391 1c71 43        		.byte	67
 7392 1c72 2F        		.byte	47
 7393 1c73 3E        		.byte	62
 7394 1c74 3D        		.byte	61
GAS LISTING /tmp/ccdhZXtX.s 			page 129


 7395 1c75 43        		.byte	67
 7396 1c76 30        		.byte	48
 7397 1c77 36        		.byte	54
 7398 1c78 2D        		.byte	45
 7399 1c79 0C        		.byte	12
 7400 1c7a F7        		.byte	-9
 7401 1c7b E5        		.byte	-27
 7402 1c7c 04        		.byte	4
 7403 1c7d 12        		.byte	18
 7404 1c7e 28        		.byte	40
 7405 1c7f 26        		.byte	38
 7406 1c80 2D        		.byte	45
 7407 1c81 41        		.byte	65
 7408 1c82 34        		.byte	52
 7409 1c83 3C        		.byte	60
 7410 1c84 24        		.byte	36
 7411 1c85 05        		.byte	5
 7412 1c86 D6        		.byte	-42
 7413 1c87 E4        		.byte	-28
 7414 1c88 05        		.byte	5
 7415 1c89 01        		.byte	1
 7416 1c8a 1F        		.byte	31
 7417 1c8b 2D        		.byte	45
 7418 1c8c 23        		.byte	35
 7419 1c8d DF        		.byte	-33
 7420 1c8e F5        		.byte	-11
 7421 1c8f 0C        		.byte	12
 7422 1c90 D5        		.byte	-43
 7423 1c91 D7        		.byte	-41
 7424 1c92 E0        		.byte	-32
 7425 1c93 F0        		.byte	-16
 7426 1c94 F1        		.byte	-15
 7427 1c95 02        		.byte	2
 7428 1c96 19        		.byte	25
 7429 1c97 12        		.byte	18
 7430 1c98 06        		.byte	6
 7431 1c99 F3        		.byte	-13
 7432 1c9a EE        		.byte	-18
 7433 1c9b D9        		.byte	-39
 7434 1c9c CA        		.byte	-54
 7435 1c9d C7        		.byte	-57
 7436 1c9e C6        		.byte	-58
 7437 1c9f C4        		.byte	-60
 7438 1ca0 D3        		.byte	-45
 7439 1ca1 F4        		.byte	-12
 7440 1ca2 FE        		.byte	-2
 7441 1ca3 03        		.byte	3
 7442 1ca4 EB        		.byte	-21
 7443 1ca5 FA        		.byte	-6
 7444 1ca6 F6        		.byte	-10
 7445 1ca7 CD        		.byte	-51
 7446 1ca8 D1        		.byte	-47
 7447 1ca9 DE        		.byte	-34
 7448 1caa EA        		.byte	-22
 7449 1cab EB        		.byte	-21
 7450 1cac FA        		.byte	-6
 7451 1cad 07        		.byte	7
GAS LISTING /tmp/ccdhZXtX.s 			page 130


 7452 1cae 16        		.byte	22
 7453 1caf 02        		.byte	2
 7454 1cb0 F9        		.byte	-7
 7455 1cb1 D9        		.byte	-39
 7456 1cb2 C0        		.byte	-64
 7457 1cb3 CC        		.byte	-52
 7458 1cb4 AE        		.byte	-82
 7459 1cb5 C9        		.byte	-55
 7460 1cb6 D8        		.byte	-40
 7461 1cb7 E8        		.byte	-24
 7462 1cb8 F1        		.byte	-15
 7463 1cb9 FB        		.byte	-5
 7464 1cba 02        		.byte	2
 7465 1cbb F8        		.byte	-8
 7466 1cbc EB        		.byte	-21
 7467 1cbd CE        		.byte	-50
 7468 1cbe D0        		.byte	-48
 7469 1cbf E0        		.byte	-32
 7470 1cc0 F9        		.byte	-7
 7471 1cc1 F9        		.byte	-7
 7472 1cc2 03        		.byte	3
 7473 1cc3 F9        		.byte	-7
 7474 1cc4 EA        		.byte	-22
 7475 1cc5 09        		.byte	9
 7476 1cc6 03        		.byte	3
 7477 1cc7 0B        		.byte	11
 7478 1cc8 01        		.byte	1
 7479 1cc9 F8        		.byte	-8
 7480 1cca ED        		.byte	-19
 7481 1ccb CE        		.byte	-50
 7482 1ccc F7        		.byte	-9
 7483 1ccd FF        		.byte	-1
 7484 1cce FA        		.byte	-6
 7485 1ccf F5        		.byte	-11
 7486 1cd0 FC        		.byte	-4
 7487 1cd1 FE        		.byte	-2
 7488 1cd2 F9        		.byte	-7
 7489 1cd3 07        		.byte	7
 7490 1cd4 FC        		.byte	-4
 7491 1cd5 E3        		.byte	-29
 7492 1cd6 D6        		.byte	-42
 7493 1cd7 E9        		.byte	-23
 7494 1cd8 EE        		.byte	-18
 7495 1cd9 FE        		.byte	-2
 7496 1cda 0A        		.byte	10
 7497 1cdb FA        		.byte	-6
 7498 1cdc 0F        		.byte	15
 7499 1cdd 17        		.byte	23
 7500 1cde 18        		.byte	24
 7501 1cdf 16        		.byte	22
 7502 1ce0 08        		.byte	8
 7503 1ce1 E8        		.byte	-24
 7504 1ce2 CA        		.byte	-54
 7505 1ce3 E5        		.byte	-27
 7506 1ce4 F5        		.byte	-11
 7507 1ce5 FF        		.byte	-1
 7508 1ce6 09        		.byte	9
GAS LISTING /tmp/ccdhZXtX.s 			page 131


 7509 1ce7 06        		.byte	6
 7510 1ce8 E1        		.byte	-31
 7511 1ce9 E7        		.byte	-25
 7512 1cea 06        		.byte	6
 7513 1ceb F9        		.byte	-7
 7514 1cec EC        		.byte	-20
 7515 1ced E7        		.byte	-25
 7516 1cee EB        		.byte	-21
 7517 1cef E3        		.byte	-29
 7518 1cf0 F1        		.byte	-15
 7519 1cf1 FA        		.byte	-6
 7520 1cf2 F5        		.byte	-11
 7521 1cf3 ED        		.byte	-19
 7522 1cf4 ED        		.byte	-19
 7523 1cf5 E9        		.byte	-23
 7524 1cf6 E5        		.byte	-27
 7525 1cf7 E2        		.byte	-30
 7526 1cf8 DD        		.byte	-35
 7527 1cf9 DB        		.byte	-37
 7528 1cfa BE        		.byte	-66
 7529 1cfb D4        		.byte	-44
 7530 1cfc F3        		.byte	-13
 7531 1cfd F9        		.byte	-7
 7532 1cfe 04        		.byte	4
 7533 1cff 07        		.byte	7
 7534 1d00 11        		.byte	17
 7535 1d01 17        		.byte	23
 7536 1d02 09        		.byte	9
 7537 1d03 09        		.byte	9
 7538 1d04 0E        		.byte	14
 7539 1d05 06        		.byte	6
 7540 1d06 09        		.byte	9
 7541 1d07 0D        		.byte	13
 7542 1d08 1B        		.byte	27
 7543 1d09 32        		.byte	50
 7544 1d0a 31        		.byte	49
 7545 1d0b 28        		.byte	40
 7546 1d0c 0E        		.byte	14
 7547 1d0d F2        		.byte	-14
 7548 1d0e 07        		.byte	7
 7549 1d0f EF        		.byte	-17
 7550 1d10 F2        		.byte	-14
 7551 1d11 0F        		.byte	15
 7552 1d12 19        		.byte	25
 7553 1d13 28        		.byte	40
 7554 1d14 29        		.byte	41
 7555 1d15 2C        		.byte	44
 7556 1d16 36        		.byte	54
 7557 1d17 37        		.byte	55
 7558 1d18 20        		.byte	32
 7559 1d19 12        		.byte	18
 7560 1d1a 1C        		.byte	28
 7561 1d1b 3A        		.byte	58
 7562 1d1c 39        		.byte	57
 7563 1d1d 38        		.byte	56
 7564 1d1e 25        		.byte	37
 7565 1d1f 19        		.byte	25
GAS LISTING /tmp/ccdhZXtX.s 			page 132


 7566 1d20 36        		.byte	54
 7567 1d21 3C        		.byte	60
 7568 1d22 4A        		.byte	74
 7569 1d23 4F        		.byte	79
 7570 1d24 3F        		.byte	63
 7571 1d25 41        		.byte	65
 7572 1d26 23        		.byte	35
 7573 1d27 1C        		.byte	28
 7574 1d28 33        		.byte	51
 7575 1d29 28        		.byte	40
 7576 1d2a 23        		.byte	35
 7577 1d2b 18        		.byte	24
 7578 1d2c 17        		.byte	23
 7579 1d2d 27        		.byte	39
 7580 1d2e 32        		.byte	50
 7581 1d2f 3B        		.byte	59
 7582 1d30 11        		.byte	17
 7583 1d31 F5        		.byte	-11
 7584 1d32 15        		.byte	21
 7585 1d33 0F        		.byte	15
 7586 1d34 18        		.byte	24
 7587 1d35 28        		.byte	40
 7588 1d36 1E        		.byte	30
 7589 1d37 0A        		.byte	10
 7590 1d38 1A        		.byte	26
 7591 1d39 35        		.byte	53
 7592 1d3a 37        		.byte	55
 7593 1d3b 2E        		.byte	46
 7594 1d3c 1B        		.byte	27
 7595 1d3d F9        		.byte	-7
 7596 1d3e E9        		.byte	-23
 7597 1d3f 04        		.byte	4
 7598 1d40 02        		.byte	2
 7599 1d41 10        		.byte	16
 7600 1d42 FE        		.byte	-2
 7601 1d43 DE        		.byte	-34
 7602 1d44 F2        		.byte	-14
 7603 1d45 03        		.byte	3
 7604 1d46 12        		.byte	18
 7605 1d47 08        		.byte	8
 7606 1d48 00        		.byte	0
 7607 1d49 FA        		.byte	-6
 7608 1d4a EB        		.byte	-21
 7609 1d4b F1        		.byte	-15
 7610 1d4c F8        		.byte	-8
 7611 1d4d F9        		.byte	-7
 7612 1d4e EC        		.byte	-20
 7613 1d4f EF        		.byte	-17
 7614 1d50 F3        		.byte	-13
 7615 1d51 F3        		.byte	-13
 7616 1d52 EF        		.byte	-17
 7617 1d53 EB        		.byte	-21
 7618 1d54 E5        		.byte	-27
 7619 1d55 BD        		.byte	-67
 7620 1d56 C4        		.byte	-60
 7621 1d57 DE        		.byte	-34
 7622 1d58 E7        		.byte	-25
GAS LISTING /tmp/ccdhZXtX.s 			page 133


 7623 1d59 EF        		.byte	-17
 7624 1d5a EE        		.byte	-18
 7625 1d5b F2        		.byte	-14
 7626 1d5c F5        		.byte	-11
 7627 1d5d FD        		.byte	-3
 7628 1d5e F1        		.byte	-15
 7629 1d5f F2        		.byte	-14
 7630 1d60 E4        		.byte	-28
 7631 1d61 DF        		.byte	-33
 7632 1d62 E4        		.byte	-28
 7633 1d63 E9        		.byte	-23
 7634 1d64 FF        		.byte	-1
 7635 1d65 00        		.byte	0
 7636 1d66 FF        		.byte	-1
 7637 1d67 D9        		.byte	-39
 7638 1d68 D1        		.byte	-47
 7639 1d69 DE        		.byte	-34
 7640 1d6a D9        		.byte	-39
 7641 1d6b C6        		.byte	-58
 7642 1d6c CE        		.byte	-50
 7643 1d6d E1        		.byte	-31
 7644 1d6e DF        		.byte	-33
 7645 1d6f EF        		.byte	-17
 7646 1d70 E7        		.byte	-25
 7647 1d71 ED        		.byte	-19
 7648 1d72 F6        		.byte	-10
 7649 1d73 EE        		.byte	-18
 7650 1d74 DC        		.byte	-36
 7651 1d75 D5        		.byte	-43
 7652 1d76 F8        		.byte	-8
 7653 1d77 FF        		.byte	-1
 7654 1d78 02        		.byte	2
 7655 1d79 E3        		.byte	-29
 7656 1d7a DB        		.byte	-37
 7657 1d7b FF        		.byte	-1
 7658 1d7c F7        		.byte	-9
 7659 1d7d 08        		.byte	8
 7660 1d7e 16        		.byte	22
 7661 1d7f 12        		.byte	18
 7662 1d80 02        		.byte	2
 7663 1d81 08        		.byte	8
 7664 1d82 E6        		.byte	-26
 7665 1d83 E6        		.byte	-26
 7666 1d84 00        		.byte	0
 7667 1d85 EE        		.byte	-18
 7668 1d86 F1        		.byte	-15
 7669 1d87 E2        		.byte	-30
 7670 1d88 FA        		.byte	-6
 7671 1d89 FC        		.byte	-4
 7672 1d8a 0B        		.byte	11
 7673 1d8b F3        		.byte	-13
 7674 1d8c CE        		.byte	-50
 7675 1d8d F2        		.byte	-14
 7676 1d8e EE        		.byte	-18
 7677 1d8f F7        		.byte	-9
 7678 1d90 03        		.byte	3
 7679 1d91 0E        		.byte	14
GAS LISTING /tmp/ccdhZXtX.s 			page 134


 7680 1d92 F7        		.byte	-9
 7681 1d93 EB        		.byte	-21
 7682 1d94 06        		.byte	6
 7683 1d95 19        		.byte	25
 7684 1d96 20        		.byte	32
 7685 1d97 09        		.byte	9
 7686 1d98 03        		.byte	3
 7687 1d99 DA        		.byte	-38
 7688 1d9a F1        		.byte	-15
 7689 1d9b F9        		.byte	-7
 7690 1d9c FD        		.byte	-3
 7691 1d9d FC        		.byte	-4
 7692 1d9e C8        		.byte	-56
 7693 1d9f F2        		.byte	-14
 7694 1da0 F6        		.byte	-10
 7695 1da1 06        		.byte	6
 7696 1da2 14        		.byte	20
 7697 1da3 07        		.byte	7
 7698 1da4 FE        		.byte	-2
 7699 1da5 ED        		.byte	-19
 7700 1da6 EA        		.byte	-22
 7701 1da7 EA        		.byte	-22
 7702 1da8 F3        		.byte	-13
 7703 1da9 E2        		.byte	-30
 7704 1daa DF        		.byte	-33
 7705 1dab DF        		.byte	-33
 7706 1dac ED        		.byte	-19
 7707 1dad EA        		.byte	-22
 7708 1dae E5        		.byte	-27
 7709 1daf E8        		.byte	-24
 7710 1db0 BC        		.byte	-68
 7711 1db1 C3        		.byte	-61
 7712 1db2 D9        		.byte	-39
 7713 1db3 E9        		.byte	-23
 7714 1db4 FD        		.byte	-3
 7715 1db5 00        		.byte	0
 7716 1db6 07        		.byte	7
 7717 1db7 09        		.byte	9
 7718 1db8 16        		.byte	22
 7719 1db9 0E        		.byte	14
 7720 1dba 19        		.byte	25
 7721 1dbb 0E        		.byte	14
 7722 1dbc 0A        		.byte	10
 7723 1dbd 0B        		.byte	11
 7724 1dbe 0F        		.byte	15
 7725 1dbf 22        		.byte	34
 7726 1dc0 21        		.byte	33
 7727 1dc1 33        		.byte	51
 7728 1dc2 FD        		.byte	-3
 7729 1dc3 0D        		.byte	13
 7730 1dc4 16        		.byte	22
 7731 1dc5 0E        		.byte	14
 7732 1dc6 16        		.byte	22
 7733 1dc7 FC        		.byte	-4
 7734 1dc8 17        		.byte	23
 7735 1dc9 17        		.byte	23
 7736 1dca 21        		.byte	33
GAS LISTING /tmp/ccdhZXtX.s 			page 135


 7737 1dcb 21        		.byte	33
 7738 1dcc 27        		.byte	39
 7739 1dcd 27        		.byte	39
 7740 1dce 34        		.byte	52
 7741 1dcf 25        		.byte	37
 7742 1dd0 0E        		.byte	14
 7743 1dd1 2C        		.byte	44
 7744 1dd2 34        		.byte	52
 7745 1dd3 46        		.byte	70
 7746 1dd4 1E        		.byte	30
 7747 1dd5 1C        		.byte	28
 7748 1dd6 40        		.byte	64
 7749 1dd7 38        		.byte	56
 7750 1dd8 46        		.byte	70
 7751 1dd9 4D        		.byte	77
 7752 1dda 58        		.byte	88
 7753 1ddb 3E        		.byte	62
 7754 1ddc 44        		.byte	68
 7755 1ddd 3A        		.byte	58
 7756 1dde 16        		.byte	22
 7757 1ddf 2D        		.byte	45
 7758 1de0 28        		.byte	40
 7759 1de1 21        		.byte	33
 7760 1de2 13        		.byte	19
 7761 1de3 23        		.byte	35
 7762 1de4 27        		.byte	39
 7763 1de5 35        		.byte	53
 7764 1de6 17        		.byte	23
 7765 1de7 F7        		.byte	-9
 7766 1de8 1D        		.byte	29
 7767 1de9 16        		.byte	22
 7768 1dea 20        		.byte	32
 7769 1deb 24        		.byte	36
 7770 1dec 2E        		.byte	46
 7771 1ded 2E        		.byte	46
 7772 1dee 0D        		.byte	13
 7773 1def 0B        		.byte	11
 7774 1df0 29        		.byte	41
 7775 1df1 30        		.byte	48
 7776 1df2 1F        		.byte	31
 7777 1df3 25        		.byte	37
 7778 1df4 FF        		.byte	-1
 7779 1df5 F6        		.byte	-10
 7780 1df6 0A        		.byte	10
 7781 1df7 0E        		.byte	14
 7782 1df8 FE        		.byte	-2
 7783 1df9 CF        		.byte	-49
 7784 1dfa EF        		.byte	-17
 7785 1dfb FD        		.byte	-3
 7786 1dfc 01        		.byte	1
 7787 1dfd 16        		.byte	22
 7788 1dfe 18        		.byte	24
 7789 1dff 0E        		.byte	14
 7790 1e00 FF        		.byte	-1
 7791 1e01 FB        		.byte	-5
 7792 1e02 F2        		.byte	-14
 7793 1e03 F7        		.byte	-9
GAS LISTING /tmp/ccdhZXtX.s 			page 136


 7794 1e04 ED        		.byte	-19
 7795 1e05 E8        		.byte	-24
 7796 1e06 DF        		.byte	-33
 7797 1e07 F9        		.byte	-7
 7798 1e08 F2        		.byte	-14
 7799 1e09 EE        		.byte	-18
 7800 1e0a DF        		.byte	-33
 7801 1e0b B0        		.byte	-80
 7802 1e0c C1        		.byte	-63
 7803 1e0d C0        		.byte	-64
 7804 1e0e CC        		.byte	-52
 7805 1e0f E0        		.byte	-32
 7806 1e10 EA        		.byte	-22
 7807 1e11 EC        		.byte	-20
 7808 1e12 EE        		.byte	-18
 7809 1e13 F1        		.byte	-15
 7810 1e14 EC        		.byte	-20
 7811 1e15 F2        		.byte	-14
 7812 1e16 E9        		.byte	-23
 7813 1e17 E3        		.byte	-29
 7814 1e18 E3        		.byte	-29
 7815 1e19 E7        		.byte	-25
 7816 1e1a F5        		.byte	-11
 7817 1e1b F3        		.byte	-13
 7818 1e1c FA        		.byte	-6
 7819 1e1d CD        		.byte	-51
 7820 1e1e D4        		.byte	-44
 7821 1e1f EA        		.byte	-22
 7822 1e20 D2        		.byte	-46
 7823 1e21 E9        		.byte	-23
 7824 1e22 D4        		.byte	-44
 7825 1e23 C6        		.byte	-58
 7826 1e24 D7        		.byte	-41
 7827 1e25 E1        		.byte	-31
 7828 1e26 DC        		.byte	-36
 7829 1e27 E2        		.byte	-30
 7830 1e28 D9        		.byte	-39
 7831 1e29 E4        		.byte	-28
 7832 1e2a EE        		.byte	-18
 7833 1e2b D7        		.byte	-41
 7834 1e2c D9        		.byte	-39
 7835 1e2d E8        		.byte	-24
 7836 1e2e FB        		.byte	-5
 7837 1e2f D8        		.byte	-40
 7838 1e30 DE        		.byte	-34
 7839 1e31 FB        		.byte	-5
 7840 1e32 F9        		.byte	-7
 7841 1e33 01        		.byte	1
 7842 1e34 0D        		.byte	13
 7843 1e35 1C        		.byte	28
 7844 1e36 08        		.byte	8
 7845 1e37 01        		.byte	1
 7846 1e38 0F        		.byte	15
 7847 1e39 EF        		.byte	-17
 7848 1e3a D8        		.byte	-40
 7849 1e3b F6        		.byte	-10
 7850 1e3c F3        		.byte	-13
GAS LISTING /tmp/ccdhZXtX.s 			page 137


 7851 1e3d E6        		.byte	-26
 7852 1e3e F1        		.byte	-15
 7853 1e3f ED        		.byte	-19
 7854 1e40 04        		.byte	4
 7855 1e41 E4        		.byte	-28
 7856 1e42 D6        		.byte	-42
 7857 1e43 F6        		.byte	-10
 7858 1e44 F8        		.byte	-8
 7859 1e45 FB        		.byte	-5
 7860 1e46 03        		.byte	3
 7861 1e47 0E        		.byte	14
 7862 1e48 0A        		.byte	10
 7863 1e49 0A        		.byte	10
 7864 1e4a E7        		.byte	-25
 7865 1e4b FD        		.byte	-3
 7866 1e4c 0F        		.byte	15
 7867 1e4d 0C        		.byte	12
 7868 1e4e 0E        		.byte	14
 7869 1e4f 0A        		.byte	10
 7870 1e50 F1        		.byte	-15
 7871 1e51 DF        		.byte	-33
 7872 1e52 05        		.byte	5
 7873 1e53 E4        		.byte	-28
 7874 1e54 C9        		.byte	-55
 7875 1e55 E5        		.byte	-27
 7876 1e56 F6        		.byte	-10
 7877 1e57 FC        		.byte	-4
 7878 1e58 08        		.byte	8
 7879 1e59 19        		.byte	25
 7880 1e5a 19        		.byte	25
 7881 1e5b 01        		.byte	1
 7882 1e5c EB        		.byte	-21
 7883 1e5d F7        		.byte	-9
 7884 1e5e ED        		.byte	-19
 7885 1e5f DE        		.byte	-34
 7886 1e60 DE        		.byte	-34
 7887 1e61 CF        		.byte	-49
 7888 1e62 E8        		.byte	-24
 7889 1e63 E9        		.byte	-23
 7890 1e64 E8        		.byte	-24
 7891 1e65 D3        		.byte	-45
 7892 1e66 B0        		.byte	-80
 7893 1e67 CF        		.byte	-49
 7894 1e68 CF        		.byte	-49
 7895 1e69 CB        		.byte	-53
 7896 1e6a E1        		.byte	-31
 7897 1e6b F2        		.byte	-14
 7898 1e6c 04        		.byte	4
 7899 1e6d 06        		.byte	6
 7900 1e6e 0A        		.byte	10
 7901 1e6f 15        		.byte	21
 7902 1e70 12        		.byte	18
 7903 1e71 0E        		.byte	14
 7904 1e72 0D        		.byte	13
 7905 1e73 09        		.byte	9
 7906 1e74 1A        		.byte	26
 7907 1e75 17        		.byte	23
GAS LISTING /tmp/ccdhZXtX.s 			page 138


 7908 1e76 21        		.byte	33
 7909 1e77 1A        		.byte	26
 7910 1e78 FA        		.byte	-6
 7911 1e79 11        		.byte	17
 7912 1e7a 1F        		.byte	31
 7913 1e7b 0F        		.byte	15
 7914 1e7c 18        		.byte	24
 7915 1e7d 25        		.byte	37
 7916 1e7e FF        		.byte	-1
 7917 1e7f 04        		.byte	4
 7918 1e80 18        		.byte	24
 7919 1e81 1E        		.byte	30
 7920 1e82 21        		.byte	33
 7921 1e83 1B        		.byte	27
 7922 1e84 23        		.byte	35
 7923 1e85 2A        		.byte	42
 7924 1e86 35        		.byte	53
 7925 1e87 22        		.byte	34
 7926 1e88 24        		.byte	36
 7927 1e89 32        		.byte	50
 7928 1e8a 0F        		.byte	15
 7929 1e8b 26        		.byte	38
 7930 1e8c 3A        		.byte	58
 7931 1e8d 3B        		.byte	59
 7932 1e8e 45        		.byte	69
 7933 1e8f 47        		.byte	71
 7934 1e90 5C        		.byte	92
 7935 1e91 52        		.byte	82
 7936 1e92 3F        		.byte	63
 7937 1e93 41        		.byte	65
 7938 1e94 4D        		.byte	77
 7939 1e95 0D        		.byte	13
 7940 1e96 18        		.byte	24
 7941 1e97 2E        		.byte	46
 7942 1e98 22        		.byte	34
 7943 1e99 24        		.byte	36
 7944 1e9a 21        		.byte	33
 7945 1e9b 33        		.byte	51
 7946 1e9c 0C        		.byte	12
 7947 1e9d 0F        		.byte	15
 7948 1e9e 23        		.byte	35
 7949 1e9f 27        		.byte	39
 7950 1ea0 24        		.byte	36
 7951 1ea1 26        		.byte	38
 7952 1ea2 33        		.byte	51
 7953 1ea3 32        		.byte	50
 7954 1ea4 2F        		.byte	47
 7955 1ea5 1B        		.byte	27
 7956 1ea6 15        		.byte	21
 7957 1ea7 19        		.byte	25
 7958 1ea8 23        		.byte	35
 7959 1ea9 1F        		.byte	31
 7960 1eaa 2A        		.byte	42
 7961 1eab 21        		.byte	33
 7962 1eac F2        		.byte	-14
 7963 1ead 07        		.byte	7
 7964 1eae F1        		.byte	-15
GAS LISTING /tmp/ccdhZXtX.s 			page 139


 7965 1eaf DE        		.byte	-34
 7966 1eb0 F3        		.byte	-13
 7967 1eb1 F9        		.byte	-7
 7968 1eb2 07        		.byte	7
 7969 1eb3 0E        		.byte	14
 7970 1eb4 12        		.byte	18
 7971 1eb5 20        		.byte	32
 7972 1eb6 12        		.byte	18
 7973 1eb7 F7        		.byte	-9
 7974 1eb8 03        		.byte	3
 7975 1eb9 EF        		.byte	-17
 7976 1eba E8        		.byte	-24
 7977 1ebb E9        		.byte	-23
 7978 1ebc E5        		.byte	-27
 7979 1ebd F1        		.byte	-15
 7980 1ebe F6        		.byte	-10
 7981 1ebf F7        		.byte	-9
 7982 1ec0 D0        		.byte	-48
 7983 1ec1 BE        		.byte	-66
 7984 1ec2 D0        		.byte	-48
 7985 1ec3 D4        		.byte	-44
 7986 1ec4 C7        		.byte	-57
 7987 1ec5 CE        		.byte	-50
 7988 1ec6 D9        		.byte	-39
 7989 1ec7 E3        		.byte	-29
 7990 1ec8 EE        		.byte	-18
 7991 1ec9 ED        		.byte	-19
 7992 1eca FB        		.byte	-5
 7993 1ecb EA        		.byte	-22
 7994 1ecc E6        		.byte	-26
 7995 1ecd EA        		.byte	-22
 7996 1ece DD        		.byte	-35
 7997 1ecf F1        		.byte	-15
 7998 1ed0 EF        		.byte	-17
 7999 1ed1 F5        		.byte	-11
 8000 1ed2 E3        		.byte	-29
 8001 1ed3 C2        		.byte	-62
 8002 1ed4 E7        		.byte	-25
 8003 1ed5 F0        		.byte	-16
 8004 1ed6 E7        		.byte	-25
 8005 1ed7 DF        		.byte	-33
 8006 1ed8 F0        		.byte	-16
 8007 1ed9 E0        		.byte	-32
 8008 1eda BC        		.byte	-68
 8009 1edb CD        		.byte	-51
 8010 1edc E4        		.byte	-28
 8011 1edd D7        		.byte	-41
 8012 1ede CF        		.byte	-49
 8013 1edf DF        		.byte	-33
 8014 1ee0 DE        		.byte	-34
 8015 1ee1 FB        		.byte	-5
 8016 1ee2 EC        		.byte	-20
 8017 1ee3 DD        		.byte	-35
 8018 1ee4 DC        		.byte	-36
 8019 1ee5 C3        		.byte	-61
 8020 1ee6 DD        		.byte	-35
 8021 1ee7 FD        		.byte	-3
GAS LISTING /tmp/ccdhZXtX.s 			page 140


 8022 1ee8 F7        		.byte	-9
 8023 1ee9 05        		.byte	5
 8024 1eea 09        		.byte	9
 8025 1eeb 0E        		.byte	14
 8026 1eec 1D        		.byte	29
 8027 1eed 06        		.byte	6
 8028 1eee 08        		.byte	8
 8029 1eef 18        		.byte	24
 8030 1ef0 EC        		.byte	-20
 8031 1ef1 C8        		.byte	-56
 8032 1ef2 E2        		.byte	-30
 8033 1ef3 FC        		.byte	-4
 8034 1ef4 EB        		.byte	-21
 8035 1ef5 EE        		.byte	-18
 8036 1ef6 F6        		.byte	-10
 8037 1ef7 DB        		.byte	-37
 8038 1ef8 E1        		.byte	-31
 8039 1ef9 F7        		.byte	-9
 8040 1efa FE        		.byte	-2
 8041 1efb FB        		.byte	-5
 8042 1efc FF        		.byte	-1
 8043 1efd 07        		.byte	7
 8044 1efe 0D        		.byte	13
 8045 1eff 01        		.byte	1
 8046 1f00 0F        		.byte	15
 8047 1f01 FF        		.byte	-1
 8048 1f02 EB        		.byte	-21
 8049 1f03 FC        		.byte	-4
 8050 1f04 FE        		.byte	-2
 8051 1f05 10        		.byte	16
 8052 1f06 1C        		.byte	28
 8053 1f07 F2        		.byte	-14
 8054 1f08 DE        		.byte	-34
 8055 1f09 D6        		.byte	-42
 8056 1f0a D6        		.byte	-42
 8057 1f0b EA        		.byte	-22
 8058 1f0c E9        		.byte	-23
 8059 1f0d FE        		.byte	-2
 8060 1f0e 10        		.byte	16
 8061 1f0f 0B        		.byte	11
 8062 1f10 11        		.byte	17
 8063 1f11 19        		.byte	25
 8064 1f12 FF        		.byte	-1
 8065 1f13 FF        		.byte	-1
 8066 1f14 EC        		.byte	-20
 8067 1f15 DD        		.byte	-35
 8068 1f16 DE        		.byte	-34
 8069 1f17 DC        		.byte	-36
 8070 1f18 E6        		.byte	-26
 8071 1f19 E5        		.byte	-27
 8072 1f1a F4        		.byte	-12
 8073 1f1b C6        		.byte	-58
 8074 1f1c B9        		.byte	-71
 8075 1f1d D3        		.byte	-45
 8076 1f1e D2        		.byte	-46
 8077 1f1f D9        		.byte	-39
 8078 1f20 D7        		.byte	-41
GAS LISTING /tmp/ccdhZXtX.s 			page 141


 8079 1f21 DA        		.byte	-38
 8080 1f22 EB        		.byte	-21
 8081 1f23 00        		.byte	0
 8082 1f24 03        		.byte	3
 8083 1f25 1D        		.byte	29
 8084 1f26 09        		.byte	9
 8085 1f27 FE        		.byte	-2
 8086 1f28 07        		.byte	7
 8087 1f29 05        		.byte	5
 8088 1f2a 1A        		.byte	26
 8089 1f2b 19        		.byte	25
 8090 1f2c 1A        		.byte	26
 8092               		.text
 8094               	.Letext0:
 8095               		.ident	"GCC: (GNU) 4.9.2"
GAS LISTING /tmp/ccdhZXtX.s 			page 142


DEFINED SYMBOLS
                            *ABS*:0000000000000000 samples.c
     /tmp/ccdhZXtX.s:2      *ABS*:000000000000003e __SP_H__
     /tmp/ccdhZXtX.s:3      *ABS*:000000000000003d __SP_L__
     /tmp/ccdhZXtX.s:4      *ABS*:000000000000003f __SREG__
     /tmp/ccdhZXtX.s:5      *ABS*:0000000000000000 __tmp_reg__
     /tmp/ccdhZXtX.s:6      *ABS*:0000000000000001 __zero_reg__
     /tmp/ccdhZXtX.s:109    .progmem.data:0000000000000000 auddat

NO UNDEFINED SYMBOLS
